; Listing generated by Microsoft (R) Optimizing Compiler Version 19.23.28105.4 

include listing.inc

INCLUDELIB MSVCRTD
INCLUDELIB OLDNAMES

msvcjmc	SEGMENT
__7F8AB566_vcruntime_new@h DB 01H
__09340588_corecrt_math@h DB 01H
__24E9E95F_stdlib@h DB 01H
__2FC657CE_cstdlib DB 01H
__70639AFA_cmath DB 01H
__F66CEB67_corecrt_stdio_config@h DB 01H
__101834BA_corecrt_wstdio@h DB 01H
__AD6A91B7_stdio@h DB 01H
__8A0D8D63_cstddef DB 01H
__C8593937_type_traits DB 01H
__B0C4CEA9_malloc@h DB 01H
__96AB3BB0_vcruntime_exception@h DB 01H
__A47A247F_exception DB 01H
__367CC694_corecrt_memcpy_s@h DB 01H
__35D7DDB3_corecrt_memory@h DB 01H
__DC9673E3_corecrt_wstring@h DB 01H
__A29A7DFB_string@h DB 01H
__5467428D_corecrt_wconio@h DB 01H
__4442441F_corecrt_wio@h DB 01H
__45F4AF76_corecrt_wtime@h DB 01H
__186FF47F_stat@h DB 01H
__534C724A_wchar@h DB 01H
__289D9ECD_limits DB 01H
__F3238959_xutility DB 01H
__725EB186_xmemory DB 01H
__D64083BB_tuple DB 01H
__2DF72A1A_xpolymorphic_allocator@h DB 01H
__068D371A_xstring DB 01H
__2D341E22_stdexcept DB 01H
__502C2D49_xcall_once@h DB 01H
__EF713F69_system_error DB 01H
__B69C91F9_vcruntime_typeinfo@h DB 01H
__83FC7A40_typeinfo DB 01H
__94339243_memory DB 01H
__B876C54C_xfacet DB 01H
__7242C389_ctype@h DB 01H
__9C759988_xlocinfo DB 01H
__D9B3432B_xlocale DB 01H
__A590EE9B_xiosbase DB 01H
__4734253C_xlocnum DB 01H
__1421D064_ios DB 01H
__E0E014DF_string DB 01H
__794A66F8_xtree DB 01H
__113EAA92_xbit_ops@h DB 01H
__1FCC5A9C_xhash DB 01H
__C6677F44_functional DB 01H
__4EB666AB_algorithm DB 01H
__D1EA7800_typeindex DB 01H
__6530EE2D_vector DB 01H
__77434190_cpp11@cpp DB 01H
__EE132E02_initializer_list DB 01H
__14A2048C_map DB 01H
__A973ACD5_istream DB 01H
__CAA399EF_ostream DB 01H
__2F94A69E_streambuf DB 01H
__3E74FB55_xtr1common DB 01H
__E4744B4B_iosfwd DB 01H
__18CBD245_utility DB 01H
__EFD44557_xstddef DB 01H
__AE76A8A9_xatomic@h DB 01H
msvcjmc	ENDS
PUBLIC	?__empty_global_delete@@YAXPEAX@Z		; __empty_global_delete
PUBLIC	?__empty_global_delete@@YAXPEAX_K@Z		; __empty_global_delete
PUBLIC	?__empty_global_delete@@YAXPEAXW4align_val_t@std@@@Z ; __empty_global_delete
PUBLIC	?__empty_global_delete@@YAXPEAX_KW4align_val_t@std@@@Z ; __empty_global_delete
PUBLIC	?run@cpp11@@QEAAXXZ				; cpp11::run
PUBLIC	?LambdaFunc@cpp11@@AEAAXXZ			; cpp11::LambdaFunc
PUBLIC	?SharedPtrFunc@cpp11@@AEAAXXZ			; cpp11::SharedPtrFunc
PUBLIC	?AllocatorFunc@cpp11@@AEAAXXZ			; cpp11::AllocatorFunc
PUBLIC	?AttributesFunc@cpp11@@AEAAXXZ			; cpp11::AttributesFunc
PUBLIC	?MoveFunc@cpp11@@AEAAXXZ			; cpp11::MoveFunc
PUBLIC	?ForwardFunc@cpp11@@AEAAXXZ			; cpp11::ForwardFunc
PUBLIC	?ForwardFunc2@cpp11@@AEAAXXZ			; cpp11::ForwardFunc2
PUBLIC	?EmplaceFunc@cpp11@@AEAAXXZ			; cpp11::EmplaceFunc
PUBLIC	?IsSameFunc@cpp11@@AEAAXXZ			; cpp11::IsSameFunc
PUBLIC	?ResultOfFunc@cpp11@@AEAAXXZ			; cpp11::ResultOfFunc
PUBLIC	?AnyFunc@cpp11@@AEAAXXZ				; cpp11::AnyFunc
PUBLIC	?ClassConstMemberFunc@cpp11@@AEAAXXZ		; cpp11::ClassConstMemberFunc
PUBLIC	??2@YAPEAX_KPEAX@Z				; operator new
PUBLIC	??B?$integral_constant@_N$00@std@@QEBA_NXZ	; std::integral_constant<bool,1>::operator bool
PUBLIC	??0exception@std@@QEAA@QEBDH@Z			; std::exception::exception
PUBLIC	??0exception@std@@QEAA@AEBV01@@Z		; std::exception::exception
PUBLIC	??1exception@std@@UEAA@XZ			; std::exception::~exception
PUBLIC	?what@exception@std@@UEBAPEBDXZ			; std::exception::what
PUBLIC	??_Gexception@std@@UEAAPEAXI@Z			; std::exception::`scalar deleting destructor'
PUBLIC	??0bad_alloc@std@@AEAA@QEBD@Z			; std::bad_alloc::bad_alloc
PUBLIC	??1bad_alloc@std@@UEAA@XZ			; std::bad_alloc::~bad_alloc
PUBLIC	??0bad_alloc@std@@QEAA@AEBV01@@Z		; std::bad_alloc::bad_alloc
PUBLIC	??_Gbad_alloc@std@@UEAAPEAXI@Z			; std::bad_alloc::`scalar deleting destructor'
PUBLIC	??0bad_array_new_length@std@@QEAA@XZ		; std::bad_array_new_length::bad_array_new_length
PUBLIC	??1bad_array_new_length@std@@UEAA@XZ		; std::bad_array_new_length::~bad_array_new_length
PUBLIC	??0bad_array_new_length@std@@QEAA@AEBV01@@Z	; std::bad_array_new_length::bad_array_new_length
PUBLIC	??_Gbad_array_new_length@std@@UEAAPEAXI@Z	; std::bad_array_new_length::`scalar deleting destructor'
PUBLIC	?_Throw_bad_array_new_length@std@@YAXXZ		; std::_Throw_bad_array_new_length
PUBLIC	?max@?$numeric_limits@_J@std@@SA_JXZ		; std::numeric_limits<__int64>::max
PUBLIC	?_Allocate@_Default_allocate_traits@std@@SAPEAX_K@Z ; std::_Default_allocate_traits::_Allocate
PUBLIC	?_Adjust_manually_vector_aligned@std@@YAXAEAPEAXAEA_K@Z ; std::_Adjust_manually_vector_aligned
PUBLIC	??$_Convert_size@_K@std@@YA_K_K@Z		; std::_Convert_size<unsigned __int64>
PUBLIC	??0_Container_proxy@std@@QEAA@PEAU_Container_base12@1@@Z ; std::_Container_proxy::_Container_proxy
PUBLIC	??0_Container_base12@std@@QEAA@XZ		; std::_Container_base12::_Container_base12
PUBLIC	?_Orphan_all@_Container_base12@std@@QEAAXXZ	; std::_Container_base12::_Orphan_all
PUBLIC	?_Swap_proxy_and_iterators@_Container_base12@std@@QEAAXAEAU12@@Z ; std::_Container_base12::_Swap_proxy_and_iterators
PUBLIC	??$_Construct_in_place@U_Container_proxy@std@@PEAU_Container_base12@2@@std@@YAXAEAU_Container_proxy@0@$$QEAPEAU_Container_base12@0@@Z ; std::_Construct_in_place<std::_Container_proxy,std::_Container_base12 *>
PUBLIC	??0_Iterator_base12@std@@QEAA@XZ		; std::_Iterator_base12::_Iterator_base12
PUBLIC	??0_Iterator_base12@std@@QEAA@AEBU01@@Z		; std::_Iterator_base12::_Iterator_base12
PUBLIC	??4_Iterator_base12@std@@QEAAAEAU01@AEBU01@@Z	; std::_Iterator_base12::operator=
PUBLIC	??1_Iterator_base12@std@@QEAA@XZ		; std::_Iterator_base12::~_Iterator_base12
PUBLIC	?_Adopt@_Iterator_base12@std@@QEAAXPEBU_Container_base12@2@@Z ; std::_Iterator_base12::_Adopt
PUBLIC	?_Orphan_me@_Iterator_base12@std@@QEAAXXZ	; std::_Iterator_base12::_Orphan_me
PUBLIC	?_Release@_Basic_container_proxy_ptr12@std@@QEAAXXZ ; std::_Basic_container_proxy_ptr12::_Release
PUBLIC	??$addressof@U_Container_base12@std@@@std@@YAPEAU_Container_base12@0@AEAU10@@Z ; std::addressof<std::_Container_base12>
PUBLIC	??0?$allocator@D@std@@QEAA@XZ			; std::allocator<char>::allocator<char>
PUBLIC	?deallocate@?$allocator@D@std@@QEAAXQEAD_K@Z	; std::allocator<char>::deallocate
PUBLIC	?allocate@?$allocator@D@std@@QEAAPEAD_K@Z	; std::allocator<char>::allocate
PUBLIC	?length@?$_Narrow_char_traits@DH@std@@SA_KQEBD@Z ; std::_Narrow_char_traits<char,int>::length
PUBLIC	?copy@?$_Narrow_char_traits@DH@std@@SAPEADQEADQEBD_K@Z ; std::_Narrow_char_traits<char,int>::copy
PUBLIC	?move@?$_Narrow_char_traits@DH@std@@SAPEADQEADQEBD_K@Z ; std::_Narrow_char_traits<char,int>::move
PUBLIC	?assign@?$_Narrow_char_traits@DH@std@@SAXAEADAEBD@Z ; std::_Narrow_char_traits<char,int>::assign
PUBLIC	?eq_int_type@?$_Narrow_char_traits@DH@std@@SA_NAEBH0@Z ; std::_Narrow_char_traits<char,int>::eq_int_type
PUBLIC	?eof@?$_Narrow_char_traits@DH@std@@SAHXZ	; std::_Narrow_char_traits<char,int>::eof
PUBLIC	??$_Min_value@_K@std@@YAAEB_KAEB_K0@Z		; std::_Min_value<unsigned __int64>
PUBLIC	?max_size@?$_Default_allocator_traits@V?$allocator@D@std@@@std@@SA_KAEBV?$allocator@D@2@@Z ; std::_Default_allocator_traits<std::allocator<char> >::max_size
PUBLIC	?select_on_container_copy_construction@?$_Default_allocator_traits@V?$allocator@D@std@@@std@@SA?AV?$allocator@D@2@AEBV32@@Z ; std::_Default_allocator_traits<std::allocator<char> >::select_on_container_copy_construction
PUBLIC	??0?$_String_val@U?$_Simple_types@D@std@@@std@@QEAA@XZ ; std::_String_val<std::_Simple_types<char> >::_String_val<std::_Simple_types<char> >
PUBLIC	?_Myptr@?$_String_val@U?$_Simple_types@D@std@@@std@@QEAAPEADXZ ; std::_String_val<std::_Simple_types<char> >::_Myptr
PUBLIC	?_Myptr@?$_String_val@U?$_Simple_types@D@std@@@std@@QEBAPEBDXZ ; std::_String_val<std::_Simple_types<char> >::_Myptr
PUBLIC	?_Large_string_engaged@?$_String_val@U?$_Simple_types@D@std@@@std@@QEBA_NXZ ; std::_String_val<std::_Simple_types<char> >::_Large_string_engaged
PUBLIC	??0_Bxty@?$_String_val@U?$_Simple_types@D@std@@@std@@QEAA@XZ ; std::_String_val<std::_Simple_types<char> >::_Bxty::_Bxty
PUBLIC	??1_Bxty@?$_String_val@U?$_Simple_types@D@std@@@std@@QEAA@XZ ; std::_String_val<std::_Simple_types<char> >::_Bxty::~_Bxty
PUBLIC	??1?$_String_val@U?$_Simple_types@D@std@@@std@@QEAA@XZ ; std::_String_val<std::_Simple_types<char> >::~_String_val<std::_Simple_types<char> >
PUBLIC	??0?$basic_string@DU?$char_traits@D@std@@V?$allocator@D@2@@std@@QEAA@AEBV01@@Z ; std::basic_string<char,std::char_traits<char>,std::allocator<char> >::basic_string<char,std::char_traits<char>,std::allocator<char> >
PUBLIC	??0?$basic_string@DU?$char_traits@D@std@@V?$allocator@D@2@@std@@QEAA@QEBD@Z ; std::basic_string<char,std::char_traits<char>,std::allocator<char> >::basic_string<char,std::char_traits<char>,std::allocator<char> >
PUBLIC	?_Construct_lv_contents@?$basic_string@DU?$char_traits@D@std@@V?$allocator@D@2@@std@@AEAAXAEBV12@@Z ; std::basic_string<char,std::char_traits<char>,std::allocator<char> >::_Construct_lv_contents
PUBLIC	??1?$basic_string@DU?$char_traits@D@std@@V?$allocator@D@2@@std@@QEAA@XZ ; std::basic_string<char,std::char_traits<char>,std::allocator<char> >::~basic_string<char,std::char_traits<char>,std::allocator<char> >
PUBLIC	?assign@?$basic_string@DU?$char_traits@D@std@@V?$allocator@D@2@@std@@QEAAAEAV12@QEBD_K@Z ; std::basic_string<char,std::char_traits<char>,std::allocator<char> >::assign
PUBLIC	?assign@?$basic_string@DU?$char_traits@D@std@@V?$allocator@D@2@@std@@QEAAAEAV12@QEBD@Z ; std::basic_string<char,std::char_traits<char>,std::allocator<char> >::assign
PUBLIC	?data@?$basic_string@DU?$char_traits@D@std@@V?$allocator@D@2@@std@@QEBAPEBDXZ ; std::basic_string<char,std::char_traits<char>,std::allocator<char> >::data
PUBLIC	?size@?$basic_string@DU?$char_traits@D@std@@V?$allocator@D@2@@std@@QEBA_KXZ ; std::basic_string<char,std::char_traits<char>,std::allocator<char> >::size
PUBLIC	?max_size@?$basic_string@DU?$char_traits@D@std@@V?$allocator@D@2@@std@@QEBA_KXZ ; std::basic_string<char,std::char_traits<char>,std::allocator<char> >::max_size
PUBLIC	?_Calculate_growth@?$basic_string@DU?$char_traits@D@std@@V?$allocator@D@2@@std@@CA_K_K00@Z ; std::basic_string<char,std::char_traits<char>,std::allocator<char> >::_Calculate_growth
PUBLIC	?_Calculate_growth@?$basic_string@DU?$char_traits@D@std@@V?$allocator@D@2@@std@@AEBA_K_K@Z ; std::basic_string<char,std::char_traits<char>,std::allocator<char> >::_Calculate_growth
PUBLIC	?_Tidy_init@?$basic_string@DU?$char_traits@D@std@@V?$allocator@D@2@@std@@AEAAXXZ ; std::basic_string<char,std::char_traits<char>,std::allocator<char> >::_Tidy_init
PUBLIC	?_Tidy_deallocate@?$basic_string@DU?$char_traits@D@std@@V?$allocator@D@2@@std@@AEAAXXZ ; std::basic_string<char,std::char_traits<char>,std::allocator<char> >::_Tidy_deallocate
PUBLIC	?_Xlen@?$basic_string@DU?$char_traits@D@std@@V?$allocator@D@2@@std@@CAXXZ ; std::basic_string<char,std::char_traits<char>,std::allocator<char> >::_Xlen
PUBLIC	?_Getal@?$basic_string@DU?$char_traits@D@std@@V?$allocator@D@2@@std@@AEAAAEAV?$allocator@D@2@XZ ; std::basic_string<char,std::char_traits<char>,std::allocator<char> >::_Getal
PUBLIC	?_Getal@?$basic_string@DU?$char_traits@D@std@@V?$allocator@D@2@@std@@AEBAAEBV?$allocator@D@2@XZ ; std::basic_string<char,std::char_traits<char>,std::allocator<char> >::_Getal
PUBLIC	?_Get_first@?$_Compressed_pair@V?$allocator@D@std@@V?$_String_val@U?$_Simple_types@D@std@@@2@$00@std@@QEAAAEAV?$allocator@D@2@XZ ; std::_Compressed_pair<std::allocator<char>,std::_String_val<std::_Simple_types<char> >,1>::_Get_first
PUBLIC	?_Get_first@?$_Compressed_pair@V?$allocator@D@std@@V?$_String_val@U?$_Simple_types@D@std@@@2@$00@std@@QEBAAEBV?$allocator@D@2@XZ ; std::_Compressed_pair<std::allocator<char>,std::_String_val<std::_Simple_types<char> >,1>::_Get_first
PUBLIC	??1?$_Compressed_pair@V?$allocator@D@std@@V?$_String_val@U?$_Simple_types@D@std@@@2@$00@std@@QEAA@XZ ; std::_Compressed_pair<std::allocator<char>,std::_String_val<std::_Simple_types<char> >,1>::~_Compressed_pair<std::allocator<char>,std::_String_val<std::_Simple_types<char> >,1>
PUBLIC	??_G?$basic_string@DU?$char_traits@D@std@@V?$allocator@D@2@@std@@QEAAPEAXI@Z ; std::basic_string<char,std::char_traits<char>,std::allocator<char> >::`scalar deleting destructor'
PUBLIC	??8type_info@@QEBA_NAEBV0@@Z			; type_info::operator==
PUBLIC	??0_Ref_count_base@std@@IEAA@XZ			; std::_Ref_count_base::_Ref_count_base
PUBLIC	??1_Ref_count_base@std@@UEAA@XZ			; std::_Ref_count_base::~_Ref_count_base
PUBLIC	?_Incref@_Ref_count_base@std@@QEAAXXZ		; std::_Ref_count_base::_Incref
PUBLIC	?_Decref@_Ref_count_base@std@@QEAAXXZ		; std::_Ref_count_base::_Decref
PUBLIC	?_Decwref@_Ref_count_base@std@@QEAAXXZ		; std::_Ref_count_base::_Decwref
PUBLIC	?_Use_count@_Ref_count_base@std@@QEBAJXZ	; std::_Ref_count_base::_Use_count
PUBLIC	?_Get_deleter@_Ref_count_base@std@@UEBAPEAXAEBVtype_info@@@Z ; std::_Ref_count_base::_Get_deleter
PUBLIC	?_Throw_tree_length_error@std@@YAXXZ		; std::_Throw_tree_length_error
PUBLIC	??0type_index@std@@QEAA@AEBVtype_info@@@Z	; std::type_index::type_index
PUBLIC	?__autoclassinit2@type_index@std@@QEAAX_K@Z	; std::type_index::__autoclassinit2
PUBLIC	?f@@YAXW4Flags@@@Z				; f
PUBLIC	??$?6U?$char_traits@D@std@@@std@@YAAEAV?$basic_ostream@DU?$char_traits@D@std@@@0@AEAV10@PEBD@Z ; std::operator<<<std::char_traits<char> >
PUBLIC	??$?6U?$char_traits@D@std@@@std@@YAAEAV?$basic_ostream@DU?$char_traits@D@std@@@0@AEAV10@D@Z ; std::operator<<<std::char_traits<char> >
PUBLIC	??$endl@DU?$char_traits@D@std@@@std@@YAAEAV?$basic_ostream@DU?$char_traits@D@std@@@0@AEAV10@@Z ; std::endl<char,std::char_traits<char> >
PUBLIC	?use_count@?$_Ptr_base@H@std@@QEBAJXZ		; std::_Ptr_base<int>::use_count
PUBLIC	?get@?$_Ptr_base@H@std@@IEBAPEAHXZ		; std::_Ptr_base<int>::get
PUBLIC	??0?$_Ptr_base@H@std@@IEAA@XZ			; std::_Ptr_base<int>::_Ptr_base<int>
PUBLIC	?_Decref@?$_Ptr_base@H@std@@IEAAXXZ		; std::_Ptr_base<int>::_Decref
PUBLIC	??0?$shared_ptr@H@std@@QEAA@XZ			; std::shared_ptr<int>::shared_ptr<int>
PUBLIC	??0?$shared_ptr@H@std@@QEAA@$$T@Z		; std::shared_ptr<int>::shared_ptr<int>
PUBLIC	??0?$shared_ptr@H@std@@QEAA@AEBV01@@Z		; std::shared_ptr<int>::shared_ptr<int>
PUBLIC	??0?$shared_ptr@H@std@@QEAA@$$QEAV01@@Z		; std::shared_ptr<int>::shared_ptr<int>
PUBLIC	??1?$shared_ptr@H@std@@QEAA@XZ			; std::shared_ptr<int>::~shared_ptr<int>
PUBLIC	?__autoclassinit2@?$shared_ptr@H@std@@QEAAX_K@Z	; std::shared_ptr<int>::__autoclassinit2
PUBLIC	??$make_shared@HH@std@@YA?AV?$shared_ptr@H@0@$$QEAH@Z ; std::make_shared<int,int>
PUBLIC	??$?DH$0A@@?$shared_ptr@H@std@@QEBAAEAHXZ	; std::shared_ptr<int>::operator*<int,0>
PUBLIC	??$?0H$0A@@?$shared_ptr@H@std@@QEAA@PEAH@Z	; std::shared_ptr<int>::shared_ptr<int><int,0>
PUBLIC	??R?$default_delete@H@std@@QEBAXPEAH@Z		; std::default_delete<int>::operator()
PUBLIC	??$?0HU?$default_delete@H@std@@$0A@@?$shared_ptr@H@std@@QEAA@PEAHU?$default_delete@H@1@@Z ; std::shared_ptr<int>::shared_ptr<int><int,std::default_delete<int>,0>
PUBLIC	??0?$allocator@H@std@@QEAA@XZ			; std::allocator<int>::allocator<int>
PUBLIC	??$move@AEAV?$shared_ptr@H@std@@@std@@YA$$QEAV?$shared_ptr@H@0@AEAV10@@Z ; std::move<std::shared_ptr<int> &>
PUBLIC	??1?$unique_ptr@HU?$default_delete@H@std@@@std@@QEAA@XZ ; std::unique_ptr<int,std::default_delete<int> >::~unique_ptr<int,std::default_delete<int> >
PUBLIC	?get_deleter@?$unique_ptr@HU?$default_delete@H@std@@@std@@QEAAAEAU?$default_delete@H@2@XZ ; std::unique_ptr<int,std::default_delete<int> >::get_deleter
PUBLIC	?get@?$unique_ptr@HU?$default_delete@H@std@@@std@@QEBAPEAHXZ ; std::unique_ptr<int,std::default_delete<int> >::get
PUBLIC	?release@?$unique_ptr@HU?$default_delete@H@std@@@std@@QEAAPEAHXZ ; std::unique_ptr<int,std::default_delete<int> >::release
PUBLIC	?_Get_first@?$_Compressed_pair@U?$default_delete@H@std@@PEAH$00@std@@QEAAAEAU?$default_delete@H@2@XZ ; std::_Compressed_pair<std::default_delete<int>,int *,1>::_Get_first
PUBLIC	?_Get_first@?$_Compressed_pair@U?$default_delete@H@std@@PEAH$00@std@@QEBAAEBU?$default_delete@H@2@XZ ; std::_Compressed_pair<std::default_delete<int>,int *,1>::_Get_first
PUBLIC	??$?0U?$default_delete@H@std@@$0A@@?$unique_ptr@HU?$default_delete@H@std@@@std@@QEAA@PEAH@Z ; std::unique_ptr<int,std::default_delete<int> >::unique_ptr<int,std::default_delete<int> ><std::default_delete<int>,0>
PUBLIC	??$?0HU?$default_delete@H@std@@$0A@@?$shared_ptr@H@std@@QEAA@$$QEAV?$unique_ptr@HU?$default_delete@H@std@@@1@@Z ; std::shared_ptr<int>::shared_ptr<int><int,std::default_delete<int>,0>
PUBLIC	??$allocate_shared@HV?$allocator@H@std@@H@std@@YA?AV?$shared_ptr@H@0@AEBV?$allocator@H@0@$$QEAH@Z ; std::allocate_shared<int,std::allocator<int>,int>
PUBLIC	??$allocate_shared@U?$pair@HH@std@@V?$allocator@H@2@HH@std@@YA?AV?$shared_ptr@U?$pair@HH@std@@@0@AEBV?$allocator@H@0@$$QEAH1@Z ; std::allocate_shared<std::pair<int,int>,std::allocator<int>,int,int>
PUBLIC	?get@?$_Ptr_base@U?$pair@HH@std@@@std@@IEBAPEAU?$pair@HH@2@XZ ; std::_Ptr_base<std::pair<int,int> >::get
PUBLIC	??0?$_Ptr_base@U?$pair@HH@std@@@std@@IEAA@XZ	; std::_Ptr_base<std::pair<int,int> >::_Ptr_base<std::pair<int,int> >
PUBLIC	?_Decref@?$_Ptr_base@U?$pair@HH@std@@@std@@IEAAXXZ ; std::_Ptr_base<std::pair<int,int> >::_Decref
PUBLIC	??0?$shared_ptr@U?$pair@HH@std@@@std@@QEAA@XZ	; std::shared_ptr<std::pair<int,int> >::shared_ptr<std::pair<int,int> >
PUBLIC	??0?$shared_ptr@U?$pair@HH@std@@@std@@QEAA@$$QEAV01@@Z ; std::shared_ptr<std::pair<int,int> >::shared_ptr<std::pair<int,int> >
PUBLIC	??1?$shared_ptr@U?$pair@HH@std@@@std@@QEAA@XZ	; std::shared_ptr<std::pair<int,int> >::~shared_ptr<std::pair<int,int> >
PUBLIC	?__autoclassinit2@?$shared_ptr@U?$pair@HH@std@@@std@@QEAAX_K@Z ; std::shared_ptr<std::pair<int,int> >::__autoclassinit2
PUBLIC	??$?CU?$pair@HH@std@@$0A@@?$shared_ptr@U?$pair@HH@std@@@std@@QEBAPEAU?$pair@HH@1@XZ ; std::shared_ptr<std::pair<int,int> >::operator-><std::pair<int,int>,0>
PUBLIC	??0?$allocator@V?$basic_string@DU?$char_traits@D@std@@V?$allocator@D@2@@std@@@std@@QEAA@XZ ; std::allocator<std::basic_string<char,std::char_traits<char>,std::allocator<char> > >::allocator<std::basic_string<char,std::char_traits<char>,std::allocator<char> > >
PUBLIC	?deallocate@?$allocator@V?$basic_string@DU?$char_traits@D@std@@V?$allocator@D@2@@std@@@std@@QEAAXQEAV?$basic_string@DU?$char_traits@D@std@@V?$allocator@D@2@@2@_K@Z ; std::allocator<std::basic_string<char,std::char_traits<char>,std::allocator<char> > >::deallocate
PUBLIC	?allocate@?$allocator@V?$basic_string@DU?$char_traits@D@std@@V?$allocator@D@2@@std@@@std@@QEAAPEAV?$basic_string@DU?$char_traits@D@std@@V?$allocator@D@2@@2@_K@Z ; std::allocator<std::basic_string<char,std::char_traits<char>,std::allocator<char> > >::allocate
PUBLIC	?max_size@?$_Default_allocator_traits@V?$allocator@V?$basic_string@DU?$char_traits@D@std@@V?$allocator@D@2@@std@@@std@@@std@@SA_KAEBV?$allocator@V?$basic_string@DU?$char_traits@D@std@@V?$allocator@D@2@@std@@@2@@Z ; std::_Default_allocator_traits<std::allocator<std::basic_string<char,std::char_traits<char>,std::allocator<char> > > >::max_size
PUBLIC	??0?$vector@V?$basic_string@DU?$char_traits@D@std@@V?$allocator@D@2@@std@@V?$allocator@V?$basic_string@DU?$char_traits@D@std@@V?$allocator@D@2@@std@@@2@@std@@QEAA@V?$initializer_list@V?$basic_string@DU?$char_traits@D@std@@V?$allocator@D@2@@std@@@1@AEBV?$allocator@V?$basic_string@DU?$char_traits@D@std@@V?$allocator@D@2@@std@@@1@@Z ; std::vector<std::basic_string<char,std::char_traits<char>,std::allocator<char> >,std::allocator<std::basic_string<char,std::char_traits<char>,std::allocator<char> > > >::vector<std::basic_string<char,std::char_traits<char>,std::allocator<char> >,std::allocator<std::basic_string<char,std::char_traits<char>,std::allocator<char> > > >
PUBLIC	?_Move_construct@?$vector@V?$basic_string@DU?$char_traits@D@std@@V?$allocator@D@2@@std@@V?$allocator@V?$basic_string@DU?$char_traits@D@std@@V?$allocator@D@2@@std@@@2@@std@@AEAAXAEAV12@U?$integral_constant@_N$00@2@@Z ; std::vector<std::basic_string<char,std::char_traits<char>,std::allocator<char> >,std::allocator<std::basic_string<char,std::char_traits<char>,std::allocator<char> > > >::_Move_construct
PUBLIC	??0?$vector@V?$basic_string@DU?$char_traits@D@std@@V?$allocator@D@2@@std@@V?$allocator@V?$basic_string@DU?$char_traits@D@std@@V?$allocator@D@2@@std@@@2@@std@@QEAA@$$QEAV01@@Z ; std::vector<std::basic_string<char,std::char_traits<char>,std::allocator<char> >,std::allocator<std::basic_string<char,std::char_traits<char>,std::allocator<char> > > >::vector<std::basic_string<char,std::char_traits<char>,std::allocator<char> >,std::allocator<std::basic_string<char,std::char_traits<char>,std::allocator<char> > > >
PUBLIC	??1?$vector@V?$basic_string@DU?$char_traits@D@std@@V?$allocator@D@2@@std@@V?$allocator@V?$basic_string@DU?$char_traits@D@std@@V?$allocator@D@2@@std@@@2@@std@@QEAA@XZ ; std::vector<std::basic_string<char,std::char_traits<char>,std::allocator<char> >,std::allocator<std::basic_string<char,std::char_traits<char>,std::allocator<char> > > >::~vector<std::basic_string<char,std::char_traits<char>,std::allocator<char> >,std::allocator<std::basic_string<char,std::char_traits<char>,std::allocator<char> > > >
PUBLIC	?empty@?$vector@V?$basic_string@DU?$char_traits@D@std@@V?$allocator@D@2@@std@@V?$allocator@V?$basic_string@DU?$char_traits@D@std@@V?$allocator@D@2@@std@@@2@@std@@QEBA_NXZ ; std::vector<std::basic_string<char,std::char_traits<char>,std::allocator<char> >,std::allocator<std::basic_string<char,std::char_traits<char>,std::allocator<char> > > >::empty
PUBLIC	?size@?$vector@V?$basic_string@DU?$char_traits@D@std@@V?$allocator@D@2@@std@@V?$allocator@V?$basic_string@DU?$char_traits@D@std@@V?$allocator@D@2@@std@@@2@@std@@QEBA_KXZ ; std::vector<std::basic_string<char,std::char_traits<char>,std::allocator<char> >,std::allocator<std::basic_string<char,std::char_traits<char>,std::allocator<char> > > >::size
PUBLIC	?max_size@?$vector@V?$basic_string@DU?$char_traits@D@std@@V?$allocator@D@2@@std@@V?$allocator@V?$basic_string@DU?$char_traits@D@std@@V?$allocator@D@2@@std@@@2@@std@@QEBA_KXZ ; std::vector<std::basic_string<char,std::char_traits<char>,std::allocator<char> >,std::allocator<std::basic_string<char,std::char_traits<char>,std::allocator<char> > > >::max_size
PUBLIC	??A?$vector@V?$basic_string@DU?$char_traits@D@std@@V?$allocator@D@2@@std@@V?$allocator@V?$basic_string@DU?$char_traits@D@std@@V?$allocator@D@2@@std@@@2@@std@@QEAAAEAV?$basic_string@DU?$char_traits@D@std@@V?$allocator@D@2@@1@_K@Z ; std::vector<std::basic_string<char,std::char_traits<char>,std::allocator<char> >,std::allocator<std::basic_string<char,std::char_traits<char>,std::allocator<char> > > >::operator[]
PUBLIC	?_Destroy@?$vector@V?$basic_string@DU?$char_traits@D@std@@V?$allocator@D@2@@std@@V?$allocator@V?$basic_string@DU?$char_traits@D@std@@V?$allocator@D@2@@std@@@2@@std@@AEAAXPEAV?$basic_string@DU?$char_traits@D@std@@V?$allocator@D@2@@2@0@Z ; std::vector<std::basic_string<char,std::char_traits<char>,std::allocator<char> >,std::allocator<std::basic_string<char,std::char_traits<char>,std::allocator<char> > > >::_Destroy
PUBLIC	?_Buy_raw@?$vector@V?$basic_string@DU?$char_traits@D@std@@V?$allocator@D@2@@std@@V?$allocator@V?$basic_string@DU?$char_traits@D@std@@V?$allocator@D@2@@std@@@2@@std@@AEAAX_K@Z ; std::vector<std::basic_string<char,std::char_traits<char>,std::allocator<char> >,std::allocator<std::basic_string<char,std::char_traits<char>,std::allocator<char> > > >::_Buy_raw
PUBLIC	?_Buy_nonzero@?$vector@V?$basic_string@DU?$char_traits@D@std@@V?$allocator@D@2@@std@@V?$allocator@V?$basic_string@DU?$char_traits@D@std@@V?$allocator@D@2@@std@@@2@@std@@AEAAX_K@Z ; std::vector<std::basic_string<char,std::char_traits<char>,std::allocator<char> >,std::allocator<std::basic_string<char,std::char_traits<char>,std::allocator<char> > > >::_Buy_nonzero
PUBLIC	?_Tidy@?$vector@V?$basic_string@DU?$char_traits@D@std@@V?$allocator@D@2@@std@@V?$allocator@V?$basic_string@DU?$char_traits@D@std@@V?$allocator@D@2@@std@@@2@@std@@AEAAXXZ ; std::vector<std::basic_string<char,std::char_traits<char>,std::allocator<char> >,std::allocator<std::basic_string<char,std::char_traits<char>,std::allocator<char> > > >::_Tidy
PUBLIC	?_Xlength@?$vector@V?$basic_string@DU?$char_traits@D@std@@V?$allocator@D@2@@std@@V?$allocator@V?$basic_string@DU?$char_traits@D@std@@V?$allocator@D@2@@std@@@2@@std@@CAXXZ ; std::vector<std::basic_string<char,std::char_traits<char>,std::allocator<char> >,std::allocator<std::basic_string<char,std::char_traits<char>,std::allocator<char> > > >::_Xlength
PUBLIC	?_Getal@?$vector@V?$basic_string@DU?$char_traits@D@std@@V?$allocator@D@2@@std@@V?$allocator@V?$basic_string@DU?$char_traits@D@std@@V?$allocator@D@2@@std@@@2@@std@@AEAAAEAV?$allocator@V?$basic_string@DU?$char_traits@D@std@@V?$allocator@D@2@@std@@@2@XZ ; std::vector<std::basic_string<char,std::char_traits<char>,std::allocator<char> >,std::allocator<std::basic_string<char,std::char_traits<char>,std::allocator<char> > > >::_Getal
PUBLIC	?_Getal@?$vector@V?$basic_string@DU?$char_traits@D@std@@V?$allocator@D@2@@std@@V?$allocator@V?$basic_string@DU?$char_traits@D@std@@V?$allocator@D@2@@std@@@2@@std@@AEBAAEBV?$allocator@V?$basic_string@DU?$char_traits@D@std@@V?$allocator@D@2@@std@@@2@XZ ; std::vector<std::basic_string<char,std::char_traits<char>,std::allocator<char> >,std::allocator<std::basic_string<char,std::char_traits<char>,std::allocator<char> > > >::_Getal
PUBLIC	??0?$_Vector_val@U?$_Simple_types@V?$basic_string@DU?$char_traits@D@std@@V?$allocator@D@2@@std@@@std@@@std@@QEAA@XZ ; std::_Vector_val<std::_Simple_types<std::basic_string<char,std::char_traits<char>,std::allocator<char> > > >::_Vector_val<std::_Simple_types<std::basic_string<char,std::char_traits<char>,std::allocator<char> > > >
PUBLIC	?_Take_contents@?$_Vector_val@U?$_Simple_types@V?$basic_string@DU?$char_traits@D@std@@V?$allocator@D@2@@std@@@std@@@std@@QEAAXAEAV12@@Z ; std::_Vector_val<std::_Simple_types<std::basic_string<char,std::char_traits<char>,std::allocator<char> > > >::_Take_contents
PUBLIC	?_Get_first@?$_Compressed_pair@V?$allocator@V?$basic_string@DU?$char_traits@D@std@@V?$allocator@D@2@@std@@@std@@V?$_Vector_val@U?$_Simple_types@V?$basic_string@DU?$char_traits@D@std@@V?$allocator@D@2@@std@@@std@@@2@$00@std@@QEAAAEAV?$allocator@V?$basic_string@DU?$char_traits@D@std@@V?$allocator@D@2@@std@@@2@XZ ; std::_Compressed_pair<std::allocator<std::basic_string<char,std::char_traits<char>,std::allocator<char> > >,std::_Vector_val<std::_Simple_types<std::basic_string<char,std::char_traits<char>,std::allocator<char> > > >,1>::_Get_first
PUBLIC	?_Get_first@?$_Compressed_pair@V?$allocator@V?$basic_string@DU?$char_traits@D@std@@V?$allocator@D@2@@std@@@std@@V?$_Vector_val@U?$_Simple_types@V?$basic_string@DU?$char_traits@D@std@@V?$allocator@D@2@@std@@@std@@@2@$00@std@@QEBAAEBV?$allocator@V?$basic_string@DU?$char_traits@D@std@@V?$allocator@D@2@@std@@@2@XZ ; std::_Compressed_pair<std::allocator<std::basic_string<char,std::char_traits<char>,std::allocator<char> > >,std::_Vector_val<std::_Simple_types<std::basic_string<char,std::char_traits<char>,std::allocator<char> > > >,1>::_Get_first
PUBLIC	?__autoclassinit2@?$vector@V?$basic_string@DU?$char_traits@D@std@@V?$allocator@D@2@@std@@V?$allocator@V?$basic_string@DU?$char_traits@D@std@@V?$allocator@D@2@@std@@@2@@std@@QEAAX_K@Z ; std::vector<std::basic_string<char,std::char_traits<char>,std::allocator<char> >,std::allocator<std::basic_string<char,std::char_traits<char>,std::allocator<char> > > >::__autoclassinit2
PUBLIC	??0?$initializer_list@V?$basic_string@DU?$char_traits@D@std@@V?$allocator@D@2@@std@@@std@@QEAA@PEBV?$basic_string@DU?$char_traits@D@std@@V?$allocator@D@2@@1@0@Z ; std::initializer_list<std::basic_string<char,std::char_traits<char>,std::allocator<char> > >::initializer_list<std::basic_string<char,std::char_traits<char>,std::allocator<char> > >
PUBLIC	?begin@?$initializer_list@V?$basic_string@DU?$char_traits@D@std@@V?$allocator@D@2@@std@@@std@@QEBAPEBV?$basic_string@DU?$char_traits@D@std@@V?$allocator@D@2@@2@XZ ; std::initializer_list<std::basic_string<char,std::char_traits<char>,std::allocator<char> > >::begin
PUBLIC	?end@?$initializer_list@V?$basic_string@DU?$char_traits@D@std@@V?$allocator@D@2@@std@@@std@@QEBAPEBV?$basic_string@DU?$char_traits@D@std@@V?$allocator@D@2@@2@XZ ; std::initializer_list<std::basic_string<char,std::char_traits<char>,std::allocator<char> > >::end
PUBLIC	??$?6DU?$char_traits@D@std@@V?$allocator@D@1@@std@@YAAEAV?$basic_ostream@DU?$char_traits@D@std@@@0@AEAV10@AEBV?$basic_string@DU?$char_traits@D@std@@V?$allocator@D@2@@0@@Z ; std::operator<<<char,std::char_traits<char>,std::allocator<char> >
PUBLIC	??$move@AEAV?$vector@V?$basic_string@DU?$char_traits@D@std@@V?$allocator@D@2@@std@@V?$allocator@V?$basic_string@DU?$char_traits@D@std@@V?$allocator@D@2@@std@@@2@@std@@@std@@YA$$QEAV?$vector@V?$basic_string@DU?$char_traits@D@std@@V?$allocator@D@2@@std@@V?$allocator@V?$basic_string@DU?$char_traits@D@std@@V?$allocator@D@2@@std@@@2@@0@AEAV10@@Z ; std::move<std::vector<std::basic_string<char,std::char_traits<char>,std::allocator<char> >,std::allocator<std::basic_string<char,std::char_traits<char>,std::allocator<char> > > > &>
PUBLIC	??$forward@H@std@@YA$$QEAHAEAH@Z		; std::forward<int>
PUBLIC	??$move@AEBV?$basic_string@DU?$char_traits@D@std@@V?$allocator@D@2@@std@@@std@@YA$$QEBV?$basic_string@DU?$char_traits@D@std@@V?$allocator@D@2@@0@AEBV10@@Z ; std::move<std::basic_string<char,std::char_traits<char>,std::allocator<char> > const &>
PUBLIC	??R?$less@H@std@@QEBA_NAEBH0@Z			; std::less<int>::operator()
PUBLIC	??$forward@N@std@@YA$$QEANAEAN@Z		; std::forward<double>
PUBLIC	??$forward@AEAY01$$CBD@std@@YAAEAY01$$CBDAEAY01$$CBD@Z ; std::forward<char const (&)[2]>
PUBLIC	??0?$_Func_class@HH@std@@QEAA@XZ		; std::_Func_class<int,int>::_Func_class<int,int>
PUBLIC	??R?$_Func_class@HH@std@@QEBAHH@Z		; std::_Func_class<int,int>::operator()
PUBLIC	??1?$_Func_class@HH@std@@QEAA@XZ		; std::_Func_class<int,int>::~_Func_class<int,int>
PUBLIC	?_Empty@?$_Func_class@HH@std@@IEBA_NXZ		; std::_Func_class<int,int>::_Empty
PUBLIC	?_Tidy@?$_Func_class@HH@std@@IEAAXXZ		; std::_Func_class<int,int>::_Tidy
PUBLIC	?_Local@?$_Func_class@HH@std@@AEBA_NXZ		; std::_Func_class<int,int>::_Local
PUBLIC	?_Getimpl@?$_Func_class@HH@std@@AEBAPEAV?$_Func_base@HH@2@XZ ; std::_Func_class<int,int>::_Getimpl
PUBLIC	?_Set@?$_Func_class@HH@std@@AEAAXPEAV?$_Func_base@HH@2@@Z ; std::_Func_class<int,int>::_Set
PUBLIC	??1?$function@$$A6AHH@Z@std@@QEAA@XZ		; std::function<int __cdecl(int)>::~function<int __cdecl(int)>
PUBLIC	??0?$_Func_base@HH@std@@QEAA@XZ			; std::_Func_base<int,int>::_Func_base<int,int>
PUBLIC	?allocate@?$allocator@U_Container_proxy@std@@@std@@QEAAPEAU_Container_proxy@2@_K@Z ; std::allocator<std::_Container_proxy>::allocate
PUBLIC	??$exchange@PEAU_Container_proxy@std@@$$T@std@@YAPEAU_Container_proxy@0@AEAPEAU10@$$QEA$$T@Z ; std::exchange<std::_Container_proxy *,std::nullptr_t>
PUBLIC	??$_Delete_plain_internal@V?$allocator@U_Container_proxy@std@@@std@@@std@@YAXAEAV?$allocator@U_Container_proxy@std@@@0@QEAU_Container_proxy@0@@Z ; std::_Delete_plain_internal<std::allocator<std::_Container_proxy> >
PUBLIC	??0?$_Container_proxy_ptr12@V?$allocator@U_Container_proxy@std@@@std@@@std@@QEAA@AEAV?$allocator@U_Container_proxy@std@@@1@AEAU_Container_base12@1@@Z ; std::_Container_proxy_ptr12<std::allocator<std::_Container_proxy> >::_Container_proxy_ptr12<std::allocator<std::_Container_proxy> >
PUBLIC	??1?$_Container_proxy_ptr12@V?$allocator@U_Container_proxy@std@@@std@@@std@@QEAA@XZ ; std::_Container_proxy_ptr12<std::allocator<std::_Container_proxy> >::~_Container_proxy_ptr12<std::allocator<std::_Container_proxy> >
PUBLIC	??$_Alloc_proxy@V?$allocator@U_Container_proxy@std@@@std@@@_Container_base12@std@@QEAAX$$QEAV?$allocator@U_Container_proxy@std@@@1@@Z ; std::_Container_base12::_Alloc_proxy<std::allocator<std::_Container_proxy> >
PUBLIC	??$?0V?$basic_string@DU?$char_traits@D@std@@V?$allocator@D@2@@std@@@?$allocator@U_Container_proxy@std@@@std@@QEAA@AEBV?$allocator@V?$basic_string@DU?$char_traits@D@std@@V?$allocator@D@2@@std@@@1@@Z ; std::allocator<std::_Container_proxy>::allocator<std::_Container_proxy><std::basic_string<char,std::char_traits<char>,std::allocator<char> > >
PUBLIC	??$move@AEAV?$allocator@V?$basic_string@DU?$char_traits@D@std@@V?$allocator@D@2@@std@@@std@@@std@@YA$$QEAV?$allocator@V?$basic_string@DU?$char_traits@D@std@@V?$allocator@D@2@@std@@@0@AEAV10@@Z ; std::move<std::allocator<std::basic_string<char,std::char_traits<char>,std::allocator<char> > > &>
PUBLIC	??$?0V?$allocator@V?$basic_string@DU?$char_traits@D@std@@V?$allocator@D@2@@std@@@std@@$$V@?$_Compressed_pair@V?$allocator@V?$basic_string@DU?$char_traits@D@std@@V?$allocator@D@2@@std@@@std@@V?$_Vector_val@U?$_Simple_types@V?$basic_string@DU?$char_traits@D@std@@V?$allocator@D@2@@std@@@std@@@2@$00@std@@QEAA@U_One_then_variadic_args_t@1@$$QEAV?$allocator@V?$basic_string@DU?$char_traits@D@std@@V?$allocator@D@2@@std@@@1@@Z ; std::_Compressed_pair<std::allocator<std::basic_string<char,std::char_traits<char>,std::allocator<char> > >,std::_Vector_val<std::_Simple_types<std::basic_string<char,std::char_traits<char>,std::allocator<char> > > >,1>::_Compressed_pair<std::allocator<std::basic_string<char,std::char_traits<char>,std::allocator<char> > >,std::_Vector_val<std::_Simple_types<std::basic_string<char,std::char_traits<char>,std::allocator<char> > > >,1><std::allocator<std::basic_string<char,std::char_traits<char>,std::allocator<char> > > >
PUBLIC	??$?0AEBV?$allocator@V?$basic_string@DU?$char_traits@D@std@@V?$allocator@D@2@@std@@@std@@$$V@?$_Compressed_pair@V?$allocator@V?$basic_string@DU?$char_traits@D@std@@V?$allocator@D@2@@std@@@std@@V?$_Vector_val@U?$_Simple_types@V?$basic_string@DU?$char_traits@D@std@@V?$allocator@D@2@@std@@@std@@@2@$00@std@@QEAA@U_One_then_variadic_args_t@1@AEBV?$allocator@V?$basic_string@DU?$char_traits@D@std@@V?$allocator@D@2@@std@@@1@@Z ; std::_Compressed_pair<std::allocator<std::basic_string<char,std::char_traits<char>,std::allocator<char> > >,std::_Vector_val<std::_Simple_types<std::basic_string<char,std::char_traits<char>,std::allocator<char> > > >,1>::_Compressed_pair<std::allocator<std::basic_string<char,std::char_traits<char>,std::allocator<char> > >,std::_Vector_val<std::_Simple_types<std::basic_string<char,std::char_traits<char>,std::allocator<char> > > >,1><std::allocator<std::basic_string<char,std::char_traits<char>,std::allocator<char> > > const &>
PUBLIC	??$_Range_construct_or_tidy@PEBV?$basic_string@DU?$char_traits@D@std@@V?$allocator@D@2@@std@@@?$vector@V?$basic_string@DU?$char_traits@D@std@@V?$allocator@D@2@@std@@V?$allocator@V?$basic_string@DU?$char_traits@D@std@@V?$allocator@D@2@@std@@@2@@std@@AEAAXPEBV?$basic_string@DU?$char_traits@D@std@@V?$allocator@D@2@@1@0Uforward_iterator_tag@1@@Z ; std::vector<std::basic_string<char,std::char_traits<char>,std::allocator<char> >,std::allocator<std::basic_string<char,std::char_traits<char>,std::allocator<char> > > >::_Range_construct_or_tidy<std::basic_string<char,std::char_traits<char>,std::allocator<char> > const *>
PUBLIC	??$_Move_construct_from@H@?$_Ptr_base@H@std@@IEAAX$$QEAV01@@Z ; std::_Ptr_base<int>::_Move_construct_from<int>
PUBLIC	??$_Copy_construct_from@H@?$_Ptr_base@H@std@@IEAAXAEBV?$shared_ptr@H@1@@Z ; std::_Ptr_base<int>::_Copy_construct_from<int>
PUBLIC	??0_Sentry_base@?$basic_ostream@DU?$char_traits@D@std@@@std@@QEAA@AEAV12@@Z ; std::basic_ostream<char,std::char_traits<char> >::_Sentry_base::_Sentry_base
PUBLIC	??1_Sentry_base@?$basic_ostream@DU?$char_traits@D@std@@@std@@QEAA@XZ ; std::basic_ostream<char,std::char_traits<char> >::_Sentry_base::~_Sentry_base
PUBLIC	??0sentry@?$basic_ostream@DU?$char_traits@D@std@@@std@@QEAA@AEAV12@@Z ; std::basic_ostream<char,std::char_traits<char> >::sentry::sentry
PUBLIC	??1sentry@?$basic_ostream@DU?$char_traits@D@std@@@std@@QEAA@XZ ; std::basic_ostream<char,std::char_traits<char> >::sentry::~sentry
PUBLIC	??Bsentry@?$basic_ostream@DU?$char_traits@D@std@@@std@@QEBA_NXZ ; std::basic_ostream<char,std::char_traits<char> >::sentry::operator bool
PUBLIC	??$_Unfancy@D@std@@YAPEADPEAD@Z			; std::_Unfancy<char>
PUBLIC	??$?0D@?$allocator@U_Container_proxy@std@@@std@@QEAA@AEBV?$allocator@D@1@@Z ; std::allocator<std::_Container_proxy>::allocator<std::_Container_proxy><char>
PUBLIC	??$?0V?$allocator@D@std@@$$V@?$_Compressed_pair@V?$allocator@D@std@@V?$_String_val@U?$_Simple_types@D@std@@@2@$00@std@@QEAA@U_One_then_variadic_args_t@1@$$QEAV?$allocator@D@1@@Z ; std::_Compressed_pair<std::allocator<char>,std::_String_val<std::_Simple_types<char> >,1>::_Compressed_pair<std::allocator<char>,std::_String_val<std::_Simple_types<char> >,1><std::allocator<char> >
PUBLIC	??$?0$$V@?$_Compressed_pair@V?$allocator@D@std@@V?$_String_val@U?$_Simple_types@D@std@@@2@$00@std@@QEAA@U_Zero_then_variadic_args_t@1@@Z ; std::_Compressed_pair<std::allocator<char>,std::_String_val<std::_Simple_types<char> >,1>::_Compressed_pair<std::allocator<char>,std::_String_val<std::_Simple_types<char> >,1><>
PUBLIC	??$_Unfancy@U_Container_proxy@std@@@std@@YAPEAU_Container_proxy@0@PEAU10@@Z ; std::_Unfancy<std::_Container_proxy>
PUBLIC	??$_Destroy_in_place@PEAD@std@@YAXAEAPEAD@Z	; std::_Destroy_in_place<char *>
PUBLIC	??$_Max_value@_K@std@@YAAEB_KAEB_K0@Z		; std::_Max_value<unsigned __int64>
PUBLIC	??R<lambda_1>@?1??assign@?$basic_string@DU?$char_traits@D@std@@V?$allocator@D@2@@std@@QEAAAEAV23@QEBD_K@Z@QEBA@QEAD10@Z ; `std::basic_string<char,std::char_traits<char>,std::allocator<char> >::assign'::`2'::<lambda_1>::operator()
PUBLIC	??$_Reallocate_for@V<lambda_1>@?1??assign@?$basic_string@DU?$char_traits@D@std@@V?$allocator@D@2@@std@@QEAAAEAV34@QEBD_K@Z@PEBD@?$basic_string@DU?$char_traits@D@std@@V?$allocator@D@2@@std@@AEAAAEAV01@_KV<lambda_1>@?1??assign@01@QEAAAEAV01@QEBD0@Z@PEBD@Z ; std::basic_string<char,std::char_traits<char>,std::allocator<char> >::_Reallocate_for<`std::basic_string<char,std::char_traits<char>,std::allocator<char> >::assign'::`2'::<lambda_1>,char const *>
PUBLIC	??$_Construct_in_place@PEADAEBQEAD@std@@YAXAEAPEADAEBQEAD@Z ; std::_Construct_in_place<char *,char * const &>
PUBLIC	??$_Get_size_of_n@$00@std@@YA_K_K@Z		; std::_Get_size_of_n<1>
PUBLIC	??$_Allocate@$0BA@U_Default_allocate_traits@std@@$0A@@std@@YAPEAX_K@Z ; std::_Allocate<16,std::_Default_allocate_traits,0>
PUBLIC	??$_Deallocate@$0BA@$0A@@std@@YAXPEAX_K@Z	; std::_Deallocate<16,0>
PUBLIC	??$_Get_size_of_n@$0BA@@std@@YA_K_K@Z		; std::_Get_size_of_n<16>
PUBLIC	??$_Destroy_range@V?$allocator@V?$basic_string@DU?$char_traits@D@std@@V?$allocator@D@2@@std@@@std@@@std@@YAXPEAV?$basic_string@DU?$char_traits@D@std@@V?$allocator@D@2@@0@QEAV10@AEAV?$allocator@V?$basic_string@DU?$char_traits@D@std@@V?$allocator@D@2@@std@@@0@@Z ; std::_Destroy_range<std::allocator<std::basic_string<char,std::char_traits<char>,std::allocator<char> > > >
PUBLIC	??$addressof@U_Container_proxy@std@@@std@@YAPEAU_Container_proxy@0@AEAU10@@Z ; std::addressof<std::_Container_proxy>
PUBLIC	??$forward@PEAU_Container_base12@std@@@std@@YA$$QEAPEAU_Container_base12@0@AEAPEAU10@@Z ; std::forward<std::_Container_base12 *>
PUBLIC	??$move@AEAH@std@@YA$$QEAHAEAH@Z		; std::move<int &>
PUBLIC	??1?$_Ref_count_obj2@H@std@@UEAA@XZ		; std::_Ref_count_obj2<int>::~_Ref_count_obj2<int>
PUBLIC	?_Destroy@?$_Ref_count_obj2@H@std@@EEAAXXZ	; std::_Ref_count_obj2<int>::_Destroy
PUBLIC	?_Delete_this@?$_Ref_count_obj2@H@std@@EEAAXXZ	; std::_Ref_count_obj2<int>::_Delete_this
PUBLIC	??_G?$_Ref_count_obj2@H@std@@UEAAPEAXI@Z	; std::_Ref_count_obj2<int>::`scalar deleting destructor'
PUBLIC	??$?0H@?$_Ref_count_obj2@H@std@@QEAA@$$QEAH@Z	; std::_Ref_count_obj2<int>::_Ref_count_obj2<int><int>
PUBLIC	??$addressof@H@std@@YAPEAHAEAH@Z		; std::addressof<int>
PUBLIC	??$_Set_ptr_rep_and_enable_shared@H@?$shared_ptr@H@std@@AEAAXQEAHQEAV_Ref_count_base@1@@Z ; std::shared_ptr<int>::_Set_ptr_rep_and_enable_shared<int>
PUBLIC	??0?$_Temporary_owner@H@std@@QEAA@QEAH@Z	; std::_Temporary_owner<int>::_Temporary_owner<int>
PUBLIC	??1?$_Temporary_owner@H@std@@QEAA@XZ		; std::_Temporary_owner<int>::~_Temporary_owner<int>
PUBLIC	??0?$_Ref_count@H@std@@QEAA@PEAH@Z		; std::_Ref_count<int>::_Ref_count<int>
PUBLIC	?_Destroy@?$_Ref_count@H@std@@EEAAXXZ		; std::_Ref_count<int>::_Destroy
PUBLIC	?_Delete_this@?$_Ref_count@H@std@@EEAAXXZ	; std::_Ref_count<int>::_Delete_this
PUBLIC	??1?$_Ref_count@H@std@@UEAA@XZ			; std::_Ref_count<int>::~_Ref_count<int>
PUBLIC	?__autoclassinit2@?$_Ref_count@H@std@@QEAAX_K@Z	; std::_Ref_count<int>::__autoclassinit2
PUBLIC	??_G?$_Ref_count@H@std@@UEAAPEAXI@Z		; std::_Ref_count<int>::`scalar deleting destructor'
PUBLIC	??$move@AEAU?$default_delete@H@std@@@std@@YA$$QEAU?$default_delete@H@0@AEAU10@@Z ; std::move<std::default_delete<int> &>
PUBLIC	??$_Setpd@PEAHU?$default_delete@H@std@@@?$shared_ptr@H@std@@AEAAXQEAHU?$default_delete@H@1@@Z ; std::shared_ptr<int>::_Setpd<int *,std::default_delete<int> >
PUBLIC	??$?0AEAPEAH@?$_Compressed_pair@U?$default_delete@H@std@@PEAH$00@std@@QEAA@U_Zero_then_variadic_args_t@1@AEAPEAH@Z ; std::_Compressed_pair<std::default_delete<int>,int *,1>::_Compressed_pair<std::default_delete<int>,int *,1><int * &>
PUBLIC	??0?$_Ref_count_resource@PEAHU?$default_delete@H@std@@@std@@QEAA@PEAHU?$default_delete@H@1@@Z ; std::_Ref_count_resource<int *,std::default_delete<int> >::_Ref_count_resource<int *,std::default_delete<int> >
PUBLIC	?_Get_deleter@?$_Ref_count_resource@PEAHU?$default_delete@H@std@@@std@@UEBAPEAXAEBVtype_info@@@Z ; std::_Ref_count_resource<int *,std::default_delete<int> >::_Get_deleter
PUBLIC	?_Destroy@?$_Ref_count_resource@PEAHU?$default_delete@H@std@@@std@@EEAAXXZ ; std::_Ref_count_resource<int *,std::default_delete<int> >::_Destroy
PUBLIC	?_Delete_this@?$_Ref_count_resource@PEAHU?$default_delete@H@std@@@std@@EEAAXXZ ; std::_Ref_count_resource<int *,std::default_delete<int> >::_Delete_this
PUBLIC	??1?$_Ref_count_resource@PEAHU?$default_delete@H@std@@@std@@UEAA@XZ ; std::_Ref_count_resource<int *,std::default_delete<int> >::~_Ref_count_resource<int *,std::default_delete<int> >
PUBLIC	?__autoclassinit2@?$_Ref_count_resource@PEAHU?$default_delete@H@std@@@std@@QEAAX_K@Z ; std::_Ref_count_resource<int *,std::default_delete<int> >::__autoclassinit2
PUBLIC	??_G?$_Ref_count_resource@PEAHU?$default_delete@H@std@@@std@@UEAAPEAXI@Z ; std::_Ref_count_resource<int *,std::default_delete<int> >::`scalar deleting destructor'
PUBLIC	?deallocate@?$allocator@V?$_Ref_count_obj_alloc2@HV?$allocator@H@std@@@std@@@std@@QEAAXQEAV?$_Ref_count_obj_alloc2@HV?$allocator@H@std@@@2@_K@Z ; std::allocator<std::_Ref_count_obj_alloc2<int,std::allocator<int> > >::deallocate
PUBLIC	?allocate@?$allocator@V?$_Ref_count_obj_alloc2@HV?$allocator@H@std@@@std@@@std@@QEAAPEAV?$_Ref_count_obj_alloc2@HV?$allocator@H@std@@@2@_K@Z ; std::allocator<std::_Ref_count_obj_alloc2<int,std::allocator<int> > >::allocate
PUBLIC	??$?0H@?$allocator@V?$_Ref_count_obj_alloc2@HV?$allocator@H@std@@@std@@@std@@QEAA@AEBV?$allocator@H@1@@Z ; std::allocator<std::_Ref_count_obj_alloc2<int,std::allocator<int> > >::allocator<std::_Ref_count_obj_alloc2<int,std::allocator<int> > ><int>
PUBLIC	?deallocate@?$_Default_allocator_traits@V?$allocator@V?$_Ref_count_obj_alloc2@HV?$allocator@H@std@@@std@@@std@@@std@@SAXAEAV?$allocator@V?$_Ref_count_obj_alloc2@HV?$allocator@H@std@@@std@@@2@QEAV?$_Ref_count_obj_alloc2@HV?$allocator@H@std@@@2@_K@Z ; std::_Default_allocator_traits<std::allocator<std::_Ref_count_obj_alloc2<int,std::allocator<int> > > >::deallocate
PUBLIC	??0?$_Alloc_construct_ptr@V?$allocator@V?$_Ref_count_obj_alloc2@HV?$allocator@H@std@@@std@@@std@@@std@@QEAA@AEAV?$allocator@V?$_Ref_count_obj_alloc2@HV?$allocator@H@std@@@std@@@1@@Z ; std::_Alloc_construct_ptr<std::allocator<std::_Ref_count_obj_alloc2<int,std::allocator<int> > > >::_Alloc_construct_ptr<std::allocator<std::_Ref_count_obj_alloc2<int,std::allocator<int> > > >
PUBLIC	?_Release@?$_Alloc_construct_ptr@V?$allocator@V?$_Ref_count_obj_alloc2@HV?$allocator@H@std@@@std@@@std@@@std@@QEAAPEAV?$_Ref_count_obj_alloc2@HV?$allocator@H@std@@@2@XZ ; std::_Alloc_construct_ptr<std::allocator<std::_Ref_count_obj_alloc2<int,std::allocator<int> > > >::_Release
PUBLIC	?_Allocate@?$_Alloc_construct_ptr@V?$allocator@V?$_Ref_count_obj_alloc2@HV?$allocator@H@std@@@std@@@std@@@std@@QEAAXXZ ; std::_Alloc_construct_ptr<std::allocator<std::_Ref_count_obj_alloc2<int,std::allocator<int> > > >::_Allocate
PUBLIC	??1?$_Alloc_construct_ptr@V?$allocator@V?$_Ref_count_obj_alloc2@HV?$allocator@H@std@@@std@@@std@@@std@@QEAA@XZ ; std::_Alloc_construct_ptr<std::allocator<std::_Ref_count_obj_alloc2<int,std::allocator<int> > > >::~_Alloc_construct_ptr<std::allocator<std::_Ref_count_obj_alloc2<int,std::allocator<int> > > >
PUBLIC	?_Get_val@?$_Ebco_base@V?$allocator@H@std@@$00@std@@IEAAAEAV?$allocator@H@2@XZ ; std::_Ebco_base<std::allocator<int>,1>::_Get_val
PUBLIC	??1?$_Ref_count_obj_alloc2@HV?$allocator@H@std@@@std@@EEAA@XZ ; std::_Ref_count_obj_alloc2<int,std::allocator<int> >::~_Ref_count_obj_alloc2<int,std::allocator<int> >
PUBLIC	?_Destroy@?$_Ref_count_obj_alloc2@HV?$allocator@H@std@@@std@@EEAAXXZ ; std::_Ref_count_obj_alloc2<int,std::allocator<int> >::_Destroy
PUBLIC	?_Delete_this@?$_Ref_count_obj_alloc2@HV?$allocator@H@std@@@std@@EEAAXXZ ; std::_Ref_count_obj_alloc2<int,std::allocator<int> >::_Delete_this
PUBLIC	??_G?$_Ref_count_obj_alloc2@HV?$allocator@H@std@@@std@@EEAAPEAXI@Z ; std::_Ref_count_obj_alloc2<int,std::allocator<int> >::`scalar deleting destructor'
PUBLIC	??$_Construct_in_place@V?$_Ref_count_obj_alloc2@HV?$allocator@H@std@@@std@@AEBV?$allocator@H@2@H@std@@YAXAEAV?$_Ref_count_obj_alloc2@HV?$allocator@H@std@@@0@AEBV?$allocator@H@0@$$QEAH@Z ; std::_Construct_in_place<std::_Ref_count_obj_alloc2<int,std::allocator<int> >,std::allocator<int> const &,int>
PUBLIC	??$?0H@?$_Ref_count_obj_alloc2@HV?$allocator@H@std@@@std@@QEAA@AEBV?$allocator@H@1@$$QEAH@Z ; std::_Ref_count_obj_alloc2<int,std::allocator<int> >::_Ref_count_obj_alloc2<int,std::allocator<int> ><int>
PUBLIC	??$_Unfancy@V?$_Ref_count_obj_alloc2@HV?$allocator@H@std@@@std@@@std@@YAPEAV?$_Ref_count_obj_alloc2@HV?$allocator@H@std@@@0@PEAV10@@Z ; std::_Unfancy<std::_Ref_count_obj_alloc2<int,std::allocator<int> > >
PUBLIC	?deallocate@?$allocator@V?$_Ref_count_obj_alloc2@U?$pair@HH@std@@V?$allocator@H@2@@std@@@std@@QEAAXQEAV?$_Ref_count_obj_alloc2@U?$pair@HH@std@@V?$allocator@H@2@@2@_K@Z ; std::allocator<std::_Ref_count_obj_alloc2<std::pair<int,int>,std::allocator<int> > >::deallocate
PUBLIC	?allocate@?$allocator@V?$_Ref_count_obj_alloc2@U?$pair@HH@std@@V?$allocator@H@2@@std@@@std@@QEAAPEAV?$_Ref_count_obj_alloc2@U?$pair@HH@std@@V?$allocator@H@2@@2@_K@Z ; std::allocator<std::_Ref_count_obj_alloc2<std::pair<int,int>,std::allocator<int> > >::allocate
PUBLIC	??$?0H@?$allocator@V?$_Ref_count_obj_alloc2@U?$pair@HH@std@@V?$allocator@H@2@@std@@@std@@QEAA@AEBV?$allocator@H@1@@Z ; std::allocator<std::_Ref_count_obj_alloc2<std::pair<int,int>,std::allocator<int> > >::allocator<std::_Ref_count_obj_alloc2<std::pair<int,int>,std::allocator<int> > ><int>
PUBLIC	?deallocate@?$_Default_allocator_traits@V?$allocator@V?$_Ref_count_obj_alloc2@U?$pair@HH@std@@V?$allocator@H@2@@std@@@std@@@std@@SAXAEAV?$allocator@V?$_Ref_count_obj_alloc2@U?$pair@HH@std@@V?$allocator@H@2@@std@@@2@QEAV?$_Ref_count_obj_alloc2@U?$pair@HH@std@@V?$allocator@H@2@@2@_K@Z ; std::_Default_allocator_traits<std::allocator<std::_Ref_count_obj_alloc2<std::pair<int,int>,std::allocator<int> > > >::deallocate
PUBLIC	??0?$_Alloc_construct_ptr@V?$allocator@V?$_Ref_count_obj_alloc2@U?$pair@HH@std@@V?$allocator@H@2@@std@@@std@@@std@@QEAA@AEAV?$allocator@V?$_Ref_count_obj_alloc2@U?$pair@HH@std@@V?$allocator@H@2@@std@@@1@@Z ; std::_Alloc_construct_ptr<std::allocator<std::_Ref_count_obj_alloc2<std::pair<int,int>,std::allocator<int> > > >::_Alloc_construct_ptr<std::allocator<std::_Ref_count_obj_alloc2<std::pair<int,int>,std::allocator<int> > > >
PUBLIC	?_Release@?$_Alloc_construct_ptr@V?$allocator@V?$_Ref_count_obj_alloc2@U?$pair@HH@std@@V?$allocator@H@2@@std@@@std@@@std@@QEAAPEAV?$_Ref_count_obj_alloc2@U?$pair@HH@std@@V?$allocator@H@2@@2@XZ ; std::_Alloc_construct_ptr<std::allocator<std::_Ref_count_obj_alloc2<std::pair<int,int>,std::allocator<int> > > >::_Release
PUBLIC	?_Allocate@?$_Alloc_construct_ptr@V?$allocator@V?$_Ref_count_obj_alloc2@U?$pair@HH@std@@V?$allocator@H@2@@std@@@std@@@std@@QEAAXXZ ; std::_Alloc_construct_ptr<std::allocator<std::_Ref_count_obj_alloc2<std::pair<int,int>,std::allocator<int> > > >::_Allocate
PUBLIC	??1?$_Alloc_construct_ptr@V?$allocator@V?$_Ref_count_obj_alloc2@U?$pair@HH@std@@V?$allocator@H@2@@std@@@std@@@std@@QEAA@XZ ; std::_Alloc_construct_ptr<std::allocator<std::_Ref_count_obj_alloc2<std::pair<int,int>,std::allocator<int> > > >::~_Alloc_construct_ptr<std::allocator<std::_Ref_count_obj_alloc2<std::pair<int,int>,std::allocator<int> > > >
PUBLIC	??1?$_Ref_count_obj_alloc2@U?$pair@HH@std@@V?$allocator@H@2@@std@@EEAA@XZ ; std::_Ref_count_obj_alloc2<std::pair<int,int>,std::allocator<int> >::~_Ref_count_obj_alloc2<std::pair<int,int>,std::allocator<int> >
PUBLIC	?_Destroy@?$_Ref_count_obj_alloc2@U?$pair@HH@std@@V?$allocator@H@2@@std@@EEAAXXZ ; std::_Ref_count_obj_alloc2<std::pair<int,int>,std::allocator<int> >::_Destroy
PUBLIC	?_Delete_this@?$_Ref_count_obj_alloc2@U?$pair@HH@std@@V?$allocator@H@2@@std@@EEAAXXZ ; std::_Ref_count_obj_alloc2<std::pair<int,int>,std::allocator<int> >::_Delete_this
PUBLIC	??_G?$_Ref_count_obj_alloc2@U?$pair@HH@std@@V?$allocator@H@2@@std@@EEAAPEAXI@Z ; std::_Ref_count_obj_alloc2<std::pair<int,int>,std::allocator<int> >::`scalar deleting destructor'
PUBLIC	??$_Construct_in_place@V?$_Ref_count_obj_alloc2@U?$pair@HH@std@@V?$allocator@H@2@@std@@AEBV?$allocator@H@2@HH@std@@YAXAEAV?$_Ref_count_obj_alloc2@U?$pair@HH@std@@V?$allocator@H@2@@0@AEBV?$allocator@H@0@$$QEAH2@Z ; std::_Construct_in_place<std::_Ref_count_obj_alloc2<std::pair<int,int>,std::allocator<int> >,std::allocator<int> const &,int,int>
PUBLIC	??$?0HH@?$_Ref_count_obj_alloc2@U?$pair@HH@std@@V?$allocator@H@2@@std@@QEAA@AEBV?$allocator@H@1@$$QEAH1@Z ; std::_Ref_count_obj_alloc2<std::pair<int,int>,std::allocator<int> >::_Ref_count_obj_alloc2<std::pair<int,int>,std::allocator<int> ><int,int>
PUBLIC	??$addressof@U?$pair@HH@std@@@std@@YAPEAU?$pair@HH@0@AEAU10@@Z ; std::addressof<std::pair<int,int> >
PUBLIC	??$_Unfancy@V?$_Ref_count_obj_alloc2@U?$pair@HH@std@@V?$allocator@H@2@@std@@@std@@YAPEAV?$_Ref_count_obj_alloc2@U?$pair@HH@std@@V?$allocator@H@2@@0@PEAV10@@Z ; std::_Unfancy<std::_Ref_count_obj_alloc2<std::pair<int,int>,std::allocator<int> > >
PUBLIC	??$_Set_ptr_rep_and_enable_shared@U?$pair@HH@std@@@?$shared_ptr@U?$pair@HH@std@@@std@@AEAAXQEAU?$pair@HH@1@QEAV_Ref_count_base@1@@Z ; std::shared_ptr<std::pair<int,int> >::_Set_ptr_rep_and_enable_shared<std::pair<int,int> >
PUBLIC	??$_Insert_string@DU?$char_traits@D@std@@_K@std@@YAAEAV?$basic_ostream@DU?$char_traits@D@std@@@0@AEAV10@QEBD_K@Z ; std::_Insert_string<char,std::char_traits<char>,unsigned __int64>
PUBLIC	??$forward@AEAH@std@@YAAEAHAEAH@Z		; std::forward<int &>
PUBLIC	?<lambda_invoker_cdecl>@_Closure_wrapper_8e55e522_1@@CAHH@Z ; _Closure_wrapper_8e55e522_1::<lambda_invoker_cdecl>
PUBLIC	??B_Closure_wrapper_8e55e522_1@@QEBAP6AHH@ZXZ	; _Closure_wrapper_8e55e522_1::operator int (__cdecl*)(int)
PUBLIC	??$forward@AEAP6AHH@Z@std@@YAAEAP6AHH@ZAEAP6AHH@Z@Z ; std::forward<int (__cdecl*&)(int)>
PUBLIC	??$_Call@AEAP6AHH@ZH@_Invoker_functor@std@@SAHAEAP6AHH@Z$$QEAH@Z ; std::_Invoker_functor::_Call<int (__cdecl*&)(int),int>
PUBLIC	??$invoke@AEAP6AHH@ZH@std@@YAHAEAP6AHH@Z$$QEAH@Z ; std::invoke<int (__cdecl*&)(int),int>
PUBLIC	??$?0P6AHH@ZX@?$function@$$A6AHH@Z@std@@QEAA@P6AHH@Z@Z ; std::function<int __cdecl(int)>::function<int __cdecl(int)><int (__cdecl*)(int),void>
PUBLIC	??$_Deallocate_plain@V?$allocator@U_Container_proxy@std@@@std@@@std@@YAXAEAV?$allocator@U_Container_proxy@std@@@0@QEAU_Container_proxy@0@@Z ; std::_Deallocate_plain<std::allocator<std::_Container_proxy> >
PUBLIC	??$forward@V?$allocator@V?$basic_string@DU?$char_traits@D@std@@V?$allocator@D@2@@std@@@std@@@std@@YA$$QEAV?$allocator@V?$basic_string@DU?$char_traits@D@std@@V?$allocator@D@2@@std@@@0@AEAV10@@Z ; std::forward<std::allocator<std::basic_string<char,std::char_traits<char>,std::allocator<char> > > >
PUBLIC	??$forward@AEBV?$allocator@V?$basic_string@DU?$char_traits@D@std@@V?$allocator@D@2@@std@@@std@@@std@@YAAEBV?$allocator@V?$basic_string@DU?$char_traits@D@std@@V?$allocator@D@2@@std@@@0@AEBV10@@Z ; std::forward<std::allocator<std::basic_string<char,std::char_traits<char>,std::allocator<char> > > const &>
PUBLIC	??$distance@PEBV?$basic_string@DU?$char_traits@D@std@@V?$allocator@D@2@@std@@@std@@YA_JPEBV?$basic_string@DU?$char_traits@D@std@@V?$allocator@D@2@@0@0@Z ; std::distance<std::basic_string<char,std::char_traits<char>,std::allocator<char> > const *>
PUBLIC	??1?$_Tidy_guard@V?$vector@V?$basic_string@DU?$char_traits@D@std@@V?$allocator@D@2@@std@@V?$allocator@V?$basic_string@DU?$char_traits@D@std@@V?$allocator@D@2@@std@@@2@@std@@@std@@QEAA@XZ ; std::_Tidy_guard<std::vector<std::basic_string<char,std::char_traits<char>,std::allocator<char> >,std::allocator<std::basic_string<char,std::char_traits<char>,std::allocator<char> > > > >::~_Tidy_guard<std::vector<std::basic_string<char,std::char_traits<char>,std::allocator<char> >,std::allocator<std::basic_string<char,std::char_traits<char>,std::allocator<char> > > > >
PUBLIC	??$_Ucopy@PEBV?$basic_string@DU?$char_traits@D@std@@V?$allocator@D@2@@std@@@?$vector@V?$basic_string@DU?$char_traits@D@std@@V?$allocator@D@2@@std@@V?$allocator@V?$basic_string@DU?$char_traits@D@std@@V?$allocator@D@2@@std@@@2@@std@@AEAAPEAV?$basic_string@DU?$char_traits@D@std@@V?$allocator@D@2@@1@PEBV21@0PEAV21@@Z ; std::vector<std::basic_string<char,std::char_traits<char>,std::allocator<char> >,std::allocator<std::basic_string<char,std::char_traits<char>,std::allocator<char> > > >::_Ucopy<std::basic_string<char,std::char_traits<char>,std::allocator<char> > const *>
PUBLIC	??$forward@V?$allocator@D@std@@@std@@YA$$QEAV?$allocator@D@0@AEAV10@@Z ; std::forward<std::allocator<char> >
PUBLIC	??$forward@AEBU?$less@H@std@@@std@@YAAEBU?$less@H@0@AEBU10@@Z ; std::forward<std::less<int> const &>
PUBLIC	??$forward@U_Zero_then_variadic_args_t@std@@@std@@YA$$QEAU_Zero_then_variadic_args_t@0@AEAU10@@Z ; std::forward<std::_Zero_then_variadic_args_t>
PUBLIC	??$addressof@PEAD@std@@YAPEAPEADAEAPEAD@Z	; std::addressof<char *>
PUBLIC	??$forward@AEBQEAD@std@@YAAEBQEADAEBQEAD@Z	; std::forward<char * const &>
PUBLIC	??$_Allocate_manually_vector_aligned@U_Default_allocate_traits@std@@@std@@YAPEAX_K@Z ; std::_Allocate_manually_vector_aligned<std::_Default_allocate_traits>
PUBLIC	??$_Unfancy@V?$basic_string@DU?$char_traits@D@std@@V?$allocator@D@2@@std@@@std@@YAPEAV?$basic_string@DU?$char_traits@D@std@@V?$allocator@D@2@@0@PEAV10@@Z ; std::_Unfancy<std::basic_string<char,std::char_traits<char>,std::allocator<char> > >
PUBLIC	??$destroy@V?$basic_string@DU?$char_traits@D@std@@V?$allocator@D@2@@std@@@?$_Default_allocator_traits@V?$allocator@V?$basic_string@DU?$char_traits@D@std@@V?$allocator@D@2@@std@@@std@@@std@@SAXAEAV?$allocator@V?$basic_string@DU?$char_traits@D@std@@V?$allocator@D@2@@std@@@1@QEAV?$basic_string@DU?$char_traits@D@std@@V?$allocator@D@2@@1@@Z ; std::_Default_allocator_traits<std::allocator<std::basic_string<char,std::char_traits<char>,std::allocator<char> > > >::destroy<std::basic_string<char,std::char_traits<char>,std::allocator<char> > >
PUBLIC	??$_Deallocate_plain@V?$allocator@V?$_Ref_count_obj_alloc2@U?$pair@HH@std@@V?$allocator@H@2@@std@@@std@@@std@@YAXAEAV?$allocator@V?$_Ref_count_obj_alloc2@U?$pair@HH@std@@V?$allocator@H@2@@std@@@0@QEAV?$_Ref_count_obj_alloc2@U?$pair@HH@std@@V?$allocator@H@2@@0@@Z ; std::_Deallocate_plain<std::allocator<std::_Ref_count_obj_alloc2<std::pair<int,int>,std::allocator<int> > > >
PUBLIC	??$?0H@?$allocator@U?$pair@HH@std@@@std@@QEAA@AEBV?$allocator@H@1@@Z ; std::allocator<std::pair<int,int> >::allocator<std::pair<int,int> ><int>
PUBLIC	??$destroy@U?$pair@HH@std@@@?$_Default_allocator_traits@V?$allocator@U?$pair@HH@std@@@std@@@std@@SAXAEAV?$allocator@U?$pair@HH@std@@@1@QEAU?$pair@HH@1@@Z ; std::_Default_allocator_traits<std::allocator<std::pair<int,int> > >::destroy<std::pair<int,int> >
PUBLIC	??$exchange@PEAV?$_Ref_count_obj_alloc2@U?$pair@HH@std@@V?$allocator@H@2@@std@@$$T@std@@YAPEAV?$_Ref_count_obj_alloc2@U?$pair@HH@std@@V?$allocator@H@2@@0@AEAPEAV10@$$QEA$$T@Z ; std::exchange<std::_Ref_count_obj_alloc2<std::pair<int,int>,std::allocator<int> > *,std::nullptr_t>
PUBLIC	??$_Deallocate_plain@V?$allocator@V?$_Ref_count_obj_alloc2@HV?$allocator@H@std@@@std@@@std@@@std@@YAXAEAV?$allocator@V?$_Ref_count_obj_alloc2@HV?$allocator@H@std@@@std@@@0@QEAV?$_Ref_count_obj_alloc2@HV?$allocator@H@std@@@0@@Z ; std::_Deallocate_plain<std::allocator<std::_Ref_count_obj_alloc2<int,std::allocator<int> > > >
PUBLIC	??$destroy@H@?$_Default_allocator_traits@V?$allocator@H@std@@@std@@SAXAEAV?$allocator@H@1@QEAH@Z ; std::_Default_allocator_traits<std::allocator<int> >::destroy<int>
PUBLIC	??$exchange@PEAV?$_Ref_count_obj_alloc2@HV?$allocator@H@std@@@std@@$$T@std@@YAPEAV?$_Ref_count_obj_alloc2@HV?$allocator@H@std@@@0@AEAPEAV10@$$QEA$$T@Z ; std::exchange<std::_Ref_count_obj_alloc2<int,std::allocator<int> > *,std::nullptr_t>
PUBLIC	??$addressof@$$CBU?$default_delete@H@std@@@std@@YAPEBU?$default_delete@H@0@AEBU10@@Z ; std::addressof<std::default_delete<int> const >
PUBLIC	??$?0U?$default_delete@H@std@@AEAPEAH@?$_Compressed_pair@U?$default_delete@H@std@@PEAH$00@std@@QEAA@U_One_then_variadic_args_t@1@$$QEAU?$default_delete@H@1@AEAPEAH@Z ; std::_Compressed_pair<std::default_delete<int>,int *,1>::_Compressed_pair<std::default_delete<int>,int *,1><std::default_delete<int>,int * &>
PUBLIC	??$_Destroy_in_place@H@std@@YAXAEAH@Z		; std::_Destroy_in_place<int>
PUBLIC	??$_Get_size_of_n@$0DI@@std@@YA_K_K@Z		; std::_Get_size_of_n<56>
PUBLIC	??$_Get_size_of_n@$0GA@@std@@YA_K_K@Z		; std::_Get_size_of_n<96>
PUBLIC	??$move@AEAV?$shared_ptr@U?$pair@HH@std@@@std@@@std@@YA$$QEAV?$shared_ptr@U?$pair@HH@std@@@0@AEAV10@@Z ; std::move<std::shared_ptr<std::pair<int,int> > &>
PUBLIC	??$_Move_construct_from@U?$pair@HH@std@@@?$_Ptr_base@U?$pair@HH@std@@@std@@IEAAX$$QEAV01@@Z ; std::_Ptr_base<std::pair<int,int> >::_Move_construct_from<std::pair<int,int> >
PUBLIC	??$exchange@PEAHPEAH@std@@YAPEAHAEAPEAH$$QEAPEAH@Z ; std::exchange<int *,int *>
PUBLIC	??$_Get_size_of_n@$0BI@@std@@YA_K_K@Z		; std::_Get_size_of_n<24>
PUBLIC	??$_Get_size_of_n@$0FI@@std@@YA_K_K@Z		; std::_Get_size_of_n<88>
PUBLIC	??$_Get_size_of_n@$0CI@@std@@YA_K_K@Z		; std::_Get_size_of_n<40>
PUBLIC	??$_Construct_in_place@HH@std@@YAXAEAH$$QEAH@Z	; std::_Construct_in_place<int,int>
PUBLIC	??0?$_Temporary_owner_del@PEAHU?$default_delete@H@std@@@std@@QEAA@QEAHAEAU?$default_delete@H@1@@Z ; std::_Temporary_owner_del<int *,std::default_delete<int> >::_Temporary_owner_del<int *,std::default_delete<int> >
PUBLIC	??1?$_Temporary_owner_del@PEAHU?$default_delete@H@std@@@std@@QEAA@XZ ; std::_Temporary_owner_del<int *,std::default_delete<int> >::~_Temporary_owner_del<int *,std::default_delete<int> >
PUBLIC	??$forward@AEAPEAH@std@@YAAEAPEAHAEAPEAH@Z	; std::forward<int * &>
PUBLIC	??$addressof@V?$_Ref_count_obj_alloc2@HV?$allocator@H@std@@@std@@@std@@YAPEAV?$_Ref_count_obj_alloc2@HV?$allocator@H@std@@@0@AEAV10@@Z ; std::addressof<std::_Ref_count_obj_alloc2<int,std::allocator<int> > >
PUBLIC	??$forward@AEBV?$allocator@H@std@@@std@@YAAEBV?$allocator@H@0@AEBV10@@Z ; std::forward<std::allocator<int> const &>
PUBLIC	??$addressof@V?$_Ref_count_obj_alloc2@U?$pair@HH@std@@V?$allocator@H@2@@std@@@std@@YAPEAV?$_Ref_count_obj_alloc2@U?$pair@HH@std@@V?$allocator@H@2@@0@AEAV10@@Z ; std::addressof<std::_Ref_count_obj_alloc2<std::pair<int,int>,std::allocator<int> > >
PUBLIC	??$forward@AEB_N@std@@YAAEB_NAEB_N@Z		; std::forward<bool const &>
PUBLIC	??$move@AEAP6AHH@Z@std@@YA$$QEAP6AHH@ZAEAP6AHH@Z@Z ; std::move<int (__cdecl*&)(int)>
PUBLIC	??$_Reset@P6AHH@Z@?$_Func_class@HH@std@@IEAAX$$QEAP6AHH@Z@Z ; std::_Func_class<int,int>::_Reset<int (__cdecl*)(int)>
PUBLIC	?deallocate@?$_Default_allocator_traits@V?$allocator@U_Container_proxy@std@@@std@@@std@@SAXAEAV?$allocator@U_Container_proxy@std@@@2@QEAU_Container_proxy@2@_K@Z ; std::_Default_allocator_traits<std::allocator<std::_Container_proxy> >::deallocate
PUBLIC	??$_Uninitialized_copy@PEBV?$basic_string@DU?$char_traits@D@std@@V?$allocator@D@2@@std@@V?$allocator@V?$basic_string@DU?$char_traits@D@std@@V?$allocator@D@2@@std@@@2@@std@@YAPEAV?$basic_string@DU?$char_traits@D@std@@V?$allocator@D@2@@0@QEBV10@0PEAV10@AEAV?$allocator@V?$basic_string@DU?$char_traits@D@std@@V?$allocator@D@2@@std@@@0@@Z ; std::_Uninitialized_copy<std::basic_string<char,std::char_traits<char>,std::allocator<char> > const *,std::allocator<std::basic_string<char,std::char_traits<char>,std::allocator<char> > > >
PUBLIC	??$forward@U?$default_delete@H@std@@@std@@YA$$QEAU?$default_delete@H@0@AEAU10@@Z ; std::forward<std::default_delete<int> >
PUBLIC	??$_Deallocate@$07$0A@@std@@YAXPEAX_K@Z		; std::_Deallocate<8,0>
PUBLIC	??$?0AEBV?$allocator@H@std@@$0A@@?$_Ebco_base@V?$allocator@H@std@@$00@std@@IEAA@AEBV?$allocator@H@1@@Z ; std::_Ebco_base<std::allocator<int>,1>::_Ebco_base<std::allocator<int>,1><std::allocator<int> const &,0>
PUBLIC	??$construct@HH@?$_Default_allocator_traits@V?$allocator@H@std@@@std@@SAXAEAV?$allocator@H@1@QEAH$$QEAH@Z ; std::_Default_allocator_traits<std::allocator<int> >::construct<int,int>
PUBLIC	??$construct@U?$pair@HH@std@@HH@?$_Default_allocator_traits@V?$allocator@U?$pair@HH@std@@@std@@@std@@SAXAEAV?$allocator@U?$pair@HH@std@@@1@QEAU?$pair@HH@1@$$QEAH2@Z ; std::_Default_allocator_traits<std::allocator<std::pair<int,int> > >::construct<std::pair<int,int>,int,int>
PUBLIC	??$forward@AEAV?$allocator@H@std@@@std@@YAAEAV?$allocator@H@0@AEAV10@@Z ; std::forward<std::allocator<int> &>
PUBLIC	??$_Debug_lt_pred@AEBU?$less@H@std@@AEBHAEBH$0A@@std@@YA_NAEBU?$less@H@0@AEBH1@Z ; std::_Debug_lt_pred<std::less<int> const &,int const &,int const &,0>
PUBLIC	??$forward@_N@std@@YA$$QEA_NAEA_N@Z		; std::forward<bool>
PUBLIC	??$_Test_callable@P6AHH@Z@std@@YA_NAEBQ6AHH@Z@Z	; std::_Test_callable<int (__cdecl*)(int)>
PUBLIC	?_Copy@?$_Func_impl_no_alloc@P6AHH@ZHH@std@@EEBAPEAV?$_Func_base@HH@2@PEAX@Z ; std::_Func_impl_no_alloc<int (__cdecl*)(int),int,int>::_Copy
PUBLIC	?_Move@?$_Func_impl_no_alloc@P6AHH@ZHH@std@@EEAAPEAV?$_Func_base@HH@2@PEAX@Z ; std::_Func_impl_no_alloc<int (__cdecl*)(int),int,int>::_Move
PUBLIC	?_Do_call@?$_Func_impl_no_alloc@P6AHH@ZHH@std@@EEAAH$$QEAH@Z ; std::_Func_impl_no_alloc<int (__cdecl*)(int),int,int>::_Do_call
PUBLIC	?_Target_type@?$_Func_impl_no_alloc@P6AHH@ZHH@std@@EEBAAEBVtype_info@@XZ ; std::_Func_impl_no_alloc<int (__cdecl*)(int),int,int>::_Target_type
PUBLIC	?_Get@?$_Func_impl_no_alloc@P6AHH@ZHH@std@@EEBAPEBXXZ ; std::_Func_impl_no_alloc<int (__cdecl*)(int),int,int>::_Get
PUBLIC	?_Delete_this@?$_Func_impl_no_alloc@P6AHH@ZHH@std@@EEAAX_N@Z ; std::_Func_impl_no_alloc<int (__cdecl*)(int),int,int>::_Delete_this
PUBLIC	??$forward@P6AHH@Z@std@@YA$$QEAP6AHH@ZAEAP6AHH@Z@Z ; std::forward<int (__cdecl*)(int)>
PUBLIC	??$?0P6AHH@ZX@?$_Func_impl_no_alloc@P6AHH@ZHH@std@@QEAA@$$QEAP6AHH@Z@Z ; std::_Func_impl_no_alloc<int (__cdecl*)(int),int,int>::_Func_impl_no_alloc<int (__cdecl*)(int),int,int><int (__cdecl*)(int),void>
PUBLIC	??$_Get_unwrapped@$$CBV?$basic_string@DU?$char_traits@D@std@@V?$allocator@D@2@@std@@@std@@YAPEBV?$basic_string@DU?$char_traits@D@std@@V?$allocator@D@2@@0@QEBV10@@Z ; std::_Get_unwrapped<std::basic_string<char,std::char_traits<char>,std::allocator<char> > const >
PUBLIC	??0?$_Uninitialized_backout_al@V?$allocator@V?$basic_string@DU?$char_traits@D@std@@V?$allocator@D@2@@std@@@std@@@std@@QEAA@PEAV?$basic_string@DU?$char_traits@D@std@@V?$allocator@D@2@@1@AEAV?$allocator@V?$basic_string@DU?$char_traits@D@std@@V?$allocator@D@2@@std@@@1@@Z ; std::_Uninitialized_backout_al<std::allocator<std::basic_string<char,std::char_traits<char>,std::allocator<char> > > >::_Uninitialized_backout_al<std::allocator<std::basic_string<char,std::char_traits<char>,std::allocator<char> > > >
PUBLIC	??1?$_Uninitialized_backout_al@V?$allocator@V?$basic_string@DU?$char_traits@D@std@@V?$allocator@D@2@@std@@@std@@@std@@QEAA@XZ ; std::_Uninitialized_backout_al<std::allocator<std::basic_string<char,std::char_traits<char>,std::allocator<char> > > >::~_Uninitialized_backout_al<std::allocator<std::basic_string<char,std::char_traits<char>,std::allocator<char> > > >
PUBLIC	?_Release@?$_Uninitialized_backout_al@V?$allocator@V?$basic_string@DU?$char_traits@D@std@@V?$allocator@D@2@@std@@@std@@@std@@QEAAPEAV?$basic_string@DU?$char_traits@D@std@@V?$allocator@D@2@@2@XZ ; std::_Uninitialized_backout_al<std::allocator<std::basic_string<char,std::char_traits<char>,std::allocator<char> > > >::_Release
PUBLIC	?__autoclassinit2@?$_Uninitialized_backout_al@V?$allocator@V?$basic_string@DU?$char_traits@D@std@@V?$allocator@D@2@@std@@@std@@@std@@QEAAX_K@Z ; std::_Uninitialized_backout_al<std::allocator<std::basic_string<char,std::char_traits<char>,std::allocator<char> > > >::__autoclassinit2
PUBLIC	??$_Emplace_back@AEBV?$basic_string@DU?$char_traits@D@std@@V?$allocator@D@2@@std@@@?$_Uninitialized_backout_al@V?$allocator@V?$basic_string@DU?$char_traits@D@std@@V?$allocator@D@2@@std@@@std@@@std@@QEAAXAEBV?$basic_string@DU?$char_traits@D@std@@V?$allocator@D@2@@1@@Z ; std::_Uninitialized_backout_al<std::allocator<std::basic_string<char,std::char_traits<char>,std::allocator<char> > > >::_Emplace_back<std::basic_string<char,std::char_traits<char>,std::allocator<char> > const &>
PUBLIC	??$addressof@Q6AHH@Z@std@@YAPEBQ6AHH@ZAEBQ6AHH@Z@Z ; std::addressof<int (__cdecl*const)(int)>
PUBLIC	??$_Call@AEAP6AHH@ZH@?$_Invoker_ret@H$0A@@std@@SAHAEAP6AHH@Z$$QEAH@Z ; std::_Invoker_ret<int,0>::_Call<int (__cdecl*&)(int),int>
PUBLIC	??$?0AEBQ6AHH@ZX@?$_Func_impl_no_alloc@P6AHH@ZHH@std@@QEAA@AEBQ6AHH@Z@Z ; std::_Func_impl_no_alloc<int (__cdecl*)(int),int,int>::_Func_impl_no_alloc<int (__cdecl*)(int),int,int><int (__cdecl*const &)(int),void>
PUBLIC	??$?0HH$0A@@?$pair@HH@std@@QEAA@$$QEAH0@Z	; std::pair<int,int>::pair<int,int><int,int,0>
PUBLIC	??$forward@AEBV?$basic_string@DU?$char_traits@D@std@@V?$allocator@D@2@@std@@@std@@YAAEBV?$basic_string@DU?$char_traits@D@std@@V?$allocator@D@2@@0@AEBV10@@Z ; std::forward<std::basic_string<char,std::char_traits<char>,std::allocator<char> > const &>
PUBLIC	??$construct@V?$basic_string@DU?$char_traits@D@std@@V?$allocator@D@2@@std@@AEBV12@@?$_Default_allocator_traits@V?$allocator@V?$basic_string@DU?$char_traits@D@std@@V?$allocator@D@2@@std@@@std@@@std@@SAXAEAV?$allocator@V?$basic_string@DU?$char_traits@D@std@@V?$allocator@D@2@@std@@@1@QEAV?$basic_string@DU?$char_traits@D@std@@V?$allocator@D@2@@1@AEBV31@@Z ; std::_Default_allocator_traits<std::allocator<std::basic_string<char,std::char_traits<char>,std::allocator<char> > > >::construct<std::basic_string<char,std::char_traits<char>,std::allocator<char> >,std::basic_string<char,std::char_traits<char>,std::allocator<char> > const &>
PUBLIC	??$forward@AEBQ6AHH@Z@std@@YAAEBQ6AHH@ZAEBQ6AHH@Z@Z ; std::forward<int (__cdecl*const &)(int)>
PUBLIC	??$forward@U_One_then_variadic_args_t@std@@@std@@YA$$QEAU_One_then_variadic_args_t@0@AEAU10@@Z ; std::forward<std::_One_then_variadic_args_t>
PUBLIC	__JustMyCode_Default
PUBLIC	??_7exception@std@@6B@				; std::exception::`vftable'
PUBLIC	??_C@_0BC@EOODALEL@Unknown?5exception@		; `string'
PUBLIC	??_7bad_alloc@std@@6B@				; std::bad_alloc::`vftable'
PUBLIC	??_7bad_array_new_length@std@@6B@		; std::bad_array_new_length::`vftable'
PUBLIC	??_C@_0BF@KINCDENJ@bad?5array?5new?5length@	; `string'
PUBLIC	_TI3?AVbad_array_new_length@std@@
PUBLIC	_CTA3?AVbad_array_new_length@std@@
PUBLIC	??_R0?AVbad_array_new_length@std@@@8		; std::bad_array_new_length `RTTI Type Descriptor'
PUBLIC	_CT??_R0?AVbad_array_new_length@std@@@8??0bad_array_new_length@std@@QEAA@AEBV01@@Z24
PUBLIC	??_R0?AVbad_alloc@std@@@8			; std::bad_alloc `RTTI Type Descriptor'
PUBLIC	_CT??_R0?AVbad_alloc@std@@@8??0bad_alloc@std@@QEAA@AEBV01@@Z24
PUBLIC	??_R0?AVexception@std@@@8			; std::exception `RTTI Type Descriptor'
PUBLIC	_CT??_R0?AVexception@std@@@8??0exception@std@@QEAA@AEBV01@@Z24
PUBLIC	?__LINE__Var@?0??_Adjust_manually_vector_aligned@std@@YAXAEAPEAXAEA_K@Z@4JA ; `std::_Adjust_manually_vector_aligned'::`1'::__LINE__Var
PUBLIC	??_C@_0BB@FCMFBGOM@invalid?5argument@		; `string'
PUBLIC	??_C@_02DKCKIIND@?$CFs@				; `string'
PUBLIC	??_C@_0GJ@ICFCEKIN@C?3?2Program?5Files?5?$CIx86?$CJ?2Microsof@ ; `string'
PUBLIC	??_C@_1NC@MGDJFDEK@?$AAC?$AA?3?$AA?2?$AAP?$AAr?$AAo?$AAg?$AAr?$AAa?$AAm?$AA?5?$AAF?$AAi?$AAl?$AAe@ ; `string'
PUBLIC	??_C@_1EK@NIFDJFDG@?$AAs?$AAt?$AAd?$AA?3?$AA?3?$AA_?$AAA?$AAd?$AAj?$AAu?$AAs?$AAt?$AA_?$AAm?$AAa@ ; `string'
PUBLIC	??_C@_1CG@JNLFBNGN@?$AA?$CC?$AAi?$AAn?$AAv?$AAa?$AAl?$AAi?$AAd?$AA?5?$AAa?$AAr?$AAg?$AAu?$AAm?$AAe@ ; `string'
PUBLIC	??_C@_0BJ@LFDBABJJ@ITERATOR?5LIST?5CORRUPTED?$CB@ ; `string'
PUBLIC	??_C@_1EE@KLDMFDFL@?$AAs?$AAt?$AAd?$AA?3?$AA?3?$AA_?$AAI?$AAt?$AAe?$AAr?$AAa?$AAt?$AAo?$AAr?$AA_@ ; `string'
PUBLIC	??_C@_1DG@PLBPCAEM@?$AA?$CC?$AAI?$AAT?$AAE?$AAR?$AAA?$AAT?$AAO?$AAR?$AA?5?$AAL?$AAI?$AAS?$AAT?$AA?5@ ; `string'
PUBLIC	??_C@_0BB@GCADKGJO@map?1set?5too?5long@		; `string'
PUBLIC	??_C@_01EEMJAFIK@?6@				; `string'
PUBLIC	??_C@_03HBABANP@bad@				; `string'
PUBLIC	??_C@_03KCGPGHOO@eof@				; `string'
PUBLIC	??_C@_09NIJGOEEN@bad?5?$HM?5eof@		; `string'
PUBLIC	??_C@_07DLHCIBDH@default@			; `string'
PUBLIC	??_C@_0O@EOIKCAP@print?5a?5class@		; `string'
PUBLIC	??_C@_06BDKMOJDJ@?$CKfoo?3?5@			; `string'
PUBLIC	??_C@_03ELFADMOK@c?3?5@				; `string'
PUBLIC	??_C@_0M@KMBPMLBI@use_count?3?6@		; `string'
PUBLIC	??_C@_04DEOADDAN@p1?3?5@			; `string'
PUBLIC	??_C@_04CGFFJMOD@p2?3?5@			; `string'
PUBLIC	??_C@_04JOOJPLIG@p3?3?5@			; `string'
PUBLIC	??_C@_04DDOMDDP@p4?3?5@				; `string'
PUBLIC	??_C@_04LLICKEFK@p5?3?5@			; `string'
PUBLIC	??_C@_04KJDHALLE@p6?3?5@			; `string'
PUBLIC	??_C@_04BBILGMNB@p7?3?5@			; `string'
PUBLIC	??_C@_04EJOIHMIH@p8?3?5@			; `string'
PUBLIC	??_C@_04PBFEBLOC@p9?3?5@			; `string'
PUBLIC	??_C@_06JFHOJKAM@?$CKbar?3?5@			; `string'
PUBLIC	??_C@_02KEGNLNML@?0?5@				; `string'
PUBLIC	??_C@_06FAMKLCOD@?$CKbaz?3?5@			; `string'
PUBLIC	??_C@_03EFKIOLOJ@123@				; `string'
PUBLIC	??_C@_04DOPHLGO@0123@				; `string'
PUBLIC	??_C@_04DOIPFCNO@1123@				; `string'
PUBLIC	??_C@_04HJCPCIAO@2123@				; `string'
PUBLIC	??_C@_04EEEPABLO@3123@				; `string'
PUBLIC	??_C@_01FJMABOPO@x@				; `string'
PUBLIC	??_C@_01EANLCPLP@y@				; `string'
PUBLIC	??_C@_0BD@ECGPPJNN@move?5before?5tokens@	; `string'
PUBLIC	??_C@_0BG@NEHMPCIM@?0?5tokens?5?$DN?$DN?5nullptr?$DP?5@ ; `string'
PUBLIC	??_C@_0BF@DFFNCPFL@move?5after?5tokens?3?$DN?5@	; `string'
PUBLIC	??_C@_04GKJNKENE@void@				; `string'
PUBLIC	??_C@_0N@EDMMFJHM@is?5construct@		; `string'
PUBLIC	??_C@_08KKIFNHHB@is?5moved@			; `string'
PUBLIC	??_C@_0N@LMOMINCN@?9?9?5insert?5?9?9@		; `string'
PUBLIC	??_C@_0O@IIDKFPKJ@?9?9?5emplace?5?9?9@		; `string'
PUBLIC	??_C@_0BD@LIPMEIJE@?9?9?5emplace_back?5?9?9@	; `string'
PUBLIC	??_C@_0BA@PKICDKCM@?9?9?5push?5back?5?9?9@	; `string'
PUBLIC	??_C@_02DFENNNBM@aa@				; `string'
PUBLIC	??_C@_08OEEDIDHM@shanghai@			; `string'
PUBLIC	??_C@_02BMCGDAIG@bb@				; `string'
PUBLIC	??_C@_07DDPHGKP@beijing@			; `string'
PUBLIC	??_C@_02EPPGLPA@cc@				; `string'
PUBLIC	??_C@_07LNNKHHEL@nanjing@			; `string'
PUBLIC	??_C@_02EOPBOLLC@dd@				; `string'
PUBLIC	??_C@_05DFCDELBA@fr?3?$DN?5@			; `string'
PUBLIC	??_C@_03GLEHJADO@w?3?$DN@			; `string'
PUBLIC	??_C@_06HBADBMJP@foo2?3?$DN@			; `string'
PUBLIC	??_R0H@8					; int `RTTI Type Descriptor'
PUBLIC	??_R0?AV?$basic_string@DU?$char_traits@D@std@@V?$allocator@D@2@@std@@@8 ; std::basic_string<char,std::char_traits<char>,std::allocator<char> > `RTTI Type Descriptor'
PUBLIC	??_R0J@8					; long `RTTI Type Descriptor'
PUBLIC	??_R0D@8					; char `RTTI Type Descriptor'
PUBLIC	??_R0N@8					; double `RTTI Type Descriptor'
PUBLIC	??_R0M@8					; float `RTTI Type Descriptor'
PUBLIC	??_R0_N@8					; bool `RTTI Type Descriptor'
PUBLIC	??_C@_03MNDEGCIG@xxx@				; `string'
PUBLIC	??_C@_0BO@PFKOHNJC@vector?5subscript?5out?5of?5range@ ; `string'
PUBLIC	??_C@_0GI@GNFKJBEL@C?3?2Program?5Files?5?$CIx86?$CJ?2Microsof@ ; `string'
PUBLIC	??_C@_1NA@GCNAHLKO@?$AAC?$AA?3?$AA?2?$AAP?$AAr?$AAo?$AAg?$AAr?$AAa?$AAm?$AA?5?$AAF?$AAi?$AAl?$AAe@ ; `string'
PUBLIC	??_C@_1BME@NCIPHHDN@?$AAs?$AAt?$AAd?$AA?3?$AA?3?$AAv?$AAe?$AAc?$AAt?$AAo?$AAr?$AA?$DM?$AAc?$AAl?$AAa@ ; `string'
PUBLIC	??_C@_1EA@LEKOKFNB@?$AA?$CC?$AAv?$AAe?$AAc?$AAt?$AAo?$AAr?$AA?5?$AAs?$AAu?$AAb?$AAs?$AAc?$AAr?$AAi@ ; `string'
PUBLIC	??_C@_0GK@FAHAKJIH@C?3?2Program?5Files?5?$CIx86?$CJ?2Microsof@ ; `string'
PUBLIC	??_7?$_Ref_count_obj2@H@std@@6B@		; std::_Ref_count_obj2<int>::`vftable'
PUBLIC	??_7?$_Ref_count@H@std@@6B@			; std::_Ref_count<int>::`vftable'
PUBLIC	??_7?$_Ref_count_resource@PEAHU?$default_delete@H@std@@@std@@6B@ ; std::_Ref_count_resource<int *,std::default_delete<int> >::`vftable'
PUBLIC	??_7?$_Ref_count_obj_alloc2@HV?$allocator@H@std@@@std@@6B@ ; std::_Ref_count_obj_alloc2<int,std::allocator<int> >::`vftable'
PUBLIC	??_7?$_Ref_count_obj_alloc2@U?$pair@HH@std@@V?$allocator@H@2@@std@@6B@ ; std::_Ref_count_obj_alloc2<std::pair<int,int>,std::allocator<int> >::`vftable'
PUBLIC	??_R0?AU?$default_delete@H@std@@@8		; std::default_delete<int> `RTTI Type Descriptor'
PUBLIC	??_C@_0BD@OLBABOEK@vector?$DMT?$DO?5too?5long@	; `string'
PUBLIC	??_C@_0BA@JFNIOLAK@string?5too?5long@		; `string'
PUBLIC	??_C@_1NE@PFDEEMPK@?$AAC?$AA?3?$AA?2?$AAP?$AAr?$AAo?$AAg?$AAr?$AAa?$AAm?$AA?5?$AAF?$AAi?$AAl?$AAe@ ; `string'
PUBLIC	??_C@_07IKDCELAH@lvalue?5@			; `string'
PUBLIC	??_C@_07ODADGIBO@rvalue?5@			; `string'
PUBLIC	??_C@_1EO@GFNCMDLA@?$AAs?$AAt?$AAd?$AA?3?$AA?3?$AA_?$AAA?$AAl?$AAl?$AAo?$AAc?$AAa?$AAt?$AAe?$AA_@ ; `string'
PUBLIC	??_7?$_Func_impl_no_alloc@P6AHH@ZHH@std@@6B@	; std::_Func_impl_no_alloc<int (__cdecl*)(int),int,int>::`vftable'
PUBLIC	??_R0P6AHH@Z@8					; int (__cdecl*)(int) `RTTI Type Descriptor'
PUBLIC	??_C@_0BD@FEEMDEPI@invalid?5comparator@		; `string'
PUBLIC	??_C@_1CI@JONCLBEJ@?$AAs?$AAt?$AAd?$AA?3?$AA?3?$AA_?$AAD?$AAe?$AAb?$AAu?$AAg?$AA_?$AAl?$AAt?$AA_@ ; `string'
PUBLIC	??_C@_1CK@NDNHPKPI@?$AA?$CC?$AAi?$AAn?$AAv?$AAa?$AAl?$AAi?$AAd?$AA?5?$AAc?$AAo?$AAm?$AAp?$AAa?$AAr@ ; `string'
PUBLIC	??_R4exception@std@@6B@				; std::exception::`RTTI Complete Object Locator'
PUBLIC	??_R3exception@std@@8				; std::exception::`RTTI Class Hierarchy Descriptor'
PUBLIC	??_R2exception@std@@8				; std::exception::`RTTI Base Class Array'
PUBLIC	??_R1A@?0A@EA@exception@std@@8			; std::exception::`RTTI Base Class Descriptor at (0,-1,0,64)'
PUBLIC	??_R4bad_alloc@std@@6B@				; std::bad_alloc::`RTTI Complete Object Locator'
PUBLIC	??_R3bad_alloc@std@@8				; std::bad_alloc::`RTTI Class Hierarchy Descriptor'
PUBLIC	??_R2bad_alloc@std@@8				; std::bad_alloc::`RTTI Base Class Array'
PUBLIC	??_R1A@?0A@EA@bad_alloc@std@@8			; std::bad_alloc::`RTTI Base Class Descriptor at (0,-1,0,64)'
PUBLIC	??_R4bad_array_new_length@std@@6B@		; std::bad_array_new_length::`RTTI Complete Object Locator'
PUBLIC	??_R3bad_array_new_length@std@@8		; std::bad_array_new_length::`RTTI Class Hierarchy Descriptor'
PUBLIC	??_R2bad_array_new_length@std@@8		; std::bad_array_new_length::`RTTI Base Class Array'
PUBLIC	??_R1A@?0A@EA@bad_array_new_length@std@@8	; std::bad_array_new_length::`RTTI Base Class Descriptor at (0,-1,0,64)'
PUBLIC	??_R0?AV_Ref_count_base@std@@@8			; std::_Ref_count_base `RTTI Type Descriptor'
PUBLIC	??_R3_Ref_count_base@std@@8			; std::_Ref_count_base::`RTTI Class Hierarchy Descriptor'
PUBLIC	??_R2_Ref_count_base@std@@8			; std::_Ref_count_base::`RTTI Base Class Array'
PUBLIC	??_R1A@?0A@EA@_Ref_count_base@std@@8		; std::_Ref_count_base::`RTTI Base Class Descriptor at (0,-1,0,64)'
PUBLIC	??_R0?AV?$_Func_base@HH@std@@@8			; std::_Func_base<int,int> `RTTI Type Descriptor'
PUBLIC	??_R3?$_Func_base@HH@std@@8			; std::_Func_base<int,int>::`RTTI Class Hierarchy Descriptor'
PUBLIC	??_R2?$_Func_base@HH@std@@8			; std::_Func_base<int,int>::`RTTI Base Class Array'
PUBLIC	??_R1A@?0A@EA@?$_Func_base@HH@std@@8		; std::_Func_base<int,int>::`RTTI Base Class Descriptor at (0,-1,0,64)'
PUBLIC	??_R4?$_Ref_count_obj2@H@std@@6B@		; std::_Ref_count_obj2<int>::`RTTI Complete Object Locator'
PUBLIC	??_R0?AV?$_Ref_count_obj2@H@std@@@8		; std::_Ref_count_obj2<int> `RTTI Type Descriptor'
PUBLIC	??_R3?$_Ref_count_obj2@H@std@@8			; std::_Ref_count_obj2<int>::`RTTI Class Hierarchy Descriptor'
PUBLIC	??_R2?$_Ref_count_obj2@H@std@@8			; std::_Ref_count_obj2<int>::`RTTI Base Class Array'
PUBLIC	??_R1A@?0A@EA@?$_Ref_count_obj2@H@std@@8	; std::_Ref_count_obj2<int>::`RTTI Base Class Descriptor at (0,-1,0,64)'
PUBLIC	??_R4?$_Ref_count@H@std@@6B@			; std::_Ref_count<int>::`RTTI Complete Object Locator'
PUBLIC	??_R0?AV?$_Ref_count@H@std@@@8			; std::_Ref_count<int> `RTTI Type Descriptor'
PUBLIC	??_R3?$_Ref_count@H@std@@8			; std::_Ref_count<int>::`RTTI Class Hierarchy Descriptor'
PUBLIC	??_R2?$_Ref_count@H@std@@8			; std::_Ref_count<int>::`RTTI Base Class Array'
PUBLIC	??_R1A@?0A@EA@?$_Ref_count@H@std@@8		; std::_Ref_count<int>::`RTTI Base Class Descriptor at (0,-1,0,64)'
PUBLIC	??_R4?$_Ref_count_resource@PEAHU?$default_delete@H@std@@@std@@6B@ ; std::_Ref_count_resource<int *,std::default_delete<int> >::`RTTI Complete Object Locator'
PUBLIC	??_R0?AV?$_Ref_count_resource@PEAHU?$default_delete@H@std@@@std@@@8 ; std::_Ref_count_resource<int *,std::default_delete<int> > `RTTI Type Descriptor'
PUBLIC	??_R3?$_Ref_count_resource@PEAHU?$default_delete@H@std@@@std@@8 ; std::_Ref_count_resource<int *,std::default_delete<int> >::`RTTI Class Hierarchy Descriptor'
PUBLIC	??_R2?$_Ref_count_resource@PEAHU?$default_delete@H@std@@@std@@8 ; std::_Ref_count_resource<int *,std::default_delete<int> >::`RTTI Base Class Array'
PUBLIC	??_R1A@?0A@EA@?$_Ref_count_resource@PEAHU?$default_delete@H@std@@@std@@8 ; std::_Ref_count_resource<int *,std::default_delete<int> >::`RTTI Base Class Descriptor at (0,-1,0,64)'
PUBLIC	??_R4?$_Ref_count_obj_alloc2@HV?$allocator@H@std@@@std@@6B@ ; std::_Ref_count_obj_alloc2<int,std::allocator<int> >::`RTTI Complete Object Locator'
PUBLIC	??_R0?AV?$_Ref_count_obj_alloc2@HV?$allocator@H@std@@@std@@@8 ; std::_Ref_count_obj_alloc2<int,std::allocator<int> > `RTTI Type Descriptor'
PUBLIC	??_R3?$_Ref_count_obj_alloc2@HV?$allocator@H@std@@@std@@8 ; std::_Ref_count_obj_alloc2<int,std::allocator<int> >::`RTTI Class Hierarchy Descriptor'
PUBLIC	??_R2?$_Ref_count_obj_alloc2@HV?$allocator@H@std@@@std@@8 ; std::_Ref_count_obj_alloc2<int,std::allocator<int> >::`RTTI Base Class Array'
PUBLIC	??_R1A@?0A@EA@?$_Ref_count_obj_alloc2@HV?$allocator@H@std@@@std@@8 ; std::_Ref_count_obj_alloc2<int,std::allocator<int> >::`RTTI Base Class Descriptor at (0,-1,0,64)'
PUBLIC	??_R1A@?0A@EA@?$_Ebco_base@V?$allocator@H@std@@$00@std@@8 ; std::_Ebco_base<std::allocator<int>,1>::`RTTI Base Class Descriptor at (0,-1,0,64)'
PUBLIC	??_R0?AV?$_Ebco_base@V?$allocator@H@std@@$00@std@@@8 ; std::_Ebco_base<std::allocator<int>,1> `RTTI Type Descriptor'
PUBLIC	??_R3?$_Ebco_base@V?$allocator@H@std@@$00@std@@8 ; std::_Ebco_base<std::allocator<int>,1>::`RTTI Class Hierarchy Descriptor'
PUBLIC	??_R2?$_Ebco_base@V?$allocator@H@std@@$00@std@@8 ; std::_Ebco_base<std::allocator<int>,1>::`RTTI Base Class Array'
PUBLIC	??_R1A@?0A@EN@?$allocator@H@std@@8		; std::allocator<int>::`RTTI Base Class Descriptor at (0,-1,0,77)'
PUBLIC	??_R0?AV?$allocator@H@std@@@8			; std::allocator<int> `RTTI Type Descriptor'
PUBLIC	??_R3?$allocator@H@std@@8			; std::allocator<int>::`RTTI Class Hierarchy Descriptor'
PUBLIC	??_R2?$allocator@H@std@@8			; std::allocator<int>::`RTTI Base Class Array'
PUBLIC	??_R1A@?0A@EA@?$allocator@H@std@@8		; std::allocator<int>::`RTTI Base Class Descriptor at (0,-1,0,64)'
PUBLIC	??_R4?$_Ref_count_obj_alloc2@U?$pair@HH@std@@V?$allocator@H@2@@std@@6B@ ; std::_Ref_count_obj_alloc2<std::pair<int,int>,std::allocator<int> >::`RTTI Complete Object Locator'
PUBLIC	??_R0?AV?$_Ref_count_obj_alloc2@U?$pair@HH@std@@V?$allocator@H@2@@std@@@8 ; std::_Ref_count_obj_alloc2<std::pair<int,int>,std::allocator<int> > `RTTI Type Descriptor'
PUBLIC	??_R3?$_Ref_count_obj_alloc2@U?$pair@HH@std@@V?$allocator@H@2@@std@@8 ; std::_Ref_count_obj_alloc2<std::pair<int,int>,std::allocator<int> >::`RTTI Class Hierarchy Descriptor'
PUBLIC	??_R2?$_Ref_count_obj_alloc2@U?$pair@HH@std@@V?$allocator@H@2@@std@@8 ; std::_Ref_count_obj_alloc2<std::pair<int,int>,std::allocator<int> >::`RTTI Base Class Array'
PUBLIC	??_R1A@?0A@EA@?$_Ref_count_obj_alloc2@U?$pair@HH@std@@V?$allocator@H@2@@std@@8 ; std::_Ref_count_obj_alloc2<std::pair<int,int>,std::allocator<int> >::`RTTI Base Class Descriptor at (0,-1,0,64)'
PUBLIC	??_R4?$_Func_impl_no_alloc@P6AHH@ZHH@std@@6B@	; std::_Func_impl_no_alloc<int (__cdecl*)(int),int,int>::`RTTI Complete Object Locator'
PUBLIC	??_R0?AV?$_Func_impl_no_alloc@P6AHH@ZHH@std@@@8	; std::_Func_impl_no_alloc<int (__cdecl*)(int),int,int> `RTTI Type Descriptor'
PUBLIC	??_R3?$_Func_impl_no_alloc@P6AHH@ZHH@std@@8	; std::_Func_impl_no_alloc<int (__cdecl*)(int),int,int>::`RTTI Class Hierarchy Descriptor'
PUBLIC	??_R2?$_Func_impl_no_alloc@P6AHH@ZHH@std@@8	; std::_Func_impl_no_alloc<int (__cdecl*)(int),int,int>::`RTTI Base Class Array'
PUBLIC	??_R1A@?0A@EA@?$_Func_impl_no_alloc@P6AHH@ZHH@std@@8 ; std::_Func_impl_no_alloc<int (__cdecl*)(int),int,int>::`RTTI Base Class Descriptor at (0,-1,0,64)'
PUBLIC	__real@4000000000000000
EXTRN	??_M@YAXPEAX_K1P6AX0@Z@Z:PROC			; `eh vector destructor iterator'
EXTRN	??2@YAPEAX_K@Z:PROC				; operator new
EXTRN	??3@YAXPEAX_K@Z:PROC				; operator delete
EXTRN	atexit:PROC
EXTRN	__imp__invalid_parameter:PROC
EXTRN	__imp__CrtDbgReport:PROC
EXTRN	__imp_??0_Lockit@std@@QEAA@H@Z:PROC
EXTRN	__imp_??1_Lockit@std@@QEAA@XZ:PROC
EXTRN	?uncaught_exception@std@@YA_NXZ:PROC		; std::uncaught_exception
EXTRN	__std_exception_copy:PROC
EXTRN	__std_exception_destroy:PROC
EXTRN	??_Eexception@std@@UEAAPEAXI@Z:PROC		; std::exception::`vector deleting destructor'
EXTRN	??_Ebad_alloc@std@@UEAAPEAXI@Z:PROC		; std::bad_alloc::`vector deleting destructor'
EXTRN	??_Ebad_array_new_length@std@@UEAAPEAXI@Z:PROC	; std::bad_array_new_length::`vector deleting destructor'
EXTRN	memcpy:PROC
EXTRN	memmove:PROC
EXTRN	?_Xlength_error@std@@YAXPEBD@Z:PROC		; std::_Xlength_error
EXTRN	__std_type_info_compare:PROC
EXTRN	__imp_?good@ios_base@std@@QEBA_NXZ:PROC
EXTRN	__imp_?flags@ios_base@std@@QEBAHXZ:PROC
EXTRN	__imp_?width@ios_base@std@@QEBA_JXZ:PROC
EXTRN	__imp_?width@ios_base@std@@QEAA_J_J@Z:PROC
EXTRN	__imp_?sputc@?$basic_streambuf@DU?$char_traits@D@std@@@std@@QEAAHD@Z:PROC
EXTRN	__imp_?sputn@?$basic_streambuf@DU?$char_traits@D@std@@@std@@QEAA_JPEBD_J@Z:PROC
EXTRN	__imp_?setstate@?$basic_ios@DU?$char_traits@D@std@@@std@@QEAAXH_N@Z:PROC
EXTRN	__imp_?tie@?$basic_ios@DU?$char_traits@D@std@@@std@@QEBAPEAV?$basic_ostream@DU?$char_traits@D@std@@@2@XZ:PROC
EXTRN	__imp_?rdbuf@?$basic_ios@DU?$char_traits@D@std@@@std@@QEBAPEAV?$basic_streambuf@DU?$char_traits@D@std@@@2@XZ:PROC
EXTRN	__imp_?fill@?$basic_ios@DU?$char_traits@D@std@@@std@@QEBADXZ:PROC
EXTRN	__imp_?widen@?$basic_ios@DU?$char_traits@D@std@@@std@@QEBADD@Z:PROC
EXTRN	__imp_?_Osfx@?$basic_ostream@DU?$char_traits@D@std@@@std@@QEAAXXZ:PROC
EXTRN	__imp_??6?$basic_ostream@DU?$char_traits@D@std@@@std@@QEAAAEAV01@P6AAEAV01@AEAV01@@Z@Z:PROC
EXTRN	__imp_??6?$basic_ostream@DU?$char_traits@D@std@@@std@@QEAAAEAV01@_N@Z:PROC
EXTRN	__imp_??6?$basic_ostream@DU?$char_traits@D@std@@@std@@QEAAAEAV01@H@Z:PROC
EXTRN	__imp_??6?$basic_ostream@DU?$char_traits@D@std@@@std@@QEAAAEAV01@J@Z:PROC
EXTRN	__imp_??6?$basic_ostream@DU?$char_traits@D@std@@@std@@QEAAAEAV01@_K@Z:PROC
EXTRN	__imp_??6?$basic_ostream@DU?$char_traits@D@std@@@std@@QEAAAEAV01@PEBX@Z:PROC
EXTRN	__imp_?put@?$basic_ostream@DU?$char_traits@D@std@@@std@@QEAAAEAV12@D@Z:PROC
EXTRN	__imp_?flush@?$basic_ostream@DU?$char_traits@D@std@@@std@@QEAAAEAV12@XZ:PROC
EXTRN	?_Xbad_function_call@std@@YAXXZ:PROC		; std::_Xbad_function_call
EXTRN	??_E?$_Ref_count_obj2@H@std@@UEAAPEAXI@Z:PROC	; std::_Ref_count_obj2<int>::`vector deleting destructor'
EXTRN	??_E?$_Ref_count@H@std@@UEAAPEAXI@Z:PROC	; std::_Ref_count<int>::`vector deleting destructor'
EXTRN	??_E?$_Ref_count_resource@PEAHU?$default_delete@H@std@@@std@@UEAAPEAXI@Z:PROC ; std::_Ref_count_resource<int *,std::default_delete<int> >::`vector deleting destructor'
EXTRN	??_E?$_Ref_count_obj_alloc2@HV?$allocator@H@std@@@std@@EEAAPEAXI@Z:PROC ; std::_Ref_count_obj_alloc2<int,std::allocator<int> >::`vector deleting destructor'
EXTRN	??_E?$_Ref_count_obj_alloc2@U?$pair@HH@std@@V?$allocator@H@2@@std@@EEAAPEAXI@Z:PROC ; std::_Ref_count_obj_alloc2<std::pair<int,int>,std::allocator<int> >::`vector deleting destructor'
EXTRN	_CxxThrowException:PROC
EXTRN	_RTC_CheckStackVars:PROC
EXTRN	_RTC_InitBase:PROC
EXTRN	_RTC_Shutdown:PROC
EXTRN	__CheckForDebuggerJustMyCode:PROC
EXTRN	__CxxFrameHandler4:PROC
EXTRN	__GSHandlerCheck:PROC
EXTRN	__GSHandlerCheck_EH4:PROC
EXTRN	__security_check_cookie:PROC
EXTRN	??_7type_info@@6B@:BYTE				; type_info::`vftable'
EXTRN	__imp_?cout@std@@3V?$basic_ostream@DU?$char_traits@D@std@@@1@A:BYTE
EXTRN	__security_cookie:QWORD
EXTRN	_fltused:DWORD
_BSS	SEGMENT
?vt@?A0x8e55e522@@3V?$vector@UPerson@?A0x8e55e522@@V?$allocator@UPerson@?A0x8e55e522@@@std@@@std@@A DB 020H DUP (?) ; `anonymous namespace'::vt
_BSS	ENDS
;	COMDAT pdata
pdata	SEGMENT
$pdata$?__empty_global_delete@@YAXPEAX@Z DD imagerel $LN3
	DD	imagerel $LN3+65
	DD	imagerel $unwind$?__empty_global_delete@@YAXPEAX@Z
pdata	ENDS
;	COMDAT pdata
pdata	SEGMENT
$pdata$?__empty_global_delete@@YAXPEAX_K@Z DD imagerel $LN3
	DD	imagerel $LN3+70
	DD	imagerel $unwind$?__empty_global_delete@@YAXPEAX_K@Z
pdata	ENDS
;	COMDAT pdata
pdata	SEGMENT
$pdata$?__empty_global_delete@@YAXPEAXW4align_val_t@std@@@Z DD imagerel $LN3
	DD	imagerel $LN3+70
	DD	imagerel $unwind$?__empty_global_delete@@YAXPEAXW4align_val_t@std@@@Z
pdata	ENDS
;	COMDAT pdata
pdata	SEGMENT
$pdata$?__empty_global_delete@@YAXPEAX_KW4align_val_t@std@@@Z DD imagerel $LN3
	DD	imagerel $LN3+75
	DD	imagerel $unwind$?__empty_global_delete@@YAXPEAX_KW4align_val_t@std@@@Z
pdata	ENDS
;	COMDAT pdata
pdata	SEGMENT
$pdata$?run@cpp11@@QEAAXXZ DD imagerel $LN3
	DD	imagerel $LN3+76
	DD	imagerel $unwind$?run@cpp11@@QEAAXXZ
pdata	ENDS
;	COMDAT pdata
pdata	SEGMENT
$pdata$?LambdaFunc@cpp11@@AEAAXXZ DD imagerel $LN3
	DD	imagerel $LN3+133
	DD	imagerel $unwind$?LambdaFunc@cpp11@@AEAAXXZ
pdata	ENDS
;	COMDAT pdata
pdata	SEGMENT
$pdata$?SharedPtrFunc@cpp11@@AEAAXXZ DD imagerel $LN17
	DD	imagerel $LN17+1870
	DD	imagerel $unwind$?SharedPtrFunc@cpp11@@AEAAXXZ
pdata	ENDS
;	COMDAT pdata
pdata	SEGMENT
$pdata$?dtor$0@?0??SharedPtrFunc@cpp11@@AEAAXXZ@4HA DD imagerel ?dtor$0@?0??SharedPtrFunc@cpp11@@AEAAXXZ@4HA
	DD	imagerel ?dtor$0@?0??SharedPtrFunc@cpp11@@AEAAXXZ@4HA+36
	DD	imagerel $unwind$?dtor$0@?0??SharedPtrFunc@cpp11@@AEAAXXZ@4HA
pdata	ENDS
;	COMDAT pdata
pdata	SEGMENT
$pdata$?dtor$1@?0??SharedPtrFunc@cpp11@@AEAAXXZ@4HA DD imagerel ?dtor$1@?0??SharedPtrFunc@cpp11@@AEAAXXZ@4HA
	DD	imagerel ?dtor$1@?0??SharedPtrFunc@cpp11@@AEAAXXZ@4HA+36
	DD	imagerel $unwind$?dtor$1@?0??SharedPtrFunc@cpp11@@AEAAXXZ@4HA
pdata	ENDS
;	COMDAT pdata
pdata	SEGMENT
$pdata$?dtor$2@?0??SharedPtrFunc@cpp11@@AEAAXXZ@4HA DD imagerel ?dtor$2@?0??SharedPtrFunc@cpp11@@AEAAXXZ@4HA
	DD	imagerel ?dtor$2@?0??SharedPtrFunc@cpp11@@AEAAXXZ@4HA+36
	DD	imagerel $unwind$?dtor$2@?0??SharedPtrFunc@cpp11@@AEAAXXZ@4HA
pdata	ENDS
;	COMDAT pdata
pdata	SEGMENT
$pdata$?dtor$3@?0??SharedPtrFunc@cpp11@@AEAAXXZ@4HA DD imagerel ?dtor$3@?0??SharedPtrFunc@cpp11@@AEAAXXZ@4HA
	DD	imagerel ?dtor$3@?0??SharedPtrFunc@cpp11@@AEAAXXZ@4HA+39
	DD	imagerel $unwind$?dtor$3@?0??SharedPtrFunc@cpp11@@AEAAXXZ@4HA
pdata	ENDS
;	COMDAT pdata
pdata	SEGMENT
$pdata$?dtor$4@?0??SharedPtrFunc@cpp11@@AEAAXXZ@4HA DD imagerel ?dtor$4@?0??SharedPtrFunc@cpp11@@AEAAXXZ@4HA
	DD	imagerel ?dtor$4@?0??SharedPtrFunc@cpp11@@AEAAXXZ@4HA+39
	DD	imagerel $unwind$?dtor$4@?0??SharedPtrFunc@cpp11@@AEAAXXZ@4HA
pdata	ENDS
;	COMDAT pdata
pdata	SEGMENT
$pdata$?dtor$5@?0??SharedPtrFunc@cpp11@@AEAAXXZ@4HA DD imagerel ?dtor$5@?0??SharedPtrFunc@cpp11@@AEAAXXZ@4HA
	DD	imagerel ?dtor$5@?0??SharedPtrFunc@cpp11@@AEAAXXZ@4HA+39
	DD	imagerel $unwind$?dtor$5@?0??SharedPtrFunc@cpp11@@AEAAXXZ@4HA
pdata	ENDS
;	COMDAT pdata
pdata	SEGMENT
$pdata$?dtor$6@?0??SharedPtrFunc@cpp11@@AEAAXXZ@4HA DD imagerel ?dtor$6@?0??SharedPtrFunc@cpp11@@AEAAXXZ@4HA
	DD	imagerel ?dtor$6@?0??SharedPtrFunc@cpp11@@AEAAXXZ@4HA+39
	DD	imagerel $unwind$?dtor$6@?0??SharedPtrFunc@cpp11@@AEAAXXZ@4HA
pdata	ENDS
;	COMDAT pdata
pdata	SEGMENT
$pdata$?dtor$7@?0??SharedPtrFunc@cpp11@@AEAAXXZ@4HA DD imagerel ?dtor$7@?0??SharedPtrFunc@cpp11@@AEAAXXZ@4HA
	DD	imagerel ?dtor$7@?0??SharedPtrFunc@cpp11@@AEAAXXZ@4HA+39
	DD	imagerel $unwind$?dtor$7@?0??SharedPtrFunc@cpp11@@AEAAXXZ@4HA
pdata	ENDS
;	COMDAT pdata
pdata	SEGMENT
$pdata$?dtor$8@?0??SharedPtrFunc@cpp11@@AEAAXXZ@4HA DD imagerel ?dtor$8@?0??SharedPtrFunc@cpp11@@AEAAXXZ@4HA
	DD	imagerel ?dtor$8@?0??SharedPtrFunc@cpp11@@AEAAXXZ@4HA+39
	DD	imagerel $unwind$?dtor$8@?0??SharedPtrFunc@cpp11@@AEAAXXZ@4HA
pdata	ENDS
;	COMDAT pdata
pdata	SEGMENT
$pdata$?dtor$9@?0??SharedPtrFunc@cpp11@@AEAAXXZ@4HA DD imagerel ?dtor$9@?0??SharedPtrFunc@cpp11@@AEAAXXZ@4HA
	DD	imagerel ?dtor$9@?0??SharedPtrFunc@cpp11@@AEAAXXZ@4HA+39
	DD	imagerel $unwind$?dtor$9@?0??SharedPtrFunc@cpp11@@AEAAXXZ@4HA
pdata	ENDS
;	COMDAT pdata
pdata	SEGMENT
$pdata$?dtor$10@?0??SharedPtrFunc@cpp11@@AEAAXXZ@4HA DD imagerel ?dtor$10@?0??SharedPtrFunc@cpp11@@AEAAXXZ@4HA
	DD	imagerel ?dtor$10@?0??SharedPtrFunc@cpp11@@AEAAXXZ@4HA+39
	DD	imagerel $unwind$?dtor$10@?0??SharedPtrFunc@cpp11@@AEAAXXZ@4HA
pdata	ENDS
;	COMDAT pdata
pdata	SEGMENT
$pdata$?dtor$11@?0??SharedPtrFunc@cpp11@@AEAAXXZ@4HA DD imagerel ?dtor$11@?0??SharedPtrFunc@cpp11@@AEAAXXZ@4HA
	DD	imagerel ?dtor$11@?0??SharedPtrFunc@cpp11@@AEAAXXZ@4HA+39
	DD	imagerel $unwind$?dtor$11@?0??SharedPtrFunc@cpp11@@AEAAXXZ@4HA
pdata	ENDS
;	COMDAT pdata
pdata	SEGMENT
$pdata$?dtor$12@?0??SharedPtrFunc@cpp11@@AEAAXXZ@4HA DD imagerel ?dtor$12@?0??SharedPtrFunc@cpp11@@AEAAXXZ@4HA
	DD	imagerel ?dtor$12@?0??SharedPtrFunc@cpp11@@AEAAXXZ@4HA+39
	DD	imagerel $unwind$?dtor$12@?0??SharedPtrFunc@cpp11@@AEAAXXZ@4HA
pdata	ENDS
;	COMDAT pdata
pdata	SEGMENT
$pdata$?dtor$13@?0??SharedPtrFunc@cpp11@@AEAAXXZ@4HA DD imagerel ?dtor$13@?0??SharedPtrFunc@cpp11@@AEAAXXZ@4HA
	DD	imagerel ?dtor$13@?0??SharedPtrFunc@cpp11@@AEAAXXZ@4HA+39
	DD	imagerel $unwind$?dtor$13@?0??SharedPtrFunc@cpp11@@AEAAXXZ@4HA
pdata	ENDS
;	COMDAT pdata
pdata	SEGMENT
$pdata$?AllocatorFunc@cpp11@@AEAAXXZ DD imagerel $LN6
	DD	imagerel $LN6+644
	DD	imagerel $unwind$?AllocatorFunc@cpp11@@AEAAXXZ
pdata	ENDS
;	COMDAT pdata
pdata	SEGMENT
$pdata$?dtor$0@?0??AllocatorFunc@cpp11@@AEAAXXZ@4HA DD imagerel ?dtor$0@?0??AllocatorFunc@cpp11@@AEAAXXZ@4HA
	DD	imagerel ?dtor$0@?0??AllocatorFunc@cpp11@@AEAAXXZ@4HA+36
	DD	imagerel $unwind$?dtor$0@?0??AllocatorFunc@cpp11@@AEAAXXZ@4HA
pdata	ENDS
;	COMDAT pdata
pdata	SEGMENT
$pdata$?dtor$1@?0??AllocatorFunc@cpp11@@AEAAXXZ@4HA DD imagerel ?dtor$1@?0??AllocatorFunc@cpp11@@AEAAXXZ@4HA
	DD	imagerel ?dtor$1@?0??AllocatorFunc@cpp11@@AEAAXXZ@4HA+36
	DD	imagerel $unwind$?dtor$1@?0??AllocatorFunc@cpp11@@AEAAXXZ@4HA
pdata	ENDS
;	COMDAT pdata
pdata	SEGMENT
$pdata$?dtor$2@?0??AllocatorFunc@cpp11@@AEAAXXZ@4HA DD imagerel ?dtor$2@?0??AllocatorFunc@cpp11@@AEAAXXZ@4HA
	DD	imagerel ?dtor$2@?0??AllocatorFunc@cpp11@@AEAAXXZ@4HA+39
	DD	imagerel $unwind$?dtor$2@?0??AllocatorFunc@cpp11@@AEAAXXZ@4HA
pdata	ENDS
;	COMDAT pdata
pdata	SEGMENT
$pdata$?AttributesFunc@cpp11@@AEAAXXZ DD imagerel $LN16
	DD	imagerel $LN16+532
	DD	imagerel $unwind$?AttributesFunc@cpp11@@AEAAXXZ
pdata	ENDS
;	COMDAT pdata
pdata	SEGMENT
$pdata$?dtor$0@?0??AttributesFunc@cpp11@@AEAAXXZ@4HA DD imagerel ?dtor$0@?0??AttributesFunc@cpp11@@AEAAXXZ@4HA
	DD	imagerel ?dtor$0@?0??AttributesFunc@cpp11@@AEAAXXZ@4HA+39
	DD	imagerel $unwind$?dtor$0@?0??AttributesFunc@cpp11@@AEAAXXZ@4HA
pdata	ENDS
;	COMDAT pdata
pdata	SEGMENT
$pdata$?dtor$1@?0??AttributesFunc@cpp11@@AEAAXXZ@4HA DD imagerel ?dtor$1@?0??AttributesFunc@cpp11@@AEAAXXZ@4HA
	DD	imagerel ?dtor$1@?0??AttributesFunc@cpp11@@AEAAXXZ@4HA+39
	DD	imagerel $unwind$?dtor$1@?0??AttributesFunc@cpp11@@AEAAXXZ@4HA
pdata	ENDS
;	COMDAT pdata
pdata	SEGMENT
$pdata$?dtor$2@?0??AttributesFunc@cpp11@@AEAAXXZ@4HA DD imagerel ?dtor$2@?0??AttributesFunc@cpp11@@AEAAXXZ@4HA
	DD	imagerel ?dtor$2@?0??AttributesFunc@cpp11@@AEAAXXZ@4HA+39
	DD	imagerel $unwind$?dtor$2@?0??AttributesFunc@cpp11@@AEAAXXZ@4HA
pdata	ENDS
;	COMDAT pdata
pdata	SEGMENT
$pdata$?dtor$3@?0??AttributesFunc@cpp11@@AEAAXXZ@4HA DD imagerel ?dtor$3@?0??AttributesFunc@cpp11@@AEAAXXZ@4HA
	DD	imagerel ?dtor$3@?0??AttributesFunc@cpp11@@AEAAXXZ@4HA+39
	DD	imagerel $unwind$?dtor$3@?0??AttributesFunc@cpp11@@AEAAXXZ@4HA
pdata	ENDS
;	COMDAT pdata
pdata	SEGMENT
$pdata$?dtor$5@?0??AttributesFunc@cpp11@@AEAAXXZ@4HA DD imagerel ?dtor$5@?0??AttributesFunc@cpp11@@AEAAXXZ@4HA
	DD	imagerel ?dtor$5@?0??AttributesFunc@cpp11@@AEAAXXZ@4HA+57
	DD	imagerel $unwind$?dtor$5@?0??AttributesFunc@cpp11@@AEAAXXZ@4HA
pdata	ENDS
;	COMDAT pdata
pdata	SEGMENT
$pdata$?dtor$6@?0??AttributesFunc@cpp11@@AEAAXXZ@4HA DD imagerel ?dtor$6@?0??AttributesFunc@cpp11@@AEAAXXZ@4HA
	DD	imagerel ?dtor$6@?0??AttributesFunc@cpp11@@AEAAXXZ@4HA+36
	DD	imagerel $unwind$?dtor$6@?0??AttributesFunc@cpp11@@AEAAXXZ@4HA
pdata	ENDS
;	COMDAT pdata
pdata	SEGMENT
$pdata$?MoveFunc@cpp11@@AEAAXXZ DD imagerel $LN8
	DD	imagerel $LN8+608
	DD	imagerel $unwind$?MoveFunc@cpp11@@AEAAXXZ
pdata	ENDS
;	COMDAT pdata
pdata	SEGMENT
$pdata$?dtor$0@?0??MoveFunc@cpp11@@AEAAXXZ@4HA DD imagerel ?dtor$0@?0??MoveFunc@cpp11@@AEAAXXZ@4HA
	DD	imagerel ?dtor$0@?0??MoveFunc@cpp11@@AEAAXXZ@4HA+39
	DD	imagerel $unwind$?dtor$0@?0??MoveFunc@cpp11@@AEAAXXZ@4HA
pdata	ENDS
;	COMDAT pdata
pdata	SEGMENT
$pdata$?dtor$2@?0??MoveFunc@cpp11@@AEAAXXZ@4HA DD imagerel ?dtor$2@?0??MoveFunc@cpp11@@AEAAXXZ@4HA
	DD	imagerel ?dtor$2@?0??MoveFunc@cpp11@@AEAAXXZ@4HA+57
	DD	imagerel $unwind$?dtor$2@?0??MoveFunc@cpp11@@AEAAXXZ@4HA
pdata	ENDS
;	COMDAT pdata
pdata	SEGMENT
$pdata$?dtor$3@?0??MoveFunc@cpp11@@AEAAXXZ@4HA DD imagerel ?dtor$3@?0??MoveFunc@cpp11@@AEAAXXZ@4HA
	DD	imagerel ?dtor$3@?0??MoveFunc@cpp11@@AEAAXXZ@4HA+36
	DD	imagerel $unwind$?dtor$3@?0??MoveFunc@cpp11@@AEAAXXZ@4HA
pdata	ENDS
;	COMDAT pdata
pdata	SEGMENT
$pdata$?dtor$4@?0??MoveFunc@cpp11@@AEAAXXZ@4HA DD imagerel ?dtor$4@?0??MoveFunc@cpp11@@AEAAXXZ@4HA
	DD	imagerel ?dtor$4@?0??MoveFunc@cpp11@@AEAAXXZ@4HA+36
	DD	imagerel $unwind$?dtor$4@?0??MoveFunc@cpp11@@AEAAXXZ@4HA
pdata	ENDS
;	COMDAT pdata
pdata	SEGMENT
$pdata$?ForwardFunc@cpp11@@AEAAXXZ DD imagerel $LN3
	DD	imagerel $LN3+167
	DD	imagerel $unwind$?ForwardFunc@cpp11@@AEAAXXZ
pdata	ENDS
;	COMDAT pdata
pdata	SEGMENT
$pdata$?ForwardFunc2@cpp11@@AEAAXXZ DD imagerel $LN3
	DD	imagerel $LN3+88
	DD	imagerel $unwind$?ForwardFunc2@cpp11@@AEAAXXZ
pdata	ENDS
;	COMDAT pdata
pdata	SEGMENT
$pdata$?EmplaceFunc@cpp11@@AEAAXXZ DD imagerel $LN15
	DD	imagerel $LN15+992
	DD	imagerel $unwind$?EmplaceFunc@cpp11@@AEAAXXZ
pdata	ENDS
;	COMDAT pdata
pdata	SEGMENT
$pdata$?dtor$0@?0??EmplaceFunc@cpp11@@AEAAXXZ@4HA DD imagerel ?dtor$0@?0??EmplaceFunc@cpp11@@AEAAXXZ@4HA
	DD	imagerel ?dtor$0@?0??EmplaceFunc@cpp11@@AEAAXXZ@4HA+36
	DD	imagerel $unwind$?dtor$0@?0??EmplaceFunc@cpp11@@AEAAXXZ@4HA
pdata	ENDS
;	COMDAT pdata
pdata	SEGMENT
$pdata$?dtor$2@?0??EmplaceFunc@cpp11@@AEAAXXZ@4HA DD imagerel ?dtor$2@?0??EmplaceFunc@cpp11@@AEAAXXZ@4HA
	DD	imagerel ?dtor$2@?0??EmplaceFunc@cpp11@@AEAAXXZ@4HA+39
	DD	imagerel $unwind$?dtor$2@?0??EmplaceFunc@cpp11@@AEAAXXZ@4HA
pdata	ENDS
;	COMDAT pdata
pdata	SEGMENT
$pdata$?dtor$3@?0??EmplaceFunc@cpp11@@AEAAXXZ@4HA DD imagerel ?dtor$3@?0??EmplaceFunc@cpp11@@AEAAXXZ@4HA
	DD	imagerel ?dtor$3@?0??EmplaceFunc@cpp11@@AEAAXXZ@4HA+39
	DD	imagerel $unwind$?dtor$3@?0??EmplaceFunc@cpp11@@AEAAXXZ@4HA
pdata	ENDS
;	COMDAT pdata
pdata	SEGMENT
$pdata$?dtor$6@?0??EmplaceFunc@cpp11@@AEAAXXZ@4HA DD imagerel ?dtor$6@?0??EmplaceFunc@cpp11@@AEAAXXZ@4HA
	DD	imagerel ?dtor$6@?0??EmplaceFunc@cpp11@@AEAAXXZ@4HA+39
	DD	imagerel $unwind$?dtor$6@?0??EmplaceFunc@cpp11@@AEAAXXZ@4HA
pdata	ENDS
;	COMDAT pdata
pdata	SEGMENT
$pdata$?dtor$7@?0??EmplaceFunc@cpp11@@AEAAXXZ@4HA DD imagerel ?dtor$7@?0??EmplaceFunc@cpp11@@AEAAXXZ@4HA
	DD	imagerel ?dtor$7@?0??EmplaceFunc@cpp11@@AEAAXXZ@4HA+39
	DD	imagerel $unwind$?dtor$7@?0??EmplaceFunc@cpp11@@AEAAXXZ@4HA
pdata	ENDS
;	COMDAT pdata
pdata	SEGMENT
$pdata$?dtor$9@?0??EmplaceFunc@cpp11@@AEAAXXZ@4HA DD imagerel ?dtor$9@?0??EmplaceFunc@cpp11@@AEAAXXZ@4HA
	DD	imagerel ?dtor$9@?0??EmplaceFunc@cpp11@@AEAAXXZ@4HA+36
	DD	imagerel $unwind$?dtor$9@?0??EmplaceFunc@cpp11@@AEAAXXZ@4HA
pdata	ENDS
;	COMDAT pdata
pdata	SEGMENT
$pdata$?dtor$11@?0??EmplaceFunc@cpp11@@AEAAXXZ@4HA DD imagerel ?dtor$11@?0??EmplaceFunc@cpp11@@AEAAXXZ@4HA
	DD	imagerel ?dtor$11@?0??EmplaceFunc@cpp11@@AEAAXXZ@4HA+39
	DD	imagerel $unwind$?dtor$11@?0??EmplaceFunc@cpp11@@AEAAXXZ@4HA
pdata	ENDS
;	COMDAT pdata
pdata	SEGMENT
$pdata$?IsSameFunc@cpp11@@AEAAXXZ DD imagerel $LN3
	DD	imagerel $LN3+124
	DD	imagerel $unwind$?IsSameFunc@cpp11@@AEAAXXZ
pdata	ENDS
;	COMDAT pdata
pdata	SEGMENT
$pdata$?ResultOfFunc@cpp11@@AEAAXXZ DD imagerel $LN5
	DD	imagerel $LN5+467
	DD	imagerel $unwind$?ResultOfFunc@cpp11@@AEAAXXZ
pdata	ENDS
;	COMDAT pdata
pdata	SEGMENT
$pdata$?dtor$0@?0??ResultOfFunc@cpp11@@AEAAXXZ@4HA DD imagerel ?dtor$0@?0??ResultOfFunc@cpp11@@AEAAXXZ@4HA
	DD	imagerel ?dtor$0@?0??ResultOfFunc@cpp11@@AEAAXXZ@4HA+36
	DD	imagerel $unwind$?dtor$0@?0??ResultOfFunc@cpp11@@AEAAXXZ@4HA
pdata	ENDS
;	COMDAT pdata
pdata	SEGMENT
$pdata$?dtor$1@?0??ResultOfFunc@cpp11@@AEAAXXZ@4HA DD imagerel ?dtor$1@?0??ResultOfFunc@cpp11@@AEAAXXZ@4HA
	DD	imagerel ?dtor$1@?0??ResultOfFunc@cpp11@@AEAAXXZ@4HA+39
	DD	imagerel $unwind$?dtor$1@?0??ResultOfFunc@cpp11@@AEAAXXZ@4HA
pdata	ENDS
;	COMDAT pdata
pdata	SEGMENT
$pdata$?AnyFunc@cpp11@@AEAAXXZ DD imagerel $LN3
	DD	imagerel $LN3+386
	DD	imagerel $unwind$?AnyFunc@cpp11@@AEAAXXZ
pdata	ENDS
;	COMDAT pdata
pdata	SEGMENT
$pdata$?ClassConstMemberFunc@cpp11@@AEAAXXZ DD imagerel $LN3
	DD	imagerel $LN3+181
	DD	imagerel $unwind$?ClassConstMemberFunc@cpp11@@AEAAXXZ
pdata	ENDS
;	COMDAT pdata
pdata	SEGMENT
$pdata$??2@YAPEAX_KPEAX@Z DD imagerel $LN3
	DD	imagerel $LN3+77
	DD	imagerel $unwind$??2@YAPEAX_KPEAX@Z
pdata	ENDS
;	COMDAT pdata
pdata	SEGMENT
$pdata$??B?$integral_constant@_N$00@std@@QEBA_NXZ DD imagerel $LN3
	DD	imagerel $LN3+67
	DD	imagerel $unwind$??B?$integral_constant@_N$00@std@@QEBA_NXZ
pdata	ENDS
;	COMDAT pdata
pdata	SEGMENT
$pdata$??0exception@std@@QEAA@QEBDH@Z DD imagerel $LN3
	DD	imagerel $LN3+140
	DD	imagerel $unwind$??0exception@std@@QEAA@QEBDH@Z
pdata	ENDS
;	COMDAT pdata
pdata	SEGMENT
$pdata$??0exception@std@@QEAA@AEBV01@@Z DD imagerel $LN3
	DD	imagerel $LN3+148
	DD	imagerel $unwind$??0exception@std@@QEAA@AEBV01@@Z
pdata	ENDS
;	COMDAT pdata
pdata	SEGMENT
$pdata$??1exception@std@@UEAA@XZ DD imagerel $LN3
	DD	imagerel $LN3+102
	DD	imagerel $unwind$??1exception@std@@UEAA@XZ
pdata	ENDS
;	COMDAT pdata
pdata	SEGMENT
$pdata$?what@exception@std@@UEBAPEBDXZ DD imagerel $LN5
	DD	imagerel $LN5+119
	DD	imagerel $unwind$?what@exception@std@@UEBAPEBDXZ
pdata	ENDS
;	COMDAT pdata
pdata	SEGMENT
$pdata$??_Gexception@std@@UEAAPEAXI@Z DD imagerel $LN4
	DD	imagerel $LN4+105
	DD	imagerel $unwind$??_Gexception@std@@UEAAPEAXI@Z
pdata	ENDS
;	COMDAT pdata
pdata	SEGMENT
$pdata$??0bad_alloc@std@@AEAA@QEBD@Z DD imagerel $LN3
	DD	imagerel $LN3+120
	DD	imagerel $unwind$??0bad_alloc@std@@AEAA@QEBD@Z
pdata	ENDS
;	COMDAT pdata
pdata	SEGMENT
$pdata$??1bad_alloc@std@@UEAA@XZ DD imagerel $LN3
	DD	imagerel $LN3+64
	DD	imagerel $unwind$??1bad_alloc@std@@UEAA@XZ
pdata	ENDS
;	COMDAT pdata
pdata	SEGMENT
$pdata$??0bad_alloc@std@@QEAA@AEBV01@@Z DD imagerel $LN3
	DD	imagerel $LN3+100
	DD	imagerel $unwind$??0bad_alloc@std@@QEAA@AEBV01@@Z
pdata	ENDS
;	COMDAT pdata
pdata	SEGMENT
$pdata$??_Gbad_alloc@std@@UEAAPEAXI@Z DD imagerel $LN4
	DD	imagerel $LN4+105
	DD	imagerel $unwind$??_Gbad_alloc@std@@UEAAPEAXI@Z
pdata	ENDS
;	COMDAT pdata
pdata	SEGMENT
$pdata$??0bad_array_new_length@std@@QEAA@XZ DD imagerel $LN3
	DD	imagerel $LN3+109
	DD	imagerel $unwind$??0bad_array_new_length@std@@QEAA@XZ
pdata	ENDS
;	COMDAT pdata
pdata	SEGMENT
$pdata$??1bad_array_new_length@std@@UEAA@XZ DD imagerel $LN3
	DD	imagerel $LN3+64
	DD	imagerel $unwind$??1bad_array_new_length@std@@UEAA@XZ
pdata	ENDS
;	COMDAT pdata
pdata	SEGMENT
$pdata$??0bad_array_new_length@std@@QEAA@AEBV01@@Z DD imagerel $LN3
	DD	imagerel $LN3+100
	DD	imagerel $unwind$??0bad_array_new_length@std@@QEAA@AEBV01@@Z
pdata	ENDS
;	COMDAT pdata
pdata	SEGMENT
$pdata$??_Gbad_array_new_length@std@@UEAAPEAXI@Z DD imagerel $LN4
	DD	imagerel $LN4+105
	DD	imagerel $unwind$??_Gbad_array_new_length@std@@UEAAPEAXI@Z
pdata	ENDS
;	COMDAT pdata
pdata	SEGMENT
$pdata$?_Throw_bad_array_new_length@std@@YAXXZ DD imagerel $LN3
	DD	imagerel $LN3+83
	DD	imagerel $unwind$?_Throw_bad_array_new_length@std@@YAXXZ
pdata	ENDS
;	COMDAT pdata
pdata	SEGMENT
$pdata$?max@?$numeric_limits@_J@std@@SA_JXZ DD imagerel $LN3
	DD	imagerel $LN3+63
	DD	imagerel $unwind$?max@?$numeric_limits@_J@std@@SA_JXZ
pdata	ENDS
;	COMDAT pdata
pdata	SEGMENT
$pdata$?_Allocate@_Default_allocate_traits@std@@SAPEAX_K@Z DD imagerel $LN3
	DD	imagerel $LN3+76
	DD	imagerel $unwind$?_Allocate@_Default_allocate_traits@std@@SAPEAX_K@Z
pdata	ENDS
;	COMDAT pdata
pdata	SEGMENT
$pdata$?_Adjust_manually_vector_aligned@std@@YAXAEAPEAXAEA_K@Z DD imagerel $LN21
	DD	imagerel $LN21+476
	DD	imagerel $unwind$?_Adjust_manually_vector_aligned@std@@YAXAEAPEAXAEA_K@Z
pdata	ENDS
;	COMDAT pdata
pdata	SEGMENT
$pdata$??$_Convert_size@_K@std@@YA_K_K@Z DD imagerel $LN3
	DD	imagerel $LN3+72
	DD	imagerel $unwind$??$_Convert_size@_K@std@@YA_K_K@Z
pdata	ENDS
;	COMDAT pdata
pdata	SEGMENT
$pdata$??0_Container_proxy@std@@QEAA@PEAU_Container_base12@1@@Z DD imagerel $LN3
	DD	imagerel $LN3+109
	DD	imagerel $unwind$??0_Container_proxy@std@@QEAA@PEAU_Container_base12@1@@Z
pdata	ENDS
;	COMDAT pdata
pdata	SEGMENT
$pdata$??0_Container_base12@std@@QEAA@XZ DD imagerel $LN3
	DD	imagerel $LN3+85
	DD	imagerel $unwind$??0_Container_base12@std@@QEAA@XZ
pdata	ENDS
;	COMDAT pdata
pdata	SEGMENT
$pdata$?_Orphan_all@_Container_base12@std@@QEAAXXZ DD imagerel $LN7
	DD	imagerel $LN7+237
	DD	imagerel $unwind$?_Orphan_all@_Container_base12@std@@QEAAXXZ
pdata	ENDS
;	COMDAT pdata
pdata	SEGMENT
$pdata$?_Swap_proxy_and_iterators@_Container_base12@std@@QEAAXAEAU12@@Z DD imagerel $LN5
	DD	imagerel $LN5+261
	DD	imagerel $unwind$?_Swap_proxy_and_iterators@_Container_base12@std@@QEAAXAEAU12@@Z
pdata	ENDS
;	COMDAT pdata
pdata	SEGMENT
$pdata$??$_Construct_in_place@U_Container_proxy@std@@PEAU_Container_base12@2@@std@@YAXAEAU_Container_proxy@0@$$QEAPEAU_Container_base12@0@@Z DD imagerel $LN3
	DD	imagerel $LN3+147
	DD	imagerel $unwind$??$_Construct_in_place@U_Container_proxy@std@@PEAU_Container_base12@2@@std@@YAXAEAU_Container_proxy@0@$$QEAPEAU_Container_base12@0@@Z
pdata	ENDS
;	COMDAT pdata
pdata	SEGMENT
$pdata$??0_Iterator_base12@std@@QEAA@XZ DD imagerel $LN3
	DD	imagerel $LN3+101
	DD	imagerel $unwind$??0_Iterator_base12@std@@QEAA@XZ
pdata	ENDS
;	COMDAT pdata
pdata	SEGMENT
$pdata$??0_Iterator_base12@std@@QEAA@AEBU01@@Z DD imagerel $LN3
	DD	imagerel $LN3+126
	DD	imagerel $unwind$??0_Iterator_base12@std@@QEAA@AEBU01@@Z
pdata	ENDS
;	COMDAT pdata
pdata	SEGMENT
$pdata$??4_Iterator_base12@std@@QEAAAEAU01@AEBU01@@Z DD imagerel $LN6
	DD	imagerel $LN6+236
	DD	imagerel $unwind$??4_Iterator_base12@std@@QEAAAEAU01@AEBU01@@Z
pdata	ENDS
;	COMDAT pdata
pdata	SEGMENT
$pdata$??1_Iterator_base12@std@@QEAA@XZ DD imagerel $LN3
	DD	imagerel $LN3+155
	DD	imagerel $unwind$??1_Iterator_base12@std@@QEAA@XZ
pdata	ENDS
;	COMDAT pdata
pdata	SEGMENT
$pdata$?_Adopt@_Iterator_base12@std@@QEAAXPEBU_Container_base12@2@@Z DD imagerel $LN6
	DD	imagerel $LN6+290
	DD	imagerel $unwind$?_Adopt@_Iterator_base12@std@@QEAAXPEBU_Container_base12@2@@Z
pdata	ENDS
;	COMDAT pdata
pdata	SEGMENT
$pdata$?_Orphan_me@_Iterator_base12@std@@QEAAXXZ DD imagerel $LN15
	DD	imagerel $LN15+302
	DD	imagerel $unwind$?_Orphan_me@_Iterator_base12@std@@QEAAXXZ
pdata	ENDS
;	COMDAT pdata
pdata	SEGMENT
$pdata$?_Release@_Basic_container_proxy_ptr12@std@@QEAAXXZ DD imagerel $LN3
	DD	imagerel $LN3+79
	DD	imagerel $unwind$?_Release@_Basic_container_proxy_ptr12@std@@QEAAXXZ
pdata	ENDS
;	COMDAT pdata
pdata	SEGMENT
$pdata$??$addressof@U_Container_base12@std@@@std@@YAPEAU_Container_base12@0@AEAU10@@Z DD imagerel $LN3
	DD	imagerel $LN3+72
	DD	imagerel $unwind$??$addressof@U_Container_base12@std@@@std@@YAPEAU_Container_base12@0@AEAU10@@Z
pdata	ENDS
;	COMDAT pdata
pdata	SEGMENT
$pdata$??0?$allocator@D@std@@QEAA@XZ DD imagerel $LN3
	DD	imagerel $LN3+72
	DD	imagerel $unwind$??0?$allocator@D@std@@QEAA@XZ
pdata	ENDS
;	COMDAT pdata
pdata	SEGMENT
$pdata$?deallocate@?$allocator@D@std@@QEAAXQEAD_K@Z DD imagerel $LN3
	DD	imagerel $LN3+93
	DD	imagerel $unwind$?deallocate@?$allocator@D@std@@QEAAXQEAD_K@Z
pdata	ENDS
;	COMDAT pdata
pdata	SEGMENT
$pdata$?allocate@?$allocator@D@std@@QEAAPEAD_K@Z DD imagerel $LN3
	DD	imagerel $LN3+89
	DD	imagerel $unwind$?allocate@?$allocator@D@std@@QEAAPEAD_K@Z
pdata	ENDS
;	COMDAT pdata
pdata	SEGMENT
$pdata$?length@?$_Narrow_char_traits@DH@std@@SA_KQEBD@Z DD imagerel $LN4
	DD	imagerel $LN4+124
	DD	imagerel $unwind$?length@?$_Narrow_char_traits@DH@std@@SA_KQEBD@Z
pdata	ENDS
;	COMDAT pdata
pdata	SEGMENT
$pdata$?copy@?$_Narrow_char_traits@DH@std@@SAPEADQEADQEBD_K@Z DD imagerel $LN3
	DD	imagerel $LN3+102
	DD	imagerel $unwind$?copy@?$_Narrow_char_traits@DH@std@@SAPEADQEADQEBD_K@Z
pdata	ENDS
;	COMDAT pdata
pdata	SEGMENT
$pdata$?move@?$_Narrow_char_traits@DH@std@@SAPEADQEADQEBD_K@Z DD imagerel $LN3
	DD	imagerel $LN3+102
	DD	imagerel $unwind$?move@?$_Narrow_char_traits@DH@std@@SAPEADQEADQEBD_K@Z
pdata	ENDS
;	COMDAT pdata
pdata	SEGMENT
$pdata$?assign@?$_Narrow_char_traits@DH@std@@SAXAEADAEBD@Z DD imagerel $LN3
	DD	imagerel $LN3+89
	DD	imagerel $unwind$?assign@?$_Narrow_char_traits@DH@std@@SAXAEADAEBD@Z
pdata	ENDS
;	COMDAT pdata
pdata	SEGMENT
$pdata$?eq_int_type@?$_Narrow_char_traits@DH@std@@SA_NAEBH0@Z DD imagerel $LN5
	DD	imagerel $LN5+119
	DD	imagerel $unwind$?eq_int_type@?$_Narrow_char_traits@DH@std@@SA_NAEBH0@Z
pdata	ENDS
;	COMDAT pdata
pdata	SEGMENT
$pdata$?eof@?$_Narrow_char_traits@DH@std@@SAHXZ DD imagerel $LN3
	DD	imagerel $LN3+58
	DD	imagerel $unwind$?eof@?$_Narrow_char_traits@DH@std@@SAHXZ
pdata	ENDS
;	COMDAT pdata
pdata	SEGMENT
$pdata$??$_Min_value@_K@std@@YAAEB_KAEB_K0@Z DD imagerel $LN5
	DD	imagerel $LN5+143
	DD	imagerel $unwind$??$_Min_value@_K@std@@YAAEB_KAEB_K0@Z
pdata	ENDS
;	COMDAT pdata
pdata	SEGMENT
$pdata$?max_size@?$_Default_allocator_traits@V?$allocator@D@std@@@std@@SA_KAEBV?$allocator@D@2@@Z DD imagerel $LN3
	DD	imagerel $LN3+72
	DD	imagerel $unwind$?max_size@?$_Default_allocator_traits@V?$allocator@D@std@@@std@@SA_KAEBV?$allocator@D@2@@Z
pdata	ENDS
;	COMDAT pdata
pdata	SEGMENT
$pdata$?select_on_container_copy_construction@?$_Default_allocator_traits@V?$allocator@D@std@@@std@@SA?AV?$allocator@D@2@AEBV32@@Z DD imagerel $LN3
	DD	imagerel $LN3+76
	DD	imagerel $unwind$?select_on_container_copy_construction@?$_Default_allocator_traits@V?$allocator@D@std@@@std@@SA?AV?$allocator@D@2@AEBV32@@Z
pdata	ENDS
;	COMDAT pdata
pdata	SEGMENT
$pdata$??0?$_String_val@U?$_Simple_types@D@std@@@std@@QEAA@XZ DD imagerel $LN4
	DD	imagerel $LN4+132
	DD	imagerel $unwind$??0?$_String_val@U?$_Simple_types@D@std@@@std@@QEAA@XZ
pdata	ENDS
;	COMDAT pdata
pdata	SEGMENT
$pdata$?_Myptr@?$_String_val@U?$_Simple_types@D@std@@@std@@QEAAPEADXZ DD imagerel $LN4
	DD	imagerel $LN4+122
	DD	imagerel $unwind$?_Myptr@?$_String_val@U?$_Simple_types@D@std@@@std@@QEAAPEADXZ
pdata	ENDS
;	COMDAT pdata
pdata	SEGMENT
$pdata$?_Myptr@?$_String_val@U?$_Simple_types@D@std@@@std@@QEBAPEBDXZ DD imagerel $LN4
	DD	imagerel $LN4+122
	DD	imagerel $unwind$?_Myptr@?$_String_val@U?$_Simple_types@D@std@@@std@@QEBAPEBDXZ
pdata	ENDS
;	COMDAT pdata
pdata	SEGMENT
$pdata$?_Large_string_engaged@?$_String_val@U?$_Simple_types@D@std@@@std@@QEBA_NXZ DD imagerel $LN5
	DD	imagerel $LN5+107
	DD	imagerel $unwind$?_Large_string_engaged@?$_String_val@U?$_Simple_types@D@std@@@std@@QEBA_NXZ
pdata	ENDS
;	COMDAT pdata
pdata	SEGMENT
$pdata$??0_Bxty@?$_String_val@U?$_Simple_types@D@std@@@std@@QEAA@XZ DD imagerel $LN3
	DD	imagerel $LN3+71
	DD	imagerel $unwind$??0_Bxty@?$_String_val@U?$_Simple_types@D@std@@@std@@QEAA@XZ
pdata	ENDS
;	COMDAT pdata
pdata	SEGMENT
$pdata$??1_Bxty@?$_String_val@U?$_Simple_types@D@std@@@std@@QEAA@XZ DD imagerel $LN3
	DD	imagerel $LN3+65
	DD	imagerel $unwind$??1_Bxty@?$_String_val@U?$_Simple_types@D@std@@@std@@QEAA@XZ
pdata	ENDS
;	COMDAT pdata
pdata	SEGMENT
$pdata$??1?$_String_val@U?$_Simple_types@D@std@@@std@@QEAA@XZ DD imagerel $LN3
	DD	imagerel $LN3+71
	DD	imagerel $unwind$??1?$_String_val@U?$_Simple_types@D@std@@@std@@QEAA@XZ
pdata	ENDS
;	COMDAT pdata
pdata	SEGMENT
$pdata$??0?$basic_string@DU?$char_traits@D@std@@V?$allocator@D@2@@std@@QEAA@AEBV01@@Z DD imagerel $LN5
	DD	imagerel $LN5+313
	DD	imagerel $unwind$??0?$basic_string@DU?$char_traits@D@std@@V?$allocator@D@2@@std@@QEAA@AEBV01@@Z
pdata	ENDS
;	COMDAT pdata
pdata	SEGMENT
$pdata$?dtor$0@?0???0?$basic_string@DU?$char_traits@D@std@@V?$allocator@D@2@@std@@QEAA@AEBV01@@Z@4HA DD imagerel ?dtor$0@?0???0?$basic_string@DU?$char_traits@D@std@@V?$allocator@D@2@@std@@QEAA@AEBV01@@Z@4HA
	DD	imagerel ?dtor$0@?0???0?$basic_string@DU?$char_traits@D@std@@V?$allocator@D@2@@std@@QEAA@AEBV01@@Z@4HA+39
	DD	imagerel $unwind$?dtor$0@?0???0?$basic_string@DU?$char_traits@D@std@@V?$allocator@D@2@@std@@QEAA@AEBV01@@Z@4HA
pdata	ENDS
;	COMDAT pdata
pdata	SEGMENT
$pdata$?dtor$1@?0???0?$basic_string@DU?$char_traits@D@std@@V?$allocator@D@2@@std@@QEAA@AEBV01@@Z@4HA DD imagerel ?dtor$1@?0???0?$basic_string@DU?$char_traits@D@std@@V?$allocator@D@2@@std@@QEAA@AEBV01@@Z@4HA
	DD	imagerel ?dtor$1@?0???0?$basic_string@DU?$char_traits@D@std@@V?$allocator@D@2@@std@@QEAA@AEBV01@@Z@4HA+36
	DD	imagerel $unwind$?dtor$1@?0???0?$basic_string@DU?$char_traits@D@std@@V?$allocator@D@2@@std@@QEAA@AEBV01@@Z@4HA
pdata	ENDS
;	COMDAT pdata
pdata	SEGMENT
$pdata$??0?$basic_string@DU?$char_traits@D@std@@V?$allocator@D@2@@std@@QEAA@QEBD@Z DD imagerel $LN5
	DD	imagerel $LN5+271
	DD	imagerel $unwind$??0?$basic_string@DU?$char_traits@D@std@@V?$allocator@D@2@@std@@QEAA@QEBD@Z
pdata	ENDS
;	COMDAT pdata
pdata	SEGMENT
$pdata$?dtor$0@?0???0?$basic_string@DU?$char_traits@D@std@@V?$allocator@D@2@@std@@QEAA@QEBD@Z@4HA DD imagerel ?dtor$0@?0???0?$basic_string@DU?$char_traits@D@std@@V?$allocator@D@2@@std@@QEAA@QEBD@Z@4HA
	DD	imagerel ?dtor$0@?0???0?$basic_string@DU?$char_traits@D@std@@V?$allocator@D@2@@std@@QEAA@QEBD@Z@4HA+39
	DD	imagerel $unwind$?dtor$0@?0???0?$basic_string@DU?$char_traits@D@std@@V?$allocator@D@2@@std@@QEAA@QEBD@Z@4HA
pdata	ENDS
;	COMDAT pdata
pdata	SEGMENT
$pdata$?dtor$1@?0???0?$basic_string@DU?$char_traits@D@std@@V?$allocator@D@2@@std@@QEAA@QEBD@Z@4HA DD imagerel ?dtor$1@?0???0?$basic_string@DU?$char_traits@D@std@@V?$allocator@D@2@@std@@QEAA@QEBD@Z@4HA
	DD	imagerel ?dtor$1@?0???0?$basic_string@DU?$char_traits@D@std@@V?$allocator@D@2@@std@@QEAA@QEBD@Z@4HA+36
	DD	imagerel $unwind$?dtor$1@?0???0?$basic_string@DU?$char_traits@D@std@@V?$allocator@D@2@@std@@QEAA@QEBD@Z@4HA
pdata	ENDS
;	COMDAT pdata
pdata	SEGMENT
$pdata$?_Construct_lv_contents@?$basic_string@DU?$char_traits@D@std@@V?$allocator@D@2@@std@@AEAAXAEBV12@@Z DD imagerel $LN4
	DD	imagerel $LN4+438
	DD	imagerel $unwind$?_Construct_lv_contents@?$basic_string@DU?$char_traits@D@std@@V?$allocator@D@2@@std@@AEAAXAEBV12@@Z
pdata	ENDS
;	COMDAT pdata
pdata	SEGMENT
$pdata$??1?$basic_string@DU?$char_traits@D@std@@V?$allocator@D@2@@std@@QEAA@XZ DD imagerel $LN3
	DD	imagerel $LN3+220
	DD	imagerel $unwind$??1?$basic_string@DU?$char_traits@D@std@@V?$allocator@D@2@@std@@QEAA@XZ
pdata	ENDS
;	COMDAT pdata
pdata	SEGMENT
$pdata$?assign@?$basic_string@DU?$char_traits@D@std@@V?$allocator@D@2@@std@@QEAAAEAV12@QEBD_K@Z DD imagerel $LN4
	DD	imagerel $LN4+236
	DD	imagerel $unwind$?assign@?$basic_string@DU?$char_traits@D@std@@V?$allocator@D@2@@std@@QEAAAEAV12@QEBD_K@Z
pdata	ENDS
;	COMDAT pdata
pdata	SEGMENT
$pdata$?assign@?$basic_string@DU?$char_traits@D@std@@V?$allocator@D@2@@std@@QEAAAEAV12@QEBD@Z DD imagerel $LN3
	DD	imagerel $LN3+111
	DD	imagerel $unwind$?assign@?$basic_string@DU?$char_traits@D@std@@V?$allocator@D@2@@std@@QEAAAEAV12@QEBD@Z
pdata	ENDS
;	COMDAT pdata
pdata	SEGMENT
$pdata$?data@?$basic_string@DU?$char_traits@D@std@@V?$allocator@D@2@@std@@QEBAPEBDXZ DD imagerel $LN3
	DD	imagerel $LN3+81
	DD	imagerel $unwind$?data@?$basic_string@DU?$char_traits@D@std@@V?$allocator@D@2@@std@@QEBAPEBDXZ
pdata	ENDS
;	COMDAT pdata
pdata	SEGMENT
$pdata$?size@?$basic_string@DU?$char_traits@D@std@@V?$allocator@D@2@@std@@QEBA_KXZ DD imagerel $LN3
	DD	imagerel $LN3+76
	DD	imagerel $unwind$?size@?$basic_string@DU?$char_traits@D@std@@V?$allocator@D@2@@std@@QEBA_KXZ
pdata	ENDS
;	COMDAT pdata
pdata	SEGMENT
$pdata$?max_size@?$basic_string@DU?$char_traits@D@std@@V?$allocator@D@2@@std@@QEBA_KXZ DD imagerel $LN3
	DD	imagerel $LN3+232
	DD	imagerel $unwind$?max_size@?$basic_string@DU?$char_traits@D@std@@V?$allocator@D@2@@std@@QEBA_KXZ
pdata	ENDS
;	COMDAT pdata
pdata	SEGMENT
$pdata$?_Calculate_growth@?$basic_string@DU?$char_traits@D@std@@V?$allocator@D@2@@std@@CA_K_K00@Z DD imagerel $LN5
	DD	imagerel $LN5+273
	DD	imagerel $unwind$?_Calculate_growth@?$basic_string@DU?$char_traits@D@std@@V?$allocator@D@2@@std@@CA_K_K00@Z
pdata	ENDS
;	COMDAT pdata
pdata	SEGMENT
$pdata$?_Calculate_growth@?$basic_string@DU?$char_traits@D@std@@V?$allocator@D@2@@std@@AEBA_K_K@Z DD imagerel $LN3
	DD	imagerel $LN3+135
	DD	imagerel $unwind$?_Calculate_growth@?$basic_string@DU?$char_traits@D@std@@V?$allocator@D@2@@std@@AEBA_K_K@Z
pdata	ENDS
;	COMDAT pdata
pdata	SEGMENT
$pdata$?_Tidy_init@?$basic_string@DU?$char_traits@D@std@@V?$allocator@D@2@@std@@AEAAXXZ DD imagerel $LN3
	DD	imagerel $LN3+139
	DD	imagerel $unwind$?_Tidy_init@?$basic_string@DU?$char_traits@D@std@@V?$allocator@D@2@@std@@AEAAXXZ
pdata	ENDS
;	COMDAT pdata
pdata	SEGMENT
$pdata$?_Tidy_deallocate@?$basic_string@DU?$char_traits@D@std@@V?$allocator@D@2@@std@@AEAAXXZ DD imagerel $LN4
	DD	imagerel $LN4+261
	DD	imagerel $unwind$?_Tidy_deallocate@?$basic_string@DU?$char_traits@D@std@@V?$allocator@D@2@@std@@AEAAXXZ
pdata	ENDS
;	COMDAT pdata
pdata	SEGMENT
$pdata$?_Xlen@?$basic_string@DU?$char_traits@D@std@@V?$allocator@D@2@@std@@CAXXZ DD imagerel $LN3
	DD	imagerel $LN3+64
	DD	imagerel $unwind$?_Xlen@?$basic_string@DU?$char_traits@D@std@@V?$allocator@D@2@@std@@CAXXZ
pdata	ENDS
;	COMDAT pdata
pdata	SEGMENT
$pdata$?_Getal@?$basic_string@DU?$char_traits@D@std@@V?$allocator@D@2@@std@@AEAAAEAV?$allocator@D@2@XZ DD imagerel $LN3
	DD	imagerel $LN3+81
	DD	imagerel $unwind$?_Getal@?$basic_string@DU?$char_traits@D@std@@V?$allocator@D@2@@std@@AEAAAEAV?$allocator@D@2@XZ
pdata	ENDS
;	COMDAT pdata
pdata	SEGMENT
$pdata$?_Getal@?$basic_string@DU?$char_traits@D@std@@V?$allocator@D@2@@std@@AEBAAEBV?$allocator@D@2@XZ DD imagerel $LN3
	DD	imagerel $LN3+81
	DD	imagerel $unwind$?_Getal@?$basic_string@DU?$char_traits@D@std@@V?$allocator@D@2@@std@@AEBAAEBV?$allocator@D@2@XZ
pdata	ENDS
;	COMDAT pdata
pdata	SEGMENT
$pdata$?_Get_first@?$_Compressed_pair@V?$allocator@D@std@@V?$_String_val@U?$_Simple_types@D@std@@@2@$00@std@@QEAAAEAV?$allocator@D@2@XZ DD imagerel $LN3
	DD	imagerel $LN3+72
	DD	imagerel $unwind$?_Get_first@?$_Compressed_pair@V?$allocator@D@std@@V?$_String_val@U?$_Simple_types@D@std@@@2@$00@std@@QEAAAEAV?$allocator@D@2@XZ
pdata	ENDS
;	COMDAT pdata
pdata	SEGMENT
$pdata$?_Get_first@?$_Compressed_pair@V?$allocator@D@std@@V?$_String_val@U?$_Simple_types@D@std@@@2@$00@std@@QEBAAEBV?$allocator@D@2@XZ DD imagerel $LN3
	DD	imagerel $LN3+72
	DD	imagerel $unwind$?_Get_first@?$_Compressed_pair@V?$allocator@D@std@@V?$_String_val@U?$_Simple_types@D@std@@@2@$00@std@@QEBAAEBV?$allocator@D@2@XZ
pdata	ENDS
;	COMDAT pdata
pdata	SEGMENT
$pdata$??1?$_Compressed_pair@V?$allocator@D@std@@V?$_String_val@U?$_Simple_types@D@std@@@2@$00@std@@QEAA@XZ DD imagerel $LN3
	DD	imagerel $LN3+67
	DD	imagerel $unwind$??1?$_Compressed_pair@V?$allocator@D@std@@V?$_String_val@U?$_Simple_types@D@std@@@2@$00@std@@QEAA@XZ
pdata	ENDS
;	COMDAT pdata
pdata	SEGMENT
$pdata$??_G?$basic_string@DU?$char_traits@D@std@@V?$allocator@D@2@@std@@QEAAPEAXI@Z DD imagerel $LN4
	DD	imagerel $LN4+105
	DD	imagerel $unwind$??_G?$basic_string@DU?$char_traits@D@std@@V?$allocator@D@2@@std@@QEAAPEAXI@Z
pdata	ENDS
;	COMDAT pdata
pdata	SEGMENT
$pdata$??8type_info@@QEBA_NAEBV0@@Z DD imagerel $LN5
	DD	imagerel $LN5+134
	DD	imagerel $unwind$??8type_info@@QEBA_NAEBV0@@Z
pdata	ENDS
;	COMDAT pdata
pdata	SEGMENT
$pdata$??0_Ref_count_base@std@@IEAA@XZ DD imagerel $LN3
	DD	imagerel $LN3+100
	DD	imagerel $unwind$??0_Ref_count_base@std@@IEAA@XZ
pdata	ENDS
;	COMDAT pdata
pdata	SEGMENT
$pdata$??1_Ref_count_base@std@@UEAA@XZ DD imagerel $LN3
	DD	imagerel $LN3+65
	DD	imagerel $unwind$??1_Ref_count_base@std@@UEAA@XZ
pdata	ENDS
;	COMDAT pdata
pdata	SEGMENT
$pdata$?_Incref@_Ref_count_base@std@@QEAAXXZ DD imagerel $LN3
	DD	imagerel $LN3+79
	DD	imagerel $unwind$?_Incref@_Ref_count_base@std@@QEAAXXZ
pdata	ENDS
;	COMDAT pdata
pdata	SEGMENT
$pdata$?_Decref@_Ref_count_base@std@@QEAAXXZ DD imagerel $LN4
	DD	imagerel $LN4+126
	DD	imagerel $unwind$?_Decref@_Ref_count_base@std@@QEAAXXZ
pdata	ENDS
;	COMDAT pdata
pdata	SEGMENT
$pdata$?_Decwref@_Ref_count_base@std@@QEAAXXZ DD imagerel $LN4
	DD	imagerel $LN4+114
	DD	imagerel $unwind$?_Decwref@_Ref_count_base@std@@QEAAXXZ
pdata	ENDS
;	COMDAT pdata
pdata	SEGMENT
$pdata$?_Use_count@_Ref_count_base@std@@QEBAJXZ DD imagerel $LN3
	DD	imagerel $LN3+75
	DD	imagerel $unwind$?_Use_count@_Ref_count_base@std@@QEBAJXZ
pdata	ENDS
;	COMDAT pdata
pdata	SEGMENT
$pdata$?_Get_deleter@_Ref_count_base@std@@UEBAPEAXAEBVtype_info@@@Z DD imagerel $LN3
	DD	imagerel $LN3+72
	DD	imagerel $unwind$?_Get_deleter@_Ref_count_base@std@@UEBAPEAXAEBVtype_info@@@Z
pdata	ENDS
;	COMDAT pdata
pdata	SEGMENT
$pdata$?_Throw_tree_length_error@std@@YAXXZ DD imagerel $LN3
	DD	imagerel $LN3+64
	DD	imagerel $unwind$?_Throw_tree_length_error@std@@YAXXZ
pdata	ENDS
;	COMDAT pdata
pdata	SEGMENT
$pdata$??0type_index@std@@QEAA@AEBVtype_info@@@Z DD imagerel $LN3
	DD	imagerel $LN3+94
	DD	imagerel $unwind$??0type_index@std@@QEAA@AEBVtype_info@@@Z
pdata	ENDS
;	COMDAT pdata
pdata	SEGMENT
$pdata$?__autoclassinit2@type_index@std@@QEAAX_K@Z DD imagerel $LN3
	DD	imagerel $LN3+73
	DD	imagerel $unwind$?__autoclassinit2@type_index@std@@QEAAX_K@Z
pdata	ENDS
;	COMDAT pdata
pdata	SEGMENT
$pdata$?f@@YAXW4Flags@@@Z DD imagerel $LN9
	DD	imagerel $LN9+245
	DD	imagerel $unwind$?f@@YAXW4Flags@@@Z
pdata	ENDS
;	COMDAT pdata
pdata	SEGMENT
$pdata$??$?6U?$char_traits@D@std@@@std@@YAAEAV?$basic_ostream@DU?$char_traits@D@std@@@0@AEAV10@PEBD@Z DD imagerel $LN25
	DD	imagerel $LN25+1124
	DD	imagerel $unwind$??$?6U?$char_traits@D@std@@@std@@YAAEAV?$basic_ostream@DU?$char_traits@D@std@@@0@AEAV10@PEBD@Z
pdata	ENDS
;	COMDAT pdata
pdata	SEGMENT
$pdata$?dtor$0@?0???$?6U?$char_traits@D@std@@@std@@YAAEAV?$basic_ostream@DU?$char_traits@D@std@@@0@AEAV10@PEBD@Z@4HA DD imagerel ?dtor$0@?0???$?6U?$char_traits@D@std@@@std@@YAAEAV?$basic_ostream@DU?$char_traits@D@std@@@0@AEAV10@PEBD@Z@4HA
	DD	imagerel ?dtor$0@?0???$?6U?$char_traits@D@std@@@std@@YAAEAV?$basic_ostream@DU?$char_traits@D@std@@@0@AEAV10@PEBD@Z@4HA+36
	DD	imagerel $unwind$?dtor$0@?0???$?6U?$char_traits@D@std@@@std@@YAAEAV?$basic_ostream@DU?$char_traits@D@std@@@0@AEAV10@PEBD@Z@4HA
pdata	ENDS
;	COMDAT pdata
pdata	SEGMENT
$pdata$?catch$1@?0???$?6U?$char_traits@D@std@@@std@@YAAEAV?$basic_ostream@DU?$char_traits@D@std@@@0@AEAV10@PEBD@Z@4HA DD imagerel ?catch$1@?0???$?6U?$char_traits@D@std@@@std@@YAAEAV?$basic_ostream@DU?$char_traits@D@std@@@0@AEAV10@PEBD@Z@4HA
	DD	imagerel ?catch$1@?0???$?6U?$char_traits@D@std@@@std@@YAAEAV?$basic_ostream@DU?$char_traits@D@std@@@0@AEAV10@PEBD@Z@4HA+91
	DD	imagerel $unwind$?catch$1@?0???$?6U?$char_traits@D@std@@@std@@YAAEAV?$basic_ostream@DU?$char_traits@D@std@@@0@AEAV10@PEBD@Z@4HA
pdata	ENDS
;	COMDAT pdata
pdata	SEGMENT
$pdata$??$?6U?$char_traits@D@std@@@std@@YAAEAV?$basic_ostream@DU?$char_traits@D@std@@@0@AEAV10@D@Z DD imagerel $LN23
	DD	imagerel $LN23+1095
	DD	imagerel $unwind$??$?6U?$char_traits@D@std@@@std@@YAAEAV?$basic_ostream@DU?$char_traits@D@std@@@0@AEAV10@D@Z
pdata	ENDS
;	COMDAT pdata
pdata	SEGMENT
$pdata$?dtor$0@?0???$?6U?$char_traits@D@std@@@std@@YAAEAV?$basic_ostream@DU?$char_traits@D@std@@@0@AEAV10@D@Z@4HA DD imagerel ?dtor$0@?0???$?6U?$char_traits@D@std@@@std@@YAAEAV?$basic_ostream@DU?$char_traits@D@std@@@0@AEAV10@D@Z@4HA
	DD	imagerel ?dtor$0@?0???$?6U?$char_traits@D@std@@@std@@YAAEAV?$basic_ostream@DU?$char_traits@D@std@@@0@AEAV10@D@Z@4HA+36
	DD	imagerel $unwind$?dtor$0@?0???$?6U?$char_traits@D@std@@@std@@YAAEAV?$basic_ostream@DU?$char_traits@D@std@@@0@AEAV10@D@Z@4HA
pdata	ENDS
;	COMDAT pdata
pdata	SEGMENT
$pdata$?catch$1@?0???$?6U?$char_traits@D@std@@@std@@YAAEAV?$basic_ostream@DU?$char_traits@D@std@@@0@AEAV10@D@Z@4HA DD imagerel ?catch$1@?0???$?6U?$char_traits@D@std@@@std@@YAAEAV?$basic_ostream@DU?$char_traits@D@std@@@0@AEAV10@D@Z@4HA
	DD	imagerel ?catch$1@?0???$?6U?$char_traits@D@std@@@std@@YAAEAV?$basic_ostream@DU?$char_traits@D@std@@@0@AEAV10@D@Z@4HA+91
	DD	imagerel $unwind$?catch$1@?0???$?6U?$char_traits@D@std@@@std@@YAAEAV?$basic_ostream@DU?$char_traits@D@std@@@0@AEAV10@D@Z@4HA
pdata	ENDS
;	COMDAT pdata
pdata	SEGMENT
$pdata$??R<lambda_1>@?1??LambdaFunc@cpp11@@AEAAXXZ@QEBA@HH@Z DD imagerel ??R<lambda_1>@?1??LambdaFunc@cpp11@@AEAAXXZ@QEBA@HH@Z
	DD	imagerel ??R<lambda_1>@?1??LambdaFunc@cpp11@@AEAAXXZ@QEBA@HH@Z+89
	DD	imagerel $unwind$??R<lambda_1>@?1??LambdaFunc@cpp11@@AEAAXXZ@QEBA@HH@Z
pdata	ENDS
;	COMDAT pdata
pdata	SEGMENT
$pdata$??$endl@DU?$char_traits@D@std@@@std@@YAAEAV?$basic_ostream@DU?$char_traits@D@std@@@0@AEAV10@@Z DD imagerel $LN3
	DD	imagerel $LN3+149
	DD	imagerel $unwind$??$endl@DU?$char_traits@D@std@@@std@@YAAEAV?$basic_ostream@DU?$char_traits@D@std@@@0@AEAV10@@Z
pdata	ENDS
;	COMDAT pdata
pdata	SEGMENT
$pdata$?foo@A@?1??SharedPtrFunc@cpp11@@AEAAXXZ@QEAAXXZ DD imagerel ?foo@A@?1??SharedPtrFunc@cpp11@@AEAAXXZ@QEAAXXZ
	DD	imagerel ?foo@A@?1??SharedPtrFunc@cpp11@@AEAAXXZ@QEAAXXZ+110
	DD	imagerel $unwind$?foo@A@?1??SharedPtrFunc@cpp11@@AEAAXXZ@QEAAXXZ
pdata	ENDS
;	COMDAT pdata
pdata	SEGMENT
$pdata$?get@?$_Ptr_base@VA@?1??SharedPtrFunc@cpp11@@AEAAXXZ@@std@@IEBAPEAVA@?1??SharedPtrFunc@cpp11@@AEAAXXZ@XZ DD imagerel ?get@?$_Ptr_base@VA@?1??SharedPtrFunc@cpp11@@AEAAXXZ@@std@@IEBAPEAVA@?1??SharedPtrFunc@cpp11@@AEAAXXZ@XZ
	DD	imagerel ?get@?$_Ptr_base@VA@?1??SharedPtrFunc@cpp11@@AEAAXXZ@@std@@IEBAPEAVA@?1??SharedPtrFunc@cpp11@@AEAAXXZ@XZ+75
	DD	imagerel $unwind$?get@?$_Ptr_base@VA@?1??SharedPtrFunc@cpp11@@AEAAXXZ@@std@@IEBAPEAVA@?1??SharedPtrFunc@cpp11@@AEAAXXZ@XZ
pdata	ENDS
;	COMDAT pdata
pdata	SEGMENT
$pdata$??0?$_Ptr_base@VA@?1??SharedPtrFunc@cpp11@@AEAAXXZ@@std@@IEAA@XZ DD imagerel ??0?$_Ptr_base@VA@?1??SharedPtrFunc@cpp11@@AEAAXXZ@@std@@IEAA@XZ
	DD	imagerel ??0?$_Ptr_base@VA@?1??SharedPtrFunc@cpp11@@AEAAXXZ@@std@@IEAA@XZ+101
	DD	imagerel $unwind$??0?$_Ptr_base@VA@?1??SharedPtrFunc@cpp11@@AEAAXXZ@@std@@IEAA@XZ
pdata	ENDS
;	COMDAT pdata
pdata	SEGMENT
$pdata$?_Decref@?$_Ptr_base@VA@?1??SharedPtrFunc@cpp11@@AEAAXXZ@@std@@IEAAXXZ DD imagerel ?_Decref@?$_Ptr_base@VA@?1??SharedPtrFunc@cpp11@@AEAAXXZ@@std@@IEAAXXZ
	DD	imagerel ?_Decref@?$_Ptr_base@VA@?1??SharedPtrFunc@cpp11@@AEAAXXZ@@std@@IEAAXXZ+96
	DD	imagerel $unwind$?_Decref@?$_Ptr_base@VA@?1??SharedPtrFunc@cpp11@@AEAAXXZ@@std@@IEAAXXZ
pdata	ENDS
;	COMDAT pdata
pdata	SEGMENT
$pdata$??0?$shared_ptr@VA@?1??SharedPtrFunc@cpp11@@AEAAXXZ@@std@@QEAA@XZ DD imagerel ??0?$shared_ptr@VA@?1??SharedPtrFunc@cpp11@@AEAAXXZ@@std@@QEAA@XZ
	DD	imagerel ??0?$shared_ptr@VA@?1??SharedPtrFunc@cpp11@@AEAAXXZ@@std@@QEAA@XZ+85
	DD	imagerel $unwind$??0?$shared_ptr@VA@?1??SharedPtrFunc@cpp11@@AEAAXXZ@@std@@QEAA@XZ
pdata	ENDS
;	COMDAT pdata
pdata	SEGMENT
$pdata$??0?$shared_ptr@VA@?1??SharedPtrFunc@cpp11@@AEAAXXZ@@std@@QEAA@$$QEAV01@@Z DD imagerel ??0?$shared_ptr@VA@?1??SharedPtrFunc@cpp11@@AEAAXXZ@@std@@QEAA@$$QEAV01@@Z
	DD	imagerel ??0?$shared_ptr@VA@?1??SharedPtrFunc@cpp11@@AEAAXXZ@@std@@QEAA@$$QEAV01@@Z+119
	DD	imagerel $unwind$??0?$shared_ptr@VA@?1??SharedPtrFunc@cpp11@@AEAAXXZ@@std@@QEAA@$$QEAV01@@Z
pdata	ENDS
;	COMDAT pdata
pdata	SEGMENT
$pdata$??1?$shared_ptr@VA@?1??SharedPtrFunc@cpp11@@AEAAXXZ@@std@@QEAA@XZ DD imagerel ??1?$shared_ptr@VA@?1??SharedPtrFunc@cpp11@@AEAAXXZ@@std@@QEAA@XZ
	DD	imagerel ??1?$shared_ptr@VA@?1??SharedPtrFunc@cpp11@@AEAAXXZ@@std@@QEAA@XZ+78
	DD	imagerel $unwind$??1?$shared_ptr@VA@?1??SharedPtrFunc@cpp11@@AEAAXXZ@@std@@QEAA@XZ
pdata	ENDS
;	COMDAT pdata
pdata	SEGMENT
$pdata$?__autoclassinit2@?$shared_ptr@VA@?1??SharedPtrFunc@cpp11@@AEAAXXZ@@std@@QEAAX_K@Z DD imagerel ?__autoclassinit2@?$shared_ptr@VA@?1??SharedPtrFunc@cpp11@@AEAAXXZ@@std@@QEAAX_K@Z
	DD	imagerel ?__autoclassinit2@?$shared_ptr@VA@?1??SharedPtrFunc@cpp11@@AEAAXXZ@@std@@QEAAX_K@Z+73
	DD	imagerel $unwind$?__autoclassinit2@?$shared_ptr@VA@?1??SharedPtrFunc@cpp11@@AEAAXXZ@@std@@QEAAX_K@Z
pdata	ENDS
;	COMDAT pdata
pdata	SEGMENT
$pdata$??$make_shared@VA@?1??SharedPtrFunc@cpp11@@AEAAXXZ@$$V@std@@YA?AV?$shared_ptr@VA@?1??SharedPtrFunc@cpp11@@AEAAXXZ@@0@XZ DD imagerel ??$make_shared@VA@?1??SharedPtrFunc@cpp11@@AEAAXXZ@$$V@std@@YA?AV?$shared_ptr@VA@?1??SharedPtrFunc@cpp11@@AEAAXXZ@@0@XZ
	DD	imagerel ??$make_shared@VA@?1??SharedPtrFunc@cpp11@@AEAAXXZ@$$V@std@@YA?AV?$shared_ptr@VA@?1??SharedPtrFunc@cpp11@@AEAAXXZ@@0@XZ+314
	DD	imagerel $unwind$??$make_shared@VA@?1??SharedPtrFunc@cpp11@@AEAAXXZ@$$V@std@@YA?AV?$shared_ptr@VA@?1??SharedPtrFunc@cpp11@@AEAAXXZ@@0@XZ
pdata	ENDS
;	COMDAT pdata
pdata	SEGMENT
$pdata$?dtor$0@?0???$make_shared@VA@?1??SharedPtrFunc@cpp11@@AEAAXXZ@$$V@std@@YA?AV?$shared_ptr@VA@?1??SharedPtrFunc@cpp11@@AEAAXXZ@@0@XZ@4HA DD imagerel ?dtor$0@?0???$make_shared@VA@?1??SharedPtrFunc@cpp11@@AEAAXXZ@$$V@std@@YA?AV?$shared_ptr@VA@?1??SharedPtrFunc@cpp11@@AEAAXXZ@@0@XZ@4HA
	DD	imagerel ?dtor$0@?0???$make_shared@VA@?1??SharedPtrFunc@cpp11@@AEAAXXZ@$$V@std@@YA?AV?$shared_ptr@VA@?1??SharedPtrFunc@cpp11@@AEAAXXZ@@0@XZ@4HA+44
	DD	imagerel $unwind$?dtor$0@?0???$make_shared@VA@?1??SharedPtrFunc@cpp11@@AEAAXXZ@$$V@std@@YA?AV?$shared_ptr@VA@?1??SharedPtrFunc@cpp11@@AEAAXXZ@@0@XZ@4HA
pdata	ENDS
;	COMDAT pdata
pdata	SEGMENT
$pdata$??$?CVA@?1??SharedPtrFunc@cpp11@@AEAAXXZ@$0A@@?$shared_ptr@VA@?1??SharedPtrFunc@cpp11@@AEAAXXZ@@std@@QEBAPEAVA@?1??SharedPtrFunc@cpp11@@AEAAXXZ@XZ DD imagerel ??$?CVA@?1??SharedPtrFunc@cpp11@@AEAAXXZ@$0A@@?$shared_ptr@VA@?1??SharedPtrFunc@cpp11@@AEAAXXZ@@std@@QEBAPEAVA@?1??SharedPtrFunc@cpp11@@AEAAXXZ@XZ
	DD	imagerel ??$?CVA@?1??SharedPtrFunc@cpp11@@AEAAXXZ@$0A@@?$shared_ptr@VA@?1??SharedPtrFunc@cpp11@@AEAAXXZ@@std@@QEBAPEAVA@?1??SharedPtrFunc@cpp11@@AEAAXXZ@XZ+78
	DD	imagerel $unwind$??$?CVA@?1??SharedPtrFunc@cpp11@@AEAAXXZ@$0A@@?$shared_ptr@VA@?1??SharedPtrFunc@cpp11@@AEAAXXZ@@std@@QEBAPEAVA@?1??SharedPtrFunc@cpp11@@AEAAXXZ@XZ
pdata	ENDS
;	COMDAT pdata
pdata	SEGMENT
$pdata$?use_count@?$_Ptr_base@H@std@@QEBAJXZ DD imagerel $LN5
	DD	imagerel $LN5+120
	DD	imagerel $unwind$?use_count@?$_Ptr_base@H@std@@QEBAJXZ
pdata	ENDS
;	COMDAT pdata
pdata	SEGMENT
$pdata$?get@?$_Ptr_base@H@std@@IEBAPEAHXZ DD imagerel $LN3
	DD	imagerel $LN3+75
	DD	imagerel $unwind$?get@?$_Ptr_base@H@std@@IEBAPEAHXZ
pdata	ENDS
;	COMDAT pdata
pdata	SEGMENT
$pdata$??0?$_Ptr_base@H@std@@IEAA@XZ DD imagerel $LN3
	DD	imagerel $LN3+101
	DD	imagerel $unwind$??0?$_Ptr_base@H@std@@IEAA@XZ
pdata	ENDS
;	COMDAT pdata
pdata	SEGMENT
$pdata$?_Decref@?$_Ptr_base@H@std@@IEAAXXZ DD imagerel $LN4
	DD	imagerel $LN4+96
	DD	imagerel $unwind$?_Decref@?$_Ptr_base@H@std@@IEAAXXZ
pdata	ENDS
;	COMDAT pdata
pdata	SEGMENT
$pdata$??0?$shared_ptr@H@std@@QEAA@XZ DD imagerel $LN3
	DD	imagerel $LN3+85
	DD	imagerel $unwind$??0?$shared_ptr@H@std@@QEAA@XZ
pdata	ENDS
;	COMDAT pdata
pdata	SEGMENT
$pdata$??0?$shared_ptr@H@std@@QEAA@$$T@Z DD imagerel $LN3
	DD	imagerel $LN3+90
	DD	imagerel $unwind$??0?$shared_ptr@H@std@@QEAA@$$T@Z
pdata	ENDS
;	COMDAT pdata
pdata	SEGMENT
$pdata$??0?$shared_ptr@H@std@@QEAA@AEBV01@@Z DD imagerel $LN3
	DD	imagerel $LN3+110
	DD	imagerel $unwind$??0?$shared_ptr@H@std@@QEAA@AEBV01@@Z
pdata	ENDS
;	COMDAT pdata
pdata	SEGMENT
$pdata$??0?$shared_ptr@H@std@@QEAA@$$QEAV01@@Z DD imagerel $LN3
	DD	imagerel $LN3+119
	DD	imagerel $unwind$??0?$shared_ptr@H@std@@QEAA@$$QEAV01@@Z
pdata	ENDS
;	COMDAT pdata
pdata	SEGMENT
$pdata$??1?$shared_ptr@H@std@@QEAA@XZ DD imagerel $LN3
	DD	imagerel $LN3+78
	DD	imagerel $unwind$??1?$shared_ptr@H@std@@QEAA@XZ
pdata	ENDS
;	COMDAT pdata
pdata	SEGMENT
$pdata$?__autoclassinit2@?$shared_ptr@H@std@@QEAAX_K@Z DD imagerel $LN3
	DD	imagerel $LN3+73
	DD	imagerel $unwind$?__autoclassinit2@?$shared_ptr@H@std@@QEAAX_K@Z
pdata	ENDS
;	COMDAT pdata
pdata	SEGMENT
$pdata$??$make_shared@HH@std@@YA?AV?$shared_ptr@H@0@$$QEAH@Z DD imagerel $LN9
	DD	imagerel $LN9+345
	DD	imagerel $unwind$??$make_shared@HH@std@@YA?AV?$shared_ptr@H@0@$$QEAH@Z
pdata	ENDS
;	COMDAT pdata
pdata	SEGMENT
$pdata$?dtor$0@?0???$make_shared@HH@std@@YA?AV?$shared_ptr@H@0@$$QEAH@Z@4HA DD imagerel ?dtor$0@?0???$make_shared@HH@std@@YA?AV?$shared_ptr@H@0@$$QEAH@Z@4HA
	DD	imagerel ?dtor$0@?0???$make_shared@HH@std@@YA?AV?$shared_ptr@H@0@$$QEAH@Z@4HA+44
	DD	imagerel $unwind$?dtor$0@?0???$make_shared@HH@std@@YA?AV?$shared_ptr@H@0@$$QEAH@Z@4HA
pdata	ENDS
;	COMDAT pdata
pdata	SEGMENT
$pdata$??$?DH$0A@@?$shared_ptr@H@std@@QEBAAEAHXZ DD imagerel $LN3
	DD	imagerel $LN3+78
	DD	imagerel $unwind$??$?DH$0A@@?$shared_ptr@H@std@@QEBAAEAHXZ
pdata	ENDS
;	COMDAT pdata
pdata	SEGMENT
$pdata$?get@?$_Ptr_base@UC@?1??SharedPtrFunc@cpp11@@AEAAXXZ@@std@@IEBAPEAUC@?1??SharedPtrFunc@cpp11@@AEAAXXZ@XZ DD imagerel ?get@?$_Ptr_base@UC@?1??SharedPtrFunc@cpp11@@AEAAXXZ@@std@@IEBAPEAUC@?1??SharedPtrFunc@cpp11@@AEAAXXZ@XZ
	DD	imagerel ?get@?$_Ptr_base@UC@?1??SharedPtrFunc@cpp11@@AEAAXXZ@@std@@IEBAPEAUC@?1??SharedPtrFunc@cpp11@@AEAAXXZ@XZ+75
	DD	imagerel $unwind$?get@?$_Ptr_base@UC@?1??SharedPtrFunc@cpp11@@AEAAXXZ@@std@@IEBAPEAUC@?1??SharedPtrFunc@cpp11@@AEAAXXZ@XZ
pdata	ENDS
;	COMDAT pdata
pdata	SEGMENT
$pdata$??0?$_Ptr_base@UC@?1??SharedPtrFunc@cpp11@@AEAAXXZ@@std@@IEAA@XZ DD imagerel ??0?$_Ptr_base@UC@?1??SharedPtrFunc@cpp11@@AEAAXXZ@@std@@IEAA@XZ
	DD	imagerel ??0?$_Ptr_base@UC@?1??SharedPtrFunc@cpp11@@AEAAXXZ@@std@@IEAA@XZ+101
	DD	imagerel $unwind$??0?$_Ptr_base@UC@?1??SharedPtrFunc@cpp11@@AEAAXXZ@@std@@IEAA@XZ
pdata	ENDS
;	COMDAT pdata
pdata	SEGMENT
$pdata$?_Decref@?$_Ptr_base@UC@?1??SharedPtrFunc@cpp11@@AEAAXXZ@@std@@IEAAXXZ DD imagerel ?_Decref@?$_Ptr_base@UC@?1??SharedPtrFunc@cpp11@@AEAAXXZ@@std@@IEAAXXZ
	DD	imagerel ?_Decref@?$_Ptr_base@UC@?1??SharedPtrFunc@cpp11@@AEAAXXZ@@std@@IEAAXXZ+96
	DD	imagerel $unwind$?_Decref@?$_Ptr_base@UC@?1??SharedPtrFunc@cpp11@@AEAAXXZ@@std@@IEAAXXZ
pdata	ENDS
;	COMDAT pdata
pdata	SEGMENT
$pdata$??0?$shared_ptr@UC@?1??SharedPtrFunc@cpp11@@AEAAXXZ@@std@@QEAA@XZ DD imagerel ??0?$shared_ptr@UC@?1??SharedPtrFunc@cpp11@@AEAAXXZ@@std@@QEAA@XZ
	DD	imagerel ??0?$shared_ptr@UC@?1??SharedPtrFunc@cpp11@@AEAAXXZ@@std@@QEAA@XZ+85
	DD	imagerel $unwind$??0?$shared_ptr@UC@?1??SharedPtrFunc@cpp11@@AEAAXXZ@@std@@QEAA@XZ
pdata	ENDS
;	COMDAT pdata
pdata	SEGMENT
$pdata$??0?$shared_ptr@UC@?1??SharedPtrFunc@cpp11@@AEAAXXZ@@std@@QEAA@$$QEAV01@@Z DD imagerel ??0?$shared_ptr@UC@?1??SharedPtrFunc@cpp11@@AEAAXXZ@@std@@QEAA@$$QEAV01@@Z
	DD	imagerel ??0?$shared_ptr@UC@?1??SharedPtrFunc@cpp11@@AEAAXXZ@@std@@QEAA@$$QEAV01@@Z+119
	DD	imagerel $unwind$??0?$shared_ptr@UC@?1??SharedPtrFunc@cpp11@@AEAAXXZ@@std@@QEAA@$$QEAV01@@Z
pdata	ENDS
;	COMDAT pdata
pdata	SEGMENT
$pdata$??1?$shared_ptr@UC@?1??SharedPtrFunc@cpp11@@AEAAXXZ@@std@@QEAA@XZ DD imagerel ??1?$shared_ptr@UC@?1??SharedPtrFunc@cpp11@@AEAAXXZ@@std@@QEAA@XZ
	DD	imagerel ??1?$shared_ptr@UC@?1??SharedPtrFunc@cpp11@@AEAAXXZ@@std@@QEAA@XZ+78
	DD	imagerel $unwind$??1?$shared_ptr@UC@?1??SharedPtrFunc@cpp11@@AEAAXXZ@@std@@QEAA@XZ
pdata	ENDS
;	COMDAT pdata
pdata	SEGMENT
$pdata$?__autoclassinit2@?$shared_ptr@UC@?1??SharedPtrFunc@cpp11@@AEAAXXZ@@std@@QEAAX_K@Z DD imagerel ?__autoclassinit2@?$shared_ptr@UC@?1??SharedPtrFunc@cpp11@@AEAAXXZ@@std@@QEAAX_K@Z
	DD	imagerel ?__autoclassinit2@?$shared_ptr@UC@?1??SharedPtrFunc@cpp11@@AEAAXXZ@@std@@QEAAX_K@Z+73
	DD	imagerel $unwind$?__autoclassinit2@?$shared_ptr@UC@?1??SharedPtrFunc@cpp11@@AEAAXXZ@@std@@QEAAX_K@Z
pdata	ENDS
;	COMDAT pdata
pdata	SEGMENT
$pdata$??$make_shared@UC@?1??SharedPtrFunc@cpp11@@AEAAXXZ@$$V@std@@YA?AV?$shared_ptr@UC@?1??SharedPtrFunc@cpp11@@AEAAXXZ@@0@XZ DD imagerel ??$make_shared@UC@?1??SharedPtrFunc@cpp11@@AEAAXXZ@$$V@std@@YA?AV?$shared_ptr@UC@?1??SharedPtrFunc@cpp11@@AEAAXXZ@@0@XZ
	DD	imagerel ??$make_shared@UC@?1??SharedPtrFunc@cpp11@@AEAAXXZ@$$V@std@@YA?AV?$shared_ptr@UC@?1??SharedPtrFunc@cpp11@@AEAAXXZ@@0@XZ+314
	DD	imagerel $unwind$??$make_shared@UC@?1??SharedPtrFunc@cpp11@@AEAAXXZ@$$V@std@@YA?AV?$shared_ptr@UC@?1??SharedPtrFunc@cpp11@@AEAAXXZ@@0@XZ
pdata	ENDS
;	COMDAT pdata
pdata	SEGMENT
$pdata$?dtor$0@?0???$make_shared@UC@?1??SharedPtrFunc@cpp11@@AEAAXXZ@$$V@std@@YA?AV?$shared_ptr@UC@?1??SharedPtrFunc@cpp11@@AEAAXXZ@@0@XZ@4HA DD imagerel ?dtor$0@?0???$make_shared@UC@?1??SharedPtrFunc@cpp11@@AEAAXXZ@$$V@std@@YA?AV?$shared_ptr@UC@?1??SharedPtrFunc@cpp11@@AEAAXXZ@@0@XZ@4HA
	DD	imagerel ?dtor$0@?0???$make_shared@UC@?1??SharedPtrFunc@cpp11@@AEAAXXZ@$$V@std@@YA?AV?$shared_ptr@UC@?1??SharedPtrFunc@cpp11@@AEAAXXZ@@0@XZ@4HA+44
	DD	imagerel $unwind$?dtor$0@?0???$make_shared@UC@?1??SharedPtrFunc@cpp11@@AEAAXXZ@$$V@std@@YA?AV?$shared_ptr@UC@?1??SharedPtrFunc@cpp11@@AEAAXXZ@@0@XZ@4HA
pdata	ENDS
;	COMDAT pdata
pdata	SEGMENT
$pdata$??$?CUC@?1??SharedPtrFunc@cpp11@@AEAAXXZ@$0A@@?$shared_ptr@UC@?1??SharedPtrFunc@cpp11@@AEAAXXZ@@std@@QEBAPEAUC@?1??SharedPtrFunc@cpp11@@AEAAXXZ@XZ DD imagerel ??$?CUC@?1??SharedPtrFunc@cpp11@@AEAAXXZ@$0A@@?$shared_ptr@UC@?1??SharedPtrFunc@cpp11@@AEAAXXZ@@std@@QEBAPEAUC@?1??SharedPtrFunc@cpp11@@AEAAXXZ@XZ
	DD	imagerel ??$?CUC@?1??SharedPtrFunc@cpp11@@AEAAXXZ@$0A@@?$shared_ptr@UC@?1??SharedPtrFunc@cpp11@@AEAAXXZ@@std@@QEBAPEAUC@?1??SharedPtrFunc@cpp11@@AEAAXXZ@XZ+78
	DD	imagerel $unwind$??$?CUC@?1??SharedPtrFunc@cpp11@@AEAAXXZ@$0A@@?$shared_ptr@UC@?1??SharedPtrFunc@cpp11@@AEAAXXZ@@std@@QEBAPEAUC@?1??SharedPtrFunc@cpp11@@AEAAXXZ@XZ
pdata	ENDS
;	COMDAT pdata
pdata	SEGMENT
$pdata$??$?0H$0A@@?$shared_ptr@H@std@@QEAA@PEAH@Z DD imagerel $LN7
	DD	imagerel $LN7+321
	DD	imagerel $unwind$??$?0H$0A@@?$shared_ptr@H@std@@QEAA@PEAH@Z
pdata	ENDS
;	COMDAT pdata
pdata	SEGMENT
$pdata$?dtor$0@?0???$?0H$0A@@?$shared_ptr@H@std@@QEAA@PEAH@Z@4HA DD imagerel ?dtor$0@?0???$?0H$0A@@?$shared_ptr@H@std@@QEAA@PEAH@Z@4HA
	DD	imagerel ?dtor$0@?0???$?0H$0A@@?$shared_ptr@H@std@@QEAA@PEAH@Z@4HA+36
	DD	imagerel $unwind$?dtor$0@?0???$?0H$0A@@?$shared_ptr@H@std@@QEAA@PEAH@Z@4HA
pdata	ENDS
;	COMDAT pdata
pdata	SEGMENT
$pdata$?dtor$1@?0???$?0H$0A@@?$shared_ptr@H@std@@QEAA@PEAH@Z@4HA DD imagerel ?dtor$1@?0???$?0H$0A@@?$shared_ptr@H@std@@QEAA@PEAH@Z@4HA
	DD	imagerel ?dtor$1@?0???$?0H$0A@@?$shared_ptr@H@std@@QEAA@PEAH@Z@4HA+44
	DD	imagerel $unwind$?dtor$1@?0???$?0H$0A@@?$shared_ptr@H@std@@QEAA@PEAH@Z@4HA
pdata	ENDS
;	COMDAT pdata
pdata	SEGMENT
$pdata$??R?$default_delete@H@std@@QEBAXPEAH@Z DD imagerel $LN5
	DD	imagerel $LN5+150
	DD	imagerel $unwind$??R?$default_delete@H@std@@QEBAXPEAH@Z
pdata	ENDS
;	COMDAT pdata
pdata	SEGMENT
$pdata$??$?0HU?$default_delete@H@std@@$0A@@?$shared_ptr@H@std@@QEAA@PEAHU?$default_delete@H@1@@Z DD imagerel $LN3
	DD	imagerel $LN3+128
	DD	imagerel $unwind$??$?0HU?$default_delete@H@std@@$0A@@?$shared_ptr@H@std@@QEAA@PEAHU?$default_delete@H@1@@Z
pdata	ENDS
;	COMDAT pdata
pdata	SEGMENT
$pdata$??R<lambda_1>@?1??SharedPtrFunc@cpp11@@AEAAXXZ@QEBA@PEAH@Z DD imagerel ??R<lambda_1>@?1??SharedPtrFunc@cpp11@@AEAAXXZ@QEBA@PEAH@Z
	DD	imagerel ??R<lambda_1>@?1??SharedPtrFunc@cpp11@@AEAAXXZ@QEBA@PEAH@Z+148
	DD	imagerel $unwind$??R<lambda_1>@?1??SharedPtrFunc@cpp11@@AEAAXXZ@QEBA@PEAH@Z
pdata	ENDS
;	COMDAT pdata
pdata	SEGMENT
$pdata$??0?$allocator@H@std@@QEAA@XZ DD imagerel $LN3
	DD	imagerel $LN3+72
	DD	imagerel $unwind$??0?$allocator@H@std@@QEAA@XZ
pdata	ENDS
;	COMDAT pdata
pdata	SEGMENT
$pdata$??$?0HV<lambda_1>@?1??SharedPtrFunc@cpp11@@AEAAXXZ@V?$allocator@H@std@@$0A@@?$shared_ptr@H@std@@QEAA@PEAHV<lambda_1>@?1??SharedPtrFunc@cpp11@@AEAAXXZ@V?$allocator@H@1@@Z DD imagerel ??$?0HV<lambda_1>@?1??SharedPtrFunc@cpp11@@AEAAXXZ@V?$allocator@H@std@@$0A@@?$shared_ptr@H@std@@QEAA@PEAHV<lambda_1>@?1??SharedPtrFunc@cpp11@@AEAAXXZ@V?$allocator@H@1@@Z
	DD	imagerel ??$?0HV<lambda_1>@?1??SharedPtrFunc@cpp11@@AEAAXXZ@V?$allocator@H@std@@$0A@@?$shared_ptr@H@std@@QEAA@PEAHV<lambda_1>@?1??SharedPtrFunc@cpp11@@AEAAXXZ@V?$allocator@H@1@@Z+141
	DD	imagerel $unwind$??$?0HV<lambda_1>@?1??SharedPtrFunc@cpp11@@AEAAXXZ@V?$allocator@H@std@@$0A@@?$shared_ptr@H@std@@QEAA@PEAHV<lambda_1>@?1??SharedPtrFunc@cpp11@@AEAAXXZ@V?$allocator@H@1@@Z
pdata	ENDS
;	COMDAT pdata
pdata	SEGMENT
$pdata$??$move@AEAV?$shared_ptr@H@std@@@std@@YA$$QEAV?$shared_ptr@H@0@AEAV10@@Z DD imagerel $LN3
	DD	imagerel $LN3+72
	DD	imagerel $unwind$??$move@AEAV?$shared_ptr@H@std@@@std@@YA$$QEAV?$shared_ptr@H@0@AEAV10@@Z
pdata	ENDS
;	COMDAT pdata
pdata	SEGMENT
$pdata$??1?$unique_ptr@HU?$default_delete@H@std@@@std@@QEAA@XZ DD imagerel $LN4
	DD	imagerel $LN4+138
	DD	imagerel $unwind$??1?$unique_ptr@HU?$default_delete@H@std@@@std@@QEAA@XZ
pdata	ENDS
;	COMDAT pdata
pdata	SEGMENT
$pdata$?get_deleter@?$unique_ptr@HU?$default_delete@H@std@@@std@@QEAAAEAU?$default_delete@H@2@XZ DD imagerel $LN3
	DD	imagerel $LN3+81
	DD	imagerel $unwind$?get_deleter@?$unique_ptr@HU?$default_delete@H@std@@@std@@QEAAAEAU?$default_delete@H@2@XZ
pdata	ENDS
;	COMDAT pdata
pdata	SEGMENT
$pdata$?get@?$unique_ptr@HU?$default_delete@H@std@@@std@@QEBAPEAHXZ DD imagerel $LN3
	DD	imagerel $LN3+75
	DD	imagerel $unwind$?get@?$unique_ptr@HU?$default_delete@H@std@@@std@@QEBAPEAHXZ
pdata	ENDS
;	COMDAT pdata
pdata	SEGMENT
$pdata$?release@?$unique_ptr@HU?$default_delete@H@std@@@std@@QEAAPEAHXZ DD imagerel $LN3
	DD	imagerel $LN3+99
	DD	imagerel $unwind$?release@?$unique_ptr@HU?$default_delete@H@std@@@std@@QEAAPEAHXZ
pdata	ENDS
;	COMDAT pdata
pdata	SEGMENT
$pdata$?_Get_first@?$_Compressed_pair@U?$default_delete@H@std@@PEAH$00@std@@QEAAAEAU?$default_delete@H@2@XZ DD imagerel $LN3
	DD	imagerel $LN3+72
	DD	imagerel $unwind$?_Get_first@?$_Compressed_pair@U?$default_delete@H@std@@PEAH$00@std@@QEAAAEAU?$default_delete@H@2@XZ
pdata	ENDS
;	COMDAT pdata
pdata	SEGMENT
$pdata$?_Get_first@?$_Compressed_pair@U?$default_delete@H@std@@PEAH$00@std@@QEBAAEBU?$default_delete@H@2@XZ DD imagerel $LN3
	DD	imagerel $LN3+72
	DD	imagerel $unwind$?_Get_first@?$_Compressed_pair@U?$default_delete@H@std@@PEAH$00@std@@QEBAAEBU?$default_delete@H@2@XZ
pdata	ENDS
;	COMDAT pdata
pdata	SEGMENT
$pdata$??$?0U?$default_delete@H@std@@$0A@@?$unique_ptr@HU?$default_delete@H@std@@@std@@QEAA@PEAH@Z DD imagerel $LN3
	DD	imagerel $LN3+118
	DD	imagerel $unwind$??$?0U?$default_delete@H@std@@$0A@@?$unique_ptr@HU?$default_delete@H@std@@@std@@QEAA@PEAH@Z
pdata	ENDS
;	COMDAT pdata
pdata	SEGMENT
$pdata$??$?0HU?$default_delete@H@std@@$0A@@?$shared_ptr@H@std@@QEAA@$$QEAV?$unique_ptr@HU?$default_delete@H@std@@@1@@Z DD imagerel $LN7
	DD	imagerel $LN7+289
	DD	imagerel $unwind$??$?0HU?$default_delete@H@std@@$0A@@?$shared_ptr@H@std@@QEAA@$$QEAV?$unique_ptr@HU?$default_delete@H@std@@@1@@Z
pdata	ENDS
;	COMDAT pdata
pdata	SEGMENT
$pdata$?dtor$0@?0???$?0HU?$default_delete@H@std@@$0A@@?$shared_ptr@H@std@@QEAA@$$QEAV?$unique_ptr@HU?$default_delete@H@std@@@1@@Z@4HA DD imagerel ?dtor$0@?0???$?0HU?$default_delete@H@std@@$0A@@?$shared_ptr@H@std@@QEAA@$$QEAV?$unique_ptr@HU?$default_delete@H@std@@@1@@Z@4HA
	DD	imagerel ?dtor$0@?0???$?0HU?$default_delete@H@std@@$0A@@?$shared_ptr@H@std@@QEAA@$$QEAV?$unique_ptr@HU?$default_delete@H@std@@@1@@Z@4HA+44
	DD	imagerel $unwind$?dtor$0@?0???$?0HU?$default_delete@H@std@@$0A@@?$shared_ptr@H@std@@QEAA@$$QEAV?$unique_ptr@HU?$default_delete@H@std@@@1@@Z@4HA
pdata	ENDS
;	COMDAT pdata
pdata	SEGMENT
$pdata$??$?0UC@?1??SharedPtrFunc@cpp11@@AEAAXXZ@$0A@@?$shared_ptr@UC@?1??SharedPtrFunc@cpp11@@AEAAXXZ@@std@@QEAA@PEAUC@?1??SharedPtrFunc@cpp11@@AEAAXXZ@@Z DD imagerel ??$?0UC@?1??SharedPtrFunc@cpp11@@AEAAXXZ@$0A@@?$shared_ptr@UC@?1??SharedPtrFunc@cpp11@@AEAAXXZ@@std@@QEAA@PEAUC@?1??SharedPtrFunc@cpp11@@AEAAXXZ@@Z
	DD	imagerel ??$?0UC@?1??SharedPtrFunc@cpp11@@AEAAXXZ@$0A@@?$shared_ptr@UC@?1??SharedPtrFunc@cpp11@@AEAAXXZ@@std@@QEAA@PEAUC@?1??SharedPtrFunc@cpp11@@AEAAXXZ@@Z+321
	DD	imagerel $unwind$??$?0UC@?1??SharedPtrFunc@cpp11@@AEAAXXZ@$0A@@?$shared_ptr@UC@?1??SharedPtrFunc@cpp11@@AEAAXXZ@@std@@QEAA@PEAUC@?1??SharedPtrFunc@cpp11@@AEAAXXZ@@Z
pdata	ENDS
;	COMDAT pdata
pdata	SEGMENT
$pdata$?dtor$0@?0???$?0UC@?1??SharedPtrFunc@cpp11@@AEAAXXZ@$0A@@?$shared_ptr@UC@?1??SharedPtrFunc@cpp11@@AEAAXXZ@@std@@QEAA@PEAUC@?1??SharedPtrFunc@cpp11@@AEAAXXZ@@Z@4HA DD imagerel ?dtor$0@?0???$?0UC@?1??SharedPtrFunc@cpp11@@AEAAXXZ@$0A@@?$shared_ptr@UC@?1??SharedPtrFunc@cpp11@@AEAAXXZ@@std@@QEAA@PEAUC@?1??SharedPtrFunc@cpp11@@AEAAXXZ@@Z@4HA
	DD	imagerel ?dtor$0@?0???$?0UC@?1??SharedPtrFunc@cpp11@@AEAAXXZ@$0A@@?$shared_ptr@UC@?1??SharedPtrFunc@cpp11@@AEAAXXZ@@std@@QEAA@PEAUC@?1??SharedPtrFunc@cpp11@@AEAAXXZ@@Z@4HA+36
	DD	imagerel $unwind$?dtor$0@?0???$?0UC@?1??SharedPtrFunc@cpp11@@AEAAXXZ@$0A@@?$shared_ptr@UC@?1??SharedPtrFunc@cpp11@@AEAAXXZ@@std@@QEAA@PEAUC@?1??SharedPtrFunc@cpp11@@AEAAXXZ@@Z@4HA
pdata	ENDS
;	COMDAT pdata
pdata	SEGMENT
$pdata$?dtor$1@?0???$?0UC@?1??SharedPtrFunc@cpp11@@AEAAXXZ@$0A@@?$shared_ptr@UC@?1??SharedPtrFunc@cpp11@@AEAAXXZ@@std@@QEAA@PEAUC@?1??SharedPtrFunc@cpp11@@AEAAXXZ@@Z@4HA DD imagerel ?dtor$1@?0???$?0UC@?1??SharedPtrFunc@cpp11@@AEAAXXZ@$0A@@?$shared_ptr@UC@?1??SharedPtrFunc@cpp11@@AEAAXXZ@@std@@QEAA@PEAUC@?1??SharedPtrFunc@cpp11@@AEAAXXZ@@Z@4HA
	DD	imagerel ?dtor$1@?0???$?0UC@?1??SharedPtrFunc@cpp11@@AEAAXXZ@$0A@@?$shared_ptr@UC@?1??SharedPtrFunc@cpp11@@AEAAXXZ@@std@@QEAA@PEAUC@?1??SharedPtrFunc@cpp11@@AEAAXXZ@@Z@4HA+44
	DD	imagerel $unwind$?dtor$1@?0???$?0UC@?1??SharedPtrFunc@cpp11@@AEAAXXZ@$0A@@?$shared_ptr@UC@?1??SharedPtrFunc@cpp11@@AEAAXXZ@@std@@QEAA@PEAUC@?1??SharedPtrFunc@cpp11@@AEAAXXZ@@Z@4HA
pdata	ENDS
;	COMDAT pdata
pdata	SEGMENT
$pdata$??$?0UC@?1??SharedPtrFunc@cpp11@@AEAAXXZ@@?$shared_ptr@H@std@@QEAA@AEBV?$shared_ptr@UC@?1??SharedPtrFunc@cpp11@@AEAAXXZ@@1@PEAH@Z DD imagerel ??$?0UC@?1??SharedPtrFunc@cpp11@@AEAAXXZ@@?$shared_ptr@H@std@@QEAA@AEBV?$shared_ptr@UC@?1??SharedPtrFunc@cpp11@@AEAAXXZ@@1@PEAH@Z
	DD	imagerel ??$?0UC@?1??SharedPtrFunc@cpp11@@AEAAXXZ@@?$shared_ptr@H@std@@QEAA@AEBV?$shared_ptr@UC@?1??SharedPtrFunc@cpp11@@AEAAXXZ@@1@PEAH@Z+122
	DD	imagerel $unwind$??$?0UC@?1??SharedPtrFunc@cpp11@@AEAAXXZ@@?$shared_ptr@H@std@@QEAA@AEBV?$shared_ptr@UC@?1??SharedPtrFunc@cpp11@@AEAAXXZ@@1@PEAH@Z
pdata	ENDS
;	COMDAT pdata
pdata	SEGMENT
$pdata$??$allocate_shared@HV?$allocator@H@std@@H@std@@YA?AV?$shared_ptr@H@0@AEBV?$allocator@H@0@$$QEAH@Z DD imagerel $LN7
	DD	imagerel $LN7+348
	DD	imagerel $unwind$??$allocate_shared@HV?$allocator@H@std@@H@std@@YA?AV?$shared_ptr@H@0@AEBV?$allocator@H@0@$$QEAH@Z
pdata	ENDS
;	COMDAT pdata
pdata	SEGMENT
$pdata$?dtor$0@?0???$allocate_shared@HV?$allocator@H@std@@H@std@@YA?AV?$shared_ptr@H@0@AEBV?$allocator@H@0@$$QEAH@Z@4HA DD imagerel ?dtor$0@?0???$allocate_shared@HV?$allocator@H@std@@H@std@@YA?AV?$shared_ptr@H@0@AEBV?$allocator@H@0@$$QEAH@Z@4HA
	DD	imagerel ?dtor$0@?0???$allocate_shared@HV?$allocator@H@std@@H@std@@YA?AV?$shared_ptr@H@0@AEBV?$allocator@H@0@$$QEAH@Z@4HA+36
	DD	imagerel $unwind$?dtor$0@?0???$allocate_shared@HV?$allocator@H@std@@H@std@@YA?AV?$shared_ptr@H@0@AEBV?$allocator@H@0@$$QEAH@Z@4HA
pdata	ENDS
;	COMDAT pdata
pdata	SEGMENT
$pdata$?dtor$1@?0???$allocate_shared@HV?$allocator@H@std@@H@std@@YA?AV?$shared_ptr@H@0@AEBV?$allocator@H@0@$$QEAH@Z@4HA DD imagerel ?dtor$1@?0???$allocate_shared@HV?$allocator@H@std@@H@std@@YA?AV?$shared_ptr@H@0@AEBV?$allocator@H@0@$$QEAH@Z@4HA
	DD	imagerel ?dtor$1@?0???$allocate_shared@HV?$allocator@H@std@@H@std@@YA?AV?$shared_ptr@H@0@AEBV?$allocator@H@0@$$QEAH@Z@4HA+36
	DD	imagerel $unwind$?dtor$1@?0???$allocate_shared@HV?$allocator@H@std@@H@std@@YA?AV?$shared_ptr@H@0@AEBV?$allocator@H@0@$$QEAH@Z@4HA
pdata	ENDS
;	COMDAT pdata
pdata	SEGMENT
$pdata$??$allocate_shared@U?$pair@HH@std@@V?$allocator@H@2@HH@std@@YA?AV?$shared_ptr@U?$pair@HH@std@@@0@AEBV?$allocator@H@0@$$QEAH1@Z DD imagerel $LN7
	DD	imagerel $LN7+390
	DD	imagerel $unwind$??$allocate_shared@U?$pair@HH@std@@V?$allocator@H@2@HH@std@@YA?AV?$shared_ptr@U?$pair@HH@std@@@0@AEBV?$allocator@H@0@$$QEAH1@Z
pdata	ENDS
;	COMDAT pdata
pdata	SEGMENT
$pdata$?dtor$0@?0???$allocate_shared@U?$pair@HH@std@@V?$allocator@H@2@HH@std@@YA?AV?$shared_ptr@U?$pair@HH@std@@@0@AEBV?$allocator@H@0@$$QEAH1@Z@4HA DD imagerel ?dtor$0@?0???$allocate_shared@U?$pair@HH@std@@V?$allocator@H@2@HH@std@@YA?AV?$shared_ptr@U?$pair@HH@std@@@0@AEBV?$allocator@H@0@$$QEAH1@Z@4HA
	DD	imagerel ?dtor$0@?0???$allocate_shared@U?$pair@HH@std@@V?$allocator@H@2@HH@std@@YA?AV?$shared_ptr@U?$pair@HH@std@@@0@AEBV?$allocator@H@0@$$QEAH1@Z@4HA+36
	DD	imagerel $unwind$?dtor$0@?0???$allocate_shared@U?$pair@HH@std@@V?$allocator@H@2@HH@std@@YA?AV?$shared_ptr@U?$pair@HH@std@@@0@AEBV?$allocator@H@0@$$QEAH1@Z@4HA
pdata	ENDS
;	COMDAT pdata
pdata	SEGMENT
$pdata$?dtor$1@?0???$allocate_shared@U?$pair@HH@std@@V?$allocator@H@2@HH@std@@YA?AV?$shared_ptr@U?$pair@HH@std@@@0@AEBV?$allocator@H@0@$$QEAH1@Z@4HA DD imagerel ?dtor$1@?0???$allocate_shared@U?$pair@HH@std@@V?$allocator@H@2@HH@std@@YA?AV?$shared_ptr@U?$pair@HH@std@@@0@AEBV?$allocator@H@0@$$QEAH1@Z@4HA
	DD	imagerel ?dtor$1@?0???$allocate_shared@U?$pair@HH@std@@V?$allocator@H@2@HH@std@@YA?AV?$shared_ptr@U?$pair@HH@std@@@0@AEBV?$allocator@H@0@$$QEAH1@Z@4HA+36
	DD	imagerel $unwind$?dtor$1@?0???$allocate_shared@U?$pair@HH@std@@V?$allocator@H@2@HH@std@@YA?AV?$shared_ptr@U?$pair@HH@std@@@0@AEBV?$allocator@H@0@$$QEAH1@Z@4HA
pdata	ENDS
;	COMDAT pdata
pdata	SEGMENT
$pdata$?get@?$_Ptr_base@U?$pair@HH@std@@@std@@IEBAPEAU?$pair@HH@2@XZ DD imagerel $LN3
	DD	imagerel $LN3+75
	DD	imagerel $unwind$?get@?$_Ptr_base@U?$pair@HH@std@@@std@@IEBAPEAU?$pair@HH@2@XZ
pdata	ENDS
;	COMDAT pdata
pdata	SEGMENT
$pdata$??0?$_Ptr_base@U?$pair@HH@std@@@std@@IEAA@XZ DD imagerel $LN3
	DD	imagerel $LN3+101
	DD	imagerel $unwind$??0?$_Ptr_base@U?$pair@HH@std@@@std@@IEAA@XZ
pdata	ENDS
;	COMDAT pdata
pdata	SEGMENT
$pdata$?_Decref@?$_Ptr_base@U?$pair@HH@std@@@std@@IEAAXXZ DD imagerel $LN4
	DD	imagerel $LN4+96
	DD	imagerel $unwind$?_Decref@?$_Ptr_base@U?$pair@HH@std@@@std@@IEAAXXZ
pdata	ENDS
;	COMDAT pdata
pdata	SEGMENT
$pdata$??0?$shared_ptr@U?$pair@HH@std@@@std@@QEAA@XZ DD imagerel $LN3
	DD	imagerel $LN3+85
	DD	imagerel $unwind$??0?$shared_ptr@U?$pair@HH@std@@@std@@QEAA@XZ
pdata	ENDS
;	COMDAT pdata
pdata	SEGMENT
$pdata$??0?$shared_ptr@U?$pair@HH@std@@@std@@QEAA@$$QEAV01@@Z DD imagerel $LN3
	DD	imagerel $LN3+119
	DD	imagerel $unwind$??0?$shared_ptr@U?$pair@HH@std@@@std@@QEAA@$$QEAV01@@Z
pdata	ENDS
;	COMDAT pdata
pdata	SEGMENT
$pdata$??1?$shared_ptr@U?$pair@HH@std@@@std@@QEAA@XZ DD imagerel $LN3
	DD	imagerel $LN3+78
	DD	imagerel $unwind$??1?$shared_ptr@U?$pair@HH@std@@@std@@QEAA@XZ
pdata	ENDS
;	COMDAT pdata
pdata	SEGMENT
$pdata$?__autoclassinit2@?$shared_ptr@U?$pair@HH@std@@@std@@QEAAX_K@Z DD imagerel $LN3
	DD	imagerel $LN3+73
	DD	imagerel $unwind$?__autoclassinit2@?$shared_ptr@U?$pair@HH@std@@@std@@QEAAX_K@Z
pdata	ENDS
;	COMDAT pdata
pdata	SEGMENT
$pdata$??$?CU?$pair@HH@std@@$0A@@?$shared_ptr@U?$pair@HH@std@@@std@@QEBAPEAU?$pair@HH@1@XZ DD imagerel $LN3
	DD	imagerel $LN3+78
	DD	imagerel $unwind$??$?CU?$pair@HH@std@@$0A@@?$shared_ptr@U?$pair@HH@std@@@std@@QEBAPEAU?$pair@HH@1@XZ
pdata	ENDS
;	COMDAT pdata
pdata	SEGMENT
$pdata$??0?$allocator@V?$basic_string@DU?$char_traits@D@std@@V?$allocator@D@2@@std@@@std@@QEAA@XZ DD imagerel $LN3
	DD	imagerel $LN3+72
	DD	imagerel $unwind$??0?$allocator@V?$basic_string@DU?$char_traits@D@std@@V?$allocator@D@2@@std@@@std@@QEAA@XZ
pdata	ENDS
;	COMDAT pdata
pdata	SEGMENT
$pdata$?deallocate@?$allocator@V?$basic_string@DU?$char_traits@D@std@@V?$allocator@D@2@@std@@@std@@QEAAXQEAV?$basic_string@DU?$char_traits@D@std@@V?$allocator@D@2@@2@_K@Z DD imagerel $LN3
	DD	imagerel $LN3+97
	DD	imagerel $unwind$?deallocate@?$allocator@V?$basic_string@DU?$char_traits@D@std@@V?$allocator@D@2@@std@@@std@@QEAAXQEAV?$basic_string@DU?$char_traits@D@std@@V?$allocator@D@2@@2@_K@Z
pdata	ENDS
;	COMDAT pdata
pdata	SEGMENT
$pdata$?allocate@?$allocator@V?$basic_string@DU?$char_traits@D@std@@V?$allocator@D@2@@std@@@std@@QEAAPEAV?$basic_string@DU?$char_traits@D@std@@V?$allocator@D@2@@2@_K@Z DD imagerel $LN3
	DD	imagerel $LN3+89
	DD	imagerel $unwind$?allocate@?$allocator@V?$basic_string@DU?$char_traits@D@std@@V?$allocator@D@2@@std@@@std@@QEAAPEAV?$basic_string@DU?$char_traits@D@std@@V?$allocator@D@2@@2@_K@Z
pdata	ENDS
;	COMDAT pdata
pdata	SEGMENT
$pdata$?max_size@?$_Default_allocator_traits@V?$allocator@V?$basic_string@DU?$char_traits@D@std@@V?$allocator@D@2@@std@@@std@@@std@@SA_KAEBV?$allocator@V?$basic_string@DU?$char_traits@D@std@@V?$allocator@D@2@@std@@@2@@Z DD imagerel $LN3
	DD	imagerel $LN3+75
	DD	imagerel $unwind$?max_size@?$_Default_allocator_traits@V?$allocator@V?$basic_string@DU?$char_traits@D@std@@V?$allocator@D@2@@std@@@std@@@std@@SA_KAEBV?$allocator@V?$basic_string@DU?$char_traits@D@std@@V?$allocator@D@2@@std@@@2@@Z
pdata	ENDS
;	COMDAT pdata
pdata	SEGMENT
$pdata$??0?$vector@V?$basic_string@DU?$char_traits@D@std@@V?$allocator@D@2@@std@@V?$allocator@V?$basic_string@DU?$char_traits@D@std@@V?$allocator@D@2@@std@@@2@@std@@QEAA@V?$initializer_list@V?$basic_string@DU?$char_traits@D@std@@V?$allocator@D@2@@std@@@1@AEBV?$allocator@V?$basic_string@DU?$char_traits@D@std@@V?$allocator@D@2@@std@@@1@@Z DD imagerel $LN4
	DD	imagerel $LN4+367
	DD	imagerel $unwind$??0?$vector@V?$basic_string@DU?$char_traits@D@std@@V?$allocator@D@2@@std@@V?$allocator@V?$basic_string@DU?$char_traits@D@std@@V?$allocator@D@2@@std@@@2@@std@@QEAA@V?$initializer_list@V?$basic_string@DU?$char_traits@D@std@@V?$allocator@D@2@@std@@@1@AEBV?$allocator@V?$basic_string@DU?$char_traits@D@std@@V?$allocator@D@2@@std@@@1@@Z
pdata	ENDS
;	COMDAT pdata
pdata	SEGMENT
$pdata$?dtor$0@?0???0?$vector@V?$basic_string@DU?$char_traits@D@std@@V?$allocator@D@2@@std@@V?$allocator@V?$basic_string@DU?$char_traits@D@std@@V?$allocator@D@2@@std@@@2@@std@@QEAA@V?$initializer_list@V?$basic_string@DU?$char_traits@D@std@@V?$allocator@D@2@@std@@@1@AEBV?$allocator@V?$basic_string@DU?$char_traits@D@std@@V?$allocator@D@2@@std@@@1@@Z@4HA DD imagerel ?dtor$0@?0???0?$vector@V?$basic_string@DU?$char_traits@D@std@@V?$allocator@D@2@@std@@V?$allocator@V?$basic_string@DU?$char_traits@D@std@@V?$allocator@D@2@@std@@@2@@std@@QEAA@V?$initializer_list@V?$basic_string@DU?$char_traits@D@std@@V?$allocator@D@2@@std@@@1@AEBV?$allocator@V?$basic_string@DU?$char_traits@D@std@@V?$allocator@D@2@@std@@@1@@Z@4HA
	DD	imagerel ?dtor$0@?0???0?$vector@V?$basic_string@DU?$char_traits@D@std@@V?$allocator@D@2@@std@@V?$allocator@V?$basic_string@DU?$char_traits@D@std@@V?$allocator@D@2@@std@@@2@@std@@QEAA@V?$initializer_list@V?$basic_string@DU?$char_traits@D@std@@V?$allocator@D@2@@std@@@1@AEBV?$allocator@V?$basic_string@DU?$char_traits@D@std@@V?$allocator@D@2@@std@@@1@@Z@4HA+36
	DD	imagerel $unwind$?dtor$0@?0???0?$vector@V?$basic_string@DU?$char_traits@D@std@@V?$allocator@D@2@@std@@V?$allocator@V?$basic_string@DU?$char_traits@D@std@@V?$allocator@D@2@@std@@@2@@std@@QEAA@V?$initializer_list@V?$basic_string@DU?$char_traits@D@std@@V?$allocator@D@2@@std@@@1@AEBV?$allocator@V?$basic_string@DU?$char_traits@D@std@@V?$allocator@D@2@@std@@@1@@Z@4HA
pdata	ENDS
;	COMDAT pdata
pdata	SEGMENT
$pdata$?_Move_construct@?$vector@V?$basic_string@DU?$char_traits@D@std@@V?$allocator@D@2@@std@@V?$allocator@V?$basic_string@DU?$char_traits@D@std@@V?$allocator@D@2@@std@@@2@@std@@AEAAXAEAV12@U?$integral_constant@_N$00@2@@Z DD imagerel $LN3
	DD	imagerel $LN3+112
	DD	imagerel $unwind$?_Move_construct@?$vector@V?$basic_string@DU?$char_traits@D@std@@V?$allocator@D@2@@std@@V?$allocator@V?$basic_string@DU?$char_traits@D@std@@V?$allocator@D@2@@std@@@2@@std@@AEAAXAEAV12@U?$integral_constant@_N$00@2@@Z
pdata	ENDS
;	COMDAT pdata
pdata	SEGMENT
$pdata$??0?$vector@V?$basic_string@DU?$char_traits@D@std@@V?$allocator@D@2@@std@@V?$allocator@V?$basic_string@DU?$char_traits@D@std@@V?$allocator@D@2@@std@@@2@@std@@QEAA@$$QEAV01@@Z DD imagerel $LN3
	DD	imagerel $LN3+266
	DD	imagerel $unwind$??0?$vector@V?$basic_string@DU?$char_traits@D@std@@V?$allocator@D@2@@std@@V?$allocator@V?$basic_string@DU?$char_traits@D@std@@V?$allocator@D@2@@std@@@2@@std@@QEAA@$$QEAV01@@Z
pdata	ENDS
;	COMDAT pdata
pdata	SEGMENT
$pdata$??1?$vector@V?$basic_string@DU?$char_traits@D@std@@V?$allocator@D@2@@std@@V?$allocator@V?$basic_string@DU?$char_traits@D@std@@V?$allocator@D@2@@std@@@2@@std@@QEAA@XZ DD imagerel $LN3
	DD	imagerel $LN3+209
	DD	imagerel $unwind$??1?$vector@V?$basic_string@DU?$char_traits@D@std@@V?$allocator@D@2@@std@@V?$allocator@V?$basic_string@DU?$char_traits@D@std@@V?$allocator@D@2@@std@@@2@@std@@QEAA@XZ
pdata	ENDS
;	COMDAT pdata
pdata	SEGMENT
$pdata$?empty@?$vector@V?$basic_string@DU?$char_traits@D@std@@V?$allocator@D@2@@std@@V?$allocator@V?$basic_string@DU?$char_traits@D@std@@V?$allocator@D@2@@std@@@2@@std@@QEBA_NXZ DD imagerel $LN5
	DD	imagerel $LN5+123
	DD	imagerel $unwind$?empty@?$vector@V?$basic_string@DU?$char_traits@D@std@@V?$allocator@D@2@@std@@V?$allocator@V?$basic_string@DU?$char_traits@D@std@@V?$allocator@D@2@@std@@@2@@std@@QEBA_NXZ
pdata	ENDS
;	COMDAT pdata
pdata	SEGMENT
$pdata$?size@?$vector@V?$basic_string@DU?$char_traits@D@std@@V?$allocator@D@2@@std@@V?$allocator@V?$basic_string@DU?$char_traits@D@std@@V?$allocator@D@2@@std@@@2@@std@@QEBA_KXZ DD imagerel $LN3
	DD	imagerel $LN3+105
	DD	imagerel $unwind$?size@?$vector@V?$basic_string@DU?$char_traits@D@std@@V?$allocator@D@2@@std@@V?$allocator@V?$basic_string@DU?$char_traits@D@std@@V?$allocator@D@2@@std@@@2@@std@@QEBA_KXZ
pdata	ENDS
;	COMDAT pdata
pdata	SEGMENT
$pdata$?max_size@?$vector@V?$basic_string@DU?$char_traits@D@std@@V?$allocator@D@2@@std@@V?$allocator@V?$basic_string@DU?$char_traits@D@std@@V?$allocator@D@2@@std@@@2@@std@@QEBA_KXZ DD imagerel $LN3
	DD	imagerel $LN3+130
	DD	imagerel $unwind$?max_size@?$vector@V?$basic_string@DU?$char_traits@D@std@@V?$allocator@D@2@@std@@V?$allocator@V?$basic_string@DU?$char_traits@D@std@@V?$allocator@D@2@@std@@@2@@std@@QEBA_KXZ
pdata	ENDS
;	COMDAT pdata
pdata	SEGMENT
$pdata$??A?$vector@V?$basic_string@DU?$char_traits@D@std@@V?$allocator@D@2@@std@@V?$allocator@V?$basic_string@DU?$char_traits@D@std@@V?$allocator@D@2@@std@@@2@@std@@QEAAAEAV?$basic_string@DU?$char_traits@D@std@@V?$allocator@D@2@@1@_K@Z DD imagerel $LN12
	DD	imagerel $LN12+256
	DD	imagerel $unwind$??A?$vector@V?$basic_string@DU?$char_traits@D@std@@V?$allocator@D@2@@std@@V?$allocator@V?$basic_string@DU?$char_traits@D@std@@V?$allocator@D@2@@std@@@2@@std@@QEAAAEAV?$basic_string@DU?$char_traits@D@std@@V?$allocator@D@2@@1@_K@Z
pdata	ENDS
;	COMDAT pdata
pdata	SEGMENT
$pdata$?_Destroy@?$vector@V?$basic_string@DU?$char_traits@D@std@@V?$allocator@D@2@@std@@V?$allocator@V?$basic_string@DU?$char_traits@D@std@@V?$allocator@D@2@@std@@@2@@std@@AEAAXPEAV?$basic_string@DU?$char_traits@D@std@@V?$allocator@D@2@@2@0@Z DD imagerel $LN3
	DD	imagerel $LN3+108
	DD	imagerel $unwind$?_Destroy@?$vector@V?$basic_string@DU?$char_traits@D@std@@V?$allocator@D@2@@std@@V?$allocator@V?$basic_string@DU?$char_traits@D@std@@V?$allocator@D@2@@std@@@2@@std@@AEAAXPEAV?$basic_string@DU?$char_traits@D@std@@V?$allocator@D@2@@2@0@Z
pdata	ENDS
;	COMDAT pdata
pdata	SEGMENT
$pdata$?_Buy_raw@?$vector@V?$basic_string@DU?$char_traits@D@std@@V?$allocator@D@2@@std@@V?$allocator@V?$basic_string@DU?$char_traits@D@std@@V?$allocator@D@2@@std@@@2@@std@@AEAAX_K@Z DD imagerel $LN3
	DD	imagerel $LN3+217
	DD	imagerel $unwind$?_Buy_raw@?$vector@V?$basic_string@DU?$char_traits@D@std@@V?$allocator@D@2@@std@@V?$allocator@V?$basic_string@DU?$char_traits@D@std@@V?$allocator@D@2@@std@@@2@@std@@AEAAX_K@Z
pdata	ENDS
;	COMDAT pdata
pdata	SEGMENT
$pdata$?_Buy_nonzero@?$vector@V?$basic_string@DU?$char_traits@D@std@@V?$allocator@D@2@@std@@V?$allocator@V?$basic_string@DU?$char_traits@D@std@@V?$allocator@D@2@@std@@@2@@std@@AEAAX_K@Z DD imagerel $LN4
	DD	imagerel $LN4+114
	DD	imagerel $unwind$?_Buy_nonzero@?$vector@V?$basic_string@DU?$char_traits@D@std@@V?$allocator@D@2@@std@@V?$allocator@V?$basic_string@DU?$char_traits@D@std@@V?$allocator@D@2@@std@@@2@@std@@AEAAX_K@Z
pdata	ENDS
;	COMDAT pdata
pdata	SEGMENT
$pdata$?_Tidy@?$vector@V?$basic_string@DU?$char_traits@D@std@@V?$allocator@D@2@@std@@V?$allocator@V?$basic_string@DU?$char_traits@D@std@@V?$allocator@D@2@@std@@@2@@std@@AEAAXXZ DD imagerel $LN4
	DD	imagerel $LN4+291
	DD	imagerel $unwind$?_Tidy@?$vector@V?$basic_string@DU?$char_traits@D@std@@V?$allocator@D@2@@std@@V?$allocator@V?$basic_string@DU?$char_traits@D@std@@V?$allocator@D@2@@std@@@2@@std@@AEAAXXZ
pdata	ENDS
;	COMDAT pdata
pdata	SEGMENT
$pdata$?_Xlength@?$vector@V?$basic_string@DU?$char_traits@D@std@@V?$allocator@D@2@@std@@V?$allocator@V?$basic_string@DU?$char_traits@D@std@@V?$allocator@D@2@@std@@@2@@std@@CAXXZ DD imagerel $LN3
	DD	imagerel $LN3+64
	DD	imagerel $unwind$?_Xlength@?$vector@V?$basic_string@DU?$char_traits@D@std@@V?$allocator@D@2@@std@@V?$allocator@V?$basic_string@DU?$char_traits@D@std@@V?$allocator@D@2@@std@@@2@@std@@CAXXZ
pdata	ENDS
;	COMDAT pdata
pdata	SEGMENT
$pdata$?_Getal@?$vector@V?$basic_string@DU?$char_traits@D@std@@V?$allocator@D@2@@std@@V?$allocator@V?$basic_string@DU?$char_traits@D@std@@V?$allocator@D@2@@std@@@2@@std@@AEAAAEAV?$allocator@V?$basic_string@DU?$char_traits@D@std@@V?$allocator@D@2@@std@@@2@XZ DD imagerel $LN3
	DD	imagerel $LN3+81
	DD	imagerel $unwind$?_Getal@?$vector@V?$basic_string@DU?$char_traits@D@std@@V?$allocator@D@2@@std@@V?$allocator@V?$basic_string@DU?$char_traits@D@std@@V?$allocator@D@2@@std@@@2@@std@@AEAAAEAV?$allocator@V?$basic_string@DU?$char_traits@D@std@@V?$allocator@D@2@@std@@@2@XZ
pdata	ENDS
;	COMDAT pdata
pdata	SEGMENT
$pdata$?_Getal@?$vector@V?$basic_string@DU?$char_traits@D@std@@V?$allocator@D@2@@std@@V?$allocator@V?$basic_string@DU?$char_traits@D@std@@V?$allocator@D@2@@std@@@2@@std@@AEBAAEBV?$allocator@V?$basic_string@DU?$char_traits@D@std@@V?$allocator@D@2@@std@@@2@XZ DD imagerel $LN3
	DD	imagerel $LN3+81
	DD	imagerel $unwind$?_Getal@?$vector@V?$basic_string@DU?$char_traits@D@std@@V?$allocator@D@2@@std@@V?$allocator@V?$basic_string@DU?$char_traits@D@std@@V?$allocator@D@2@@std@@@2@@std@@AEBAAEBV?$allocator@V?$basic_string@DU?$char_traits@D@std@@V?$allocator@D@2@@std@@@2@XZ
pdata	ENDS
;	COMDAT pdata
pdata	SEGMENT
$pdata$??0?$_Vector_val@U?$_Simple_types@V?$basic_string@DU?$char_traits@D@std@@V?$allocator@D@2@@std@@@std@@@std@@QEAA@XZ DD imagerel $LN3
	DD	imagerel $LN3+128
	DD	imagerel $unwind$??0?$_Vector_val@U?$_Simple_types@V?$basic_string@DU?$char_traits@D@std@@V?$allocator@D@2@@std@@@std@@@std@@QEAA@XZ
pdata	ENDS
;	COMDAT pdata
pdata	SEGMENT
$pdata$?_Take_contents@?$_Vector_val@U?$_Simple_types@V?$basic_string@DU?$char_traits@D@std@@V?$allocator@D@2@@std@@@std@@@std@@QEAAXAEAV12@@Z DD imagerel $LN3
	DD	imagerel $LN3+201
	DD	imagerel $unwind$?_Take_contents@?$_Vector_val@U?$_Simple_types@V?$basic_string@DU?$char_traits@D@std@@V?$allocator@D@2@@std@@@std@@@std@@QEAAXAEAV12@@Z
pdata	ENDS
;	COMDAT pdata
pdata	SEGMENT
$pdata$?_Get_first@?$_Compressed_pair@V?$allocator@V?$basic_string@DU?$char_traits@D@std@@V?$allocator@D@2@@std@@@std@@V?$_Vector_val@U?$_Simple_types@V?$basic_string@DU?$char_traits@D@std@@V?$allocator@D@2@@std@@@std@@@2@$00@std@@QEAAAEAV?$allocator@V?$basic_string@DU?$char_traits@D@std@@V?$allocator@D@2@@std@@@2@XZ DD imagerel $LN3
	DD	imagerel $LN3+72
	DD	imagerel $unwind$?_Get_first@?$_Compressed_pair@V?$allocator@V?$basic_string@DU?$char_traits@D@std@@V?$allocator@D@2@@std@@@std@@V?$_Vector_val@U?$_Simple_types@V?$basic_string@DU?$char_traits@D@std@@V?$allocator@D@2@@std@@@std@@@2@$00@std@@QEAAAEAV?$allocator@V?$basic_string@DU?$char_traits@D@std@@V?$allocator@D@2@@std@@@2@XZ
pdata	ENDS
;	COMDAT pdata
pdata	SEGMENT
$pdata$?_Get_first@?$_Compressed_pair@V?$allocator@V?$basic_string@DU?$char_traits@D@std@@V?$allocator@D@2@@std@@@std@@V?$_Vector_val@U?$_Simple_types@V?$basic_string@DU?$char_traits@D@std@@V?$allocator@D@2@@std@@@std@@@2@$00@std@@QEBAAEBV?$allocator@V?$basic_string@DU?$char_traits@D@std@@V?$allocator@D@2@@std@@@2@XZ DD imagerel $LN3
	DD	imagerel $LN3+72
	DD	imagerel $unwind$?_Get_first@?$_Compressed_pair@V?$allocator@V?$basic_string@DU?$char_traits@D@std@@V?$allocator@D@2@@std@@@std@@V?$_Vector_val@U?$_Simple_types@V?$basic_string@DU?$char_traits@D@std@@V?$allocator@D@2@@std@@@std@@@2@$00@std@@QEBAAEBV?$allocator@V?$basic_string@DU?$char_traits@D@std@@V?$allocator@D@2@@std@@@2@XZ
pdata	ENDS
;	COMDAT pdata
pdata	SEGMENT
$pdata$?__autoclassinit2@?$vector@V?$basic_string@DU?$char_traits@D@std@@V?$allocator@D@2@@std@@V?$allocator@V?$basic_string@DU?$char_traits@D@std@@V?$allocator@D@2@@std@@@2@@std@@QEAAX_K@Z DD imagerel $LN3
	DD	imagerel $LN3+73
	DD	imagerel $unwind$?__autoclassinit2@?$vector@V?$basic_string@DU?$char_traits@D@std@@V?$allocator@D@2@@std@@V?$allocator@V?$basic_string@DU?$char_traits@D@std@@V?$allocator@D@2@@std@@@2@@std@@QEAAX_K@Z
pdata	ENDS
;	COMDAT pdata
pdata	SEGMENT
$pdata$??0?$initializer_list@V?$basic_string@DU?$char_traits@D@std@@V?$allocator@D@2@@std@@@std@@QEAA@PEBV?$basic_string@DU?$char_traits@D@std@@V?$allocator@D@2@@1@0@Z DD imagerel $LN3
	DD	imagerel $LN3+117
	DD	imagerel $unwind$??0?$initializer_list@V?$basic_string@DU?$char_traits@D@std@@V?$allocator@D@2@@std@@@std@@QEAA@PEBV?$basic_string@DU?$char_traits@D@std@@V?$allocator@D@2@@1@0@Z
pdata	ENDS
;	COMDAT pdata
pdata	SEGMENT
$pdata$?begin@?$initializer_list@V?$basic_string@DU?$char_traits@D@std@@V?$allocator@D@2@@std@@@std@@QEBAPEBV?$basic_string@DU?$char_traits@D@std@@V?$allocator@D@2@@2@XZ DD imagerel $LN3
	DD	imagerel $LN3+75
	DD	imagerel $unwind$?begin@?$initializer_list@V?$basic_string@DU?$char_traits@D@std@@V?$allocator@D@2@@std@@@std@@QEBAPEBV?$basic_string@DU?$char_traits@D@std@@V?$allocator@D@2@@2@XZ
pdata	ENDS
;	COMDAT pdata
pdata	SEGMENT
$pdata$?end@?$initializer_list@V?$basic_string@DU?$char_traits@D@std@@V?$allocator@D@2@@std@@@std@@QEBAPEBV?$basic_string@DU?$char_traits@D@std@@V?$allocator@D@2@@2@XZ DD imagerel $LN3
	DD	imagerel $LN3+76
	DD	imagerel $unwind$?end@?$initializer_list@V?$basic_string@DU?$char_traits@D@std@@V?$allocator@D@2@@std@@@std@@QEBAPEBV?$basic_string@DU?$char_traits@D@std@@V?$allocator@D@2@@2@XZ
pdata	ENDS
;	COMDAT pdata
pdata	SEGMENT
$pdata$??$?6DU?$char_traits@D@std@@V?$allocator@D@1@@std@@YAAEAV?$basic_ostream@DU?$char_traits@D@std@@@0@AEAV10@AEBV?$basic_string@DU?$char_traits@D@std@@V?$allocator@D@2@@0@@Z DD imagerel $LN3
	DD	imagerel $LN3+133
	DD	imagerel $unwind$??$?6DU?$char_traits@D@std@@V?$allocator@D@1@@std@@YAAEAV?$basic_ostream@DU?$char_traits@D@std@@@0@AEAV10@AEBV?$basic_string@DU?$char_traits@D@std@@V?$allocator@D@2@@0@@Z
pdata	ENDS
;	COMDAT pdata
pdata	SEGMENT
$pdata$??$move@AEAV?$vector@V?$basic_string@DU?$char_traits@D@std@@V?$allocator@D@2@@std@@V?$allocator@V?$basic_string@DU?$char_traits@D@std@@V?$allocator@D@2@@std@@@2@@std@@@std@@YA$$QEAV?$vector@V?$basic_string@DU?$char_traits@D@std@@V?$allocator@D@2@@std@@V?$allocator@V?$basic_string@DU?$char_traits@D@std@@V?$allocator@D@2@@std@@@2@@0@AEAV10@@Z DD imagerel $LN3
	DD	imagerel $LN3+72
	DD	imagerel $unwind$??$move@AEAV?$vector@V?$basic_string@DU?$char_traits@D@std@@V?$allocator@D@2@@std@@V?$allocator@V?$basic_string@DU?$char_traits@D@std@@V?$allocator@D@2@@std@@@2@@std@@@std@@YA$$QEAV?$vector@V?$basic_string@DU?$char_traits@D@std@@V?$allocator@D@2@@std@@V?$allocator@V?$basic_string@DU?$char_traits@D@std@@V?$allocator@D@2@@std@@@2@@0@AEAV10@@Z
pdata	ENDS
;	COMDAT pdata
pdata	SEGMENT
$pdata$??$TestForward@H@?A0x8e55e522@@YAX$$QEAH@Z DD imagerel ??$TestForward@H@?A0x8e55e522@@YAX$$QEAH@Z
	DD	imagerel ??$TestForward@H@?A0x8e55e522@@YAX$$QEAH@Z+116
	DD	imagerel $unwind$??$TestForward@H@?A0x8e55e522@@YAX$$QEAH@Z
pdata	ENDS
;	COMDAT pdata
pdata	SEGMENT
$pdata$??$TestForward@AEAH@?A0x8e55e522@@YAXAEAH@Z DD imagerel ??$TestForward@AEAH@?A0x8e55e522@@YAXAEAH@Z
	DD	imagerel ??$TestForward@AEAH@?A0x8e55e522@@YAXAEAH@Z+116
	DD	imagerel $unwind$??$TestForward@AEAH@?A0x8e55e522@@YAXAEAH@Z
pdata	ENDS
;	COMDAT pdata
pdata	SEGMENT
$pdata$??$forward@H@std@@YA$$QEAHAEAH@Z DD imagerel $LN3
	DD	imagerel $LN3+72
	DD	imagerel $unwind$??$forward@H@std@@YA$$QEAHAEAH@Z
pdata	ENDS
;	COMDAT pdata
pdata	SEGMENT
$pdata$?test0@?A0x8e55e522@@YAXXZ DD imagerel ?test0@?A0x8e55e522@@YAXXZ
	DD	imagerel ?test0@?A0x8e55e522@@YAXXZ+98
	DD	imagerel $unwind$?test0@?A0x8e55e522@@YAXXZ
pdata	ENDS
;	COMDAT pdata
pdata	SEGMENT
$pdata$?test1@?A0x8e55e522@@YAHXZ DD imagerel ?test1@?A0x8e55e522@@YAHXZ
	DD	imagerel ?test1@?A0x8e55e522@@YAHXZ+57
	DD	imagerel $unwind$?test1@?A0x8e55e522@@YAHXZ
pdata	ENDS
;	COMDAT pdata
pdata	SEGMENT
$pdata$??$ForwardWapper@A6AXXZ$$V@?A0x8e55e522@@YAXA6AXXZ@Z DD imagerel ??$ForwardWapper@A6AXXZ$$V@?A0x8e55e522@@YAXA6AXXZ@Z
	DD	imagerel ??$ForwardWapper@A6AXXZ$$V@?A0x8e55e522@@YAXA6AXXZ@Z+70
	DD	imagerel $unwind$??$ForwardWapper@A6AXXZ$$V@?A0x8e55e522@@YAXA6AXXZ@Z
pdata	ENDS
;	COMDAT pdata
pdata	SEGMENT
$pdata$??$ForwardWapper@A6AHXZ$$V@?A0x8e55e522@@YAHA6AHXZ@Z DD imagerel ??$ForwardWapper@A6AHXZ$$V@?A0x8e55e522@@YAHA6AHXZ@Z
	DD	imagerel ??$ForwardWapper@A6AHXZ$$V@?A0x8e55e522@@YAHA6AHXZ@Z+70
	DD	imagerel $unwind$??$ForwardWapper@A6AHXZ$$V@?A0x8e55e522@@YAHA6AHXZ@Z
pdata	ENDS
;	COMDAT pdata
pdata	SEGMENT
$pdata$??0Complicated@?1??EmplaceFunc@cpp11@@AEAAXXZ@QEAA@HNV?$basic_string@DU?$char_traits@D@std@@V?$allocator@D@2@@std@@@Z DD imagerel ??0Complicated@?1??EmplaceFunc@cpp11@@AEAAXXZ@QEAA@HNV?$basic_string@DU?$char_traits@D@std@@V?$allocator@D@2@@std@@@Z
	DD	imagerel ??0Complicated@?1??EmplaceFunc@cpp11@@AEAAXXZ@QEAA@HNV?$basic_string@DU?$char_traits@D@std@@V?$allocator@D@2@@std@@@Z+218
	DD	imagerel $unwind$??0Complicated@?1??EmplaceFunc@cpp11@@AEAAXXZ@QEAA@HNV?$basic_string@DU?$char_traits@D@std@@V?$allocator@D@2@@std@@@Z
pdata	ENDS
;	COMDAT pdata
pdata	SEGMENT
$pdata$?dtor$0@?0???0Complicated@?1??EmplaceFunc@cpp11@@AEAAXXZ@QEAA@HNV?$basic_string@DU?$char_traits@D@std@@V?$allocator@D@2@@std@@@Z@4HA DD imagerel ?dtor$0@?0???0Complicated@?1??EmplaceFunc@cpp11@@AEAAXXZ@QEAA@HNV?$basic_string@DU?$char_traits@D@std@@V?$allocator@D@2@@std@@@Z@4HA
	DD	imagerel ?dtor$0@?0???0Complicated@?1??EmplaceFunc@cpp11@@AEAAXXZ@QEAA@HNV?$basic_string@DU?$char_traits@D@std@@V?$allocator@D@2@@std@@@Z@4HA+39
	DD	imagerel $unwind$?dtor$0@?0???0Complicated@?1??EmplaceFunc@cpp11@@AEAAXXZ@QEAA@HNV?$basic_string@DU?$char_traits@D@std@@V?$allocator@D@2@@std@@@Z@4HA
pdata	ENDS
;	COMDAT pdata
pdata	SEGMENT
$pdata$?dtor$1@?0???0Complicated@?1??EmplaceFunc@cpp11@@AEAAXXZ@QEAA@HNV?$basic_string@DU?$char_traits@D@std@@V?$allocator@D@2@@std@@@Z@4HA DD imagerel ?dtor$1@?0???0Complicated@?1??EmplaceFunc@cpp11@@AEAAXXZ@QEAA@HNV?$basic_string@DU?$char_traits@D@std@@V?$allocator@D@2@@std@@@Z@4HA
	DD	imagerel ?dtor$1@?0???0Complicated@?1??EmplaceFunc@cpp11@@AEAAXXZ@QEAA@HNV?$basic_string@DU?$char_traits@D@std@@V?$allocator@D@2@@std@@@Z@4HA+43
	DD	imagerel $unwind$?dtor$1@?0???0Complicated@?1??EmplaceFunc@cpp11@@AEAAXXZ@QEAA@HNV?$basic_string@DU?$char_traits@D@std@@V?$allocator@D@2@@std@@@Z@4HA
pdata	ENDS
;	COMDAT pdata
pdata	SEGMENT
$pdata$??0Complicated@?1??EmplaceFunc@cpp11@@AEAAXXZ@QEAA@AEBV0?1??12@AEAAXXZ@@Z DD imagerel ??0Complicated@?1??EmplaceFunc@cpp11@@AEAAXXZ@QEAA@AEBV0?1??12@AEAAXXZ@@Z
	DD	imagerel ??0Complicated@?1??EmplaceFunc@cpp11@@AEAAXXZ@QEAA@AEBV0?1??12@AEAAXXZ@@Z+218
	DD	imagerel $unwind$??0Complicated@?1??EmplaceFunc@cpp11@@AEAAXXZ@QEAA@AEBV0?1??12@AEAAXXZ@@Z
pdata	ENDS
;	COMDAT pdata
pdata	SEGMENT
$pdata$?dtor$0@?0???0Complicated@?1??EmplaceFunc@cpp11@@AEAAXXZ@QEAA@AEBV0?1??12@AEAAXXZ@@Z@4HA DD imagerel ?dtor$0@?0???0Complicated@?1??EmplaceFunc@cpp11@@AEAAXXZ@QEAA@AEBV0?1??12@AEAAXXZ@@Z@4HA
	DD	imagerel ?dtor$0@?0???0Complicated@?1??EmplaceFunc@cpp11@@AEAAXXZ@QEAA@AEBV0?1??12@AEAAXXZ@@Z@4HA+43
	DD	imagerel $unwind$?dtor$0@?0???0Complicated@?1??EmplaceFunc@cpp11@@AEAAXXZ@QEAA@AEBV0?1??12@AEAAXXZ@@Z@4HA
pdata	ENDS
;	COMDAT pdata
pdata	SEGMENT
$pdata$??1Complicated@?1??EmplaceFunc@cpp11@@AEAAXXZ@QEAA@XZ DD imagerel ??1Complicated@?1??EmplaceFunc@cpp11@@AEAAXXZ@QEAA@XZ
	DD	imagerel ??1Complicated@?1??EmplaceFunc@cpp11@@AEAAXXZ@QEAA@XZ+71
	DD	imagerel $unwind$??1Complicated@?1??EmplaceFunc@cpp11@@AEAAXXZ@QEAA@XZ
pdata	ENDS
;	COMDAT pdata
pdata	SEGMENT
$pdata$??_GComplicated@?1??EmplaceFunc@cpp11@@AEAAXXZ@QEAAPEAXI@Z DD imagerel ??_GComplicated@?1??EmplaceFunc@cpp11@@AEAAXXZ@QEAAPEAXI@Z
	DD	imagerel ??_GComplicated@?1??EmplaceFunc@cpp11@@AEAAXXZ@QEAAPEAXI@Z+105
	DD	imagerel $unwind$??_GComplicated@?1??EmplaceFunc@cpp11@@AEAAXXZ@QEAAPEAXI@Z
pdata	ENDS
;	COMDAT pdata
pdata	SEGMENT
$pdata$??$move@AEBV?$basic_string@DU?$char_traits@D@std@@V?$allocator@D@2@@std@@@std@@YA$$QEBV?$basic_string@DU?$char_traits@D@std@@V?$allocator@D@2@@0@AEBV10@@Z DD imagerel $LN3
	DD	imagerel $LN3+72
	DD	imagerel $unwind$??$move@AEBV?$basic_string@DU?$char_traits@D@std@@V?$allocator@D@2@@std@@@std@@YA$$QEBV?$basic_string@DU?$char_traits@D@std@@V?$allocator@D@2@@0@AEBV10@@Z
pdata	ENDS
;	COMDAT pdata
pdata	SEGMENT
$pdata$??0?$allocator@U?$_Tree_node@U?$pair@$$CBHVComplicated@?1??EmplaceFunc@cpp11@@AEAAXXZ@@std@@PEAX@std@@@std@@QEAA@XZ DD imagerel ??0?$allocator@U?$_Tree_node@U?$pair@$$CBHVComplicated@?1??EmplaceFunc@cpp11@@AEAAXXZ@@std@@PEAX@std@@@std@@QEAA@XZ
	DD	imagerel ??0?$allocator@U?$_Tree_node@U?$pair@$$CBHVComplicated@?1??EmplaceFunc@cpp11@@AEAAXXZ@@std@@PEAX@std@@@std@@QEAA@XZ+72
	DD	imagerel $unwind$??0?$allocator@U?$_Tree_node@U?$pair@$$CBHVComplicated@?1??EmplaceFunc@cpp11@@AEAAXXZ@@std@@PEAX@std@@@std@@QEAA@XZ
pdata	ENDS
;	COMDAT pdata
pdata	SEGMENT
$pdata$?deallocate@?$allocator@U?$_Tree_node@U?$pair@$$CBHVComplicated@?1??EmplaceFunc@cpp11@@AEAAXXZ@@std@@PEAX@std@@@std@@QEAAXQEAU?$_Tree_node@U?$pair@$$CBHVComplicated@?1??EmplaceFunc@cpp11@@AEAAXXZ@@std@@PEAX@2@_K@Z DD imagerel ?deallocate@?$allocator@U?$_Tree_node@U?$pair@$$CBHVComplicated@?1??EmplaceFunc@cpp11@@AEAAXXZ@@std@@PEAX@std@@@std@@QEAAXQEAU?$_Tree_node@U?$pair@$$CBHVComplicated@?1??EmplaceFunc@cpp11@@AEAAXXZ@@std@@PEAX@2@_K@Z
	DD	imagerel ?deallocate@?$allocator@U?$_Tree_node@U?$pair@$$CBHVComplicated@?1??EmplaceFunc@cpp11@@AEAAXXZ@@std@@PEAX@std@@@std@@QEAAXQEAU?$_Tree_node@U?$pair@$$CBHVComplicated@?1??EmplaceFunc@cpp11@@AEAAXXZ@@std@@PEAX@2@_K@Z+97
	DD	imagerel $unwind$?deallocate@?$allocator@U?$_Tree_node@U?$pair@$$CBHVComplicated@?1??EmplaceFunc@cpp11@@AEAAXXZ@@std@@PEAX@std@@@std@@QEAAXQEAU?$_Tree_node@U?$pair@$$CBHVComplicated@?1??EmplaceFunc@cpp11@@AEAAXXZ@@std@@PEAX@2@_K@Z
pdata	ENDS
;	COMDAT pdata
pdata	SEGMENT
$pdata$?allocate@?$allocator@U?$_Tree_node@U?$pair@$$CBHVComplicated@?1??EmplaceFunc@cpp11@@AEAAXXZ@@std@@PEAX@std@@@std@@QEAAPEAU?$_Tree_node@U?$pair@$$CBHVComplicated@?1??EmplaceFunc@cpp11@@AEAAXXZ@@std@@PEAX@2@_K@Z DD imagerel ?allocate@?$allocator@U?$_Tree_node@U?$pair@$$CBHVComplicated@?1??EmplaceFunc@cpp11@@AEAAXXZ@@std@@PEAX@std@@@std@@QEAAPEAU?$_Tree_node@U?$pair@$$CBHVComplicated@?1??EmplaceFunc@cpp11@@AEAAXXZ@@std@@PEAX@2@_K@Z
	DD	imagerel ?allocate@?$allocator@U?$_Tree_node@U?$pair@$$CBHVComplicated@?1??EmplaceFunc@cpp11@@AEAAXXZ@@std@@PEAX@std@@@std@@QEAAPEAU?$_Tree_node@U?$pair@$$CBHVComplicated@?1??EmplaceFunc@cpp11@@AEAAXXZ@@std@@PEAX@2@_K@Z+89
	DD	imagerel $unwind$?allocate@?$allocator@U?$_Tree_node@U?$pair@$$CBHVComplicated@?1??EmplaceFunc@cpp11@@AEAAXXZ@@std@@PEAX@std@@@std@@QEAAPEAU?$_Tree_node@U?$pair@$$CBHVComplicated@?1??EmplaceFunc@cpp11@@AEAAXXZ@@std@@PEAX@2@_K@Z
pdata	ENDS
;	COMDAT pdata
pdata	SEGMENT
$pdata$?deallocate@?$_Default_allocator_traits@V?$allocator@U?$_Tree_node@U?$pair@$$CBHVComplicated@?1??EmplaceFunc@cpp11@@AEAAXXZ@@std@@PEAX@std@@@std@@@std@@SAXAEAV?$allocator@U?$_Tree_node@U?$pair@$$CBHVComplicated@?1??EmplaceFunc@cpp11@@AEAAXXZ@@std@@PEAX@std@@@2@QEAU?$_Tree_node@U?$pair@$$CBHVComplicated@?1??EmplaceFunc@cpp11@@AEAAXXZ@@std@@PEAX@2@_K@Z DD imagerel ?deallocate@?$_Default_allocator_traits@V?$allocator@U?$_Tree_node@U?$pair@$$CBHVComplicated@?1??EmplaceFunc@cpp11@@AEAAXXZ@@std@@PEAX@std@@@std@@@std@@SAXAEAV?$allocator@U?$_Tree_node@U?$pair@$$CBHVComplicated@?1??EmplaceFunc@cpp11@@AEAAXXZ@@std@@PEAX@std@@@2@QEAU?$_Tree_node@U?$pair@$$CBHVComplicated@?1??EmplaceFunc@cpp11@@AEAAXXZ@@std@@PEAX@2@_K@Z
	DD	imagerel ?deallocate@?$_Default_allocator_traits@V?$allocator@U?$_Tree_node@U?$pair@$$CBHVComplicated@?1??EmplaceFunc@cpp11@@AEAAXXZ@@std@@PEAX@std@@@std@@@std@@SAXAEAV?$allocator@U?$_Tree_node@U?$pair@$$CBHVComplicated@?1??EmplaceFunc@cpp11@@AEAAXXZ@@std@@PEAX@std@@@2@QEAU?$_Tree_node@U?$pair@$$CBHVComplicated@?1??EmplaceFunc@cpp11@@AEAAXXZ@@std@@PEAX@2@_K@Z+97
	DD	imagerel $unwind$?deallocate@?$_Default_allocator_traits@V?$allocator@U?$_Tree_node@U?$pair@$$CBHVComplicated@?1??EmplaceFunc@cpp11@@AEAAXXZ@@std@@PEAX@std@@@std@@@std@@SAXAEAV?$allocator@U?$_Tree_node@U?$pair@$$CBHVComplicated@?1??EmplaceFunc@cpp11@@AEAAXXZ@@std@@PEAX@std@@@2@QEAU?$_Tree_node@U?$pair@$$CBHVComplicated@?1??EmplaceFunc@cpp11@@AEAAXXZ@@std@@PEAX@2@_K@Z
pdata	ENDS
;	COMDAT pdata
pdata	SEGMENT
$pdata$?max_size@?$_Default_allocator_traits@V?$allocator@U?$_Tree_node@U?$pair@$$CBHVComplicated@?1??EmplaceFunc@cpp11@@AEAAXXZ@@std@@PEAX@std@@@std@@@std@@SA_KAEBV?$allocator@U?$_Tree_node@U?$pair@$$CBHVComplicated@?1??EmplaceFunc@cpp11@@AEAAXXZ@@std@@PEAX@std@@@2@@Z DD imagerel ?max_size@?$_Default_allocator_traits@V?$allocator@U?$_Tree_node@U?$pair@$$CBHVComplicated@?1??EmplaceFunc@cpp11@@AEAAXXZ@@std@@PEAX@std@@@std@@@std@@SA_KAEBV?$allocator@U?$_Tree_node@U?$pair@$$CBHVComplicated@?1??EmplaceFunc@cpp11@@AEAAXXZ@@std@@PEAX@std@@@2@@Z
	DD	imagerel ?max_size@?$_Default_allocator_traits@V?$allocator@U?$_Tree_node@U?$pair@$$CBHVComplicated@?1??EmplaceFunc@cpp11@@AEAAXXZ@@std@@PEAX@std@@@std@@@std@@SA_KAEBV?$allocator@U?$_Tree_node@U?$pair@$$CBHVComplicated@?1??EmplaceFunc@cpp11@@AEAAXXZ@@std@@PEAX@std@@@2@@Z+75
	DD	imagerel $unwind$?max_size@?$_Default_allocator_traits@V?$allocator@U?$_Tree_node@U?$pair@$$CBHVComplicated@?1??EmplaceFunc@cpp11@@AEAAXXZ@@std@@PEAX@std@@@std@@@std@@SA_KAEBV?$allocator@U?$_Tree_node@U?$pair@$$CBHVComplicated@?1??EmplaceFunc@cpp11@@AEAAXXZ@@std@@PEAX@std@@@2@@Z
pdata	ENDS
;	COMDAT pdata
pdata	SEGMENT
$pdata$??0?$_Tree@V?$_Tmap_traits@HVComplicated@?1??EmplaceFunc@cpp11@@AEAAXXZ@U?$less@H@std@@V?$allocator@U?$pair@$$CBHVComplicated@?1??EmplaceFunc@cpp11@@AEAAXXZ@@std@@@5@$0A@@std@@@std@@QEAA@AEBU?$less@H@1@@Z DD imagerel ??0?$_Tree@V?$_Tmap_traits@HVComplicated@?1??EmplaceFunc@cpp11@@AEAAXXZ@U?$less@H@std@@V?$allocator@U?$pair@$$CBHVComplicated@?1??EmplaceFunc@cpp11@@AEAAXXZ@@std@@@5@$0A@@std@@@std@@QEAA@AEBU?$less@H@1@@Z
	DD	imagerel ??0?$_Tree@V?$_Tmap_traits@HVComplicated@?1??EmplaceFunc@cpp11@@AEAAXXZ@U?$less@H@std@@V?$allocator@U?$pair@$$CBHVComplicated@?1??EmplaceFunc@cpp11@@AEAAXXZ@@std@@@5@$0A@@std@@@std@@QEAA@AEBU?$less@H@1@@Z+135
	DD	imagerel $unwind$??0?$_Tree@V?$_Tmap_traits@HVComplicated@?1??EmplaceFunc@cpp11@@AEAAXXZ@U?$less@H@std@@V?$allocator@U?$pair@$$CBHVComplicated@?1??EmplaceFunc@cpp11@@AEAAXXZ@@std@@@5@$0A@@std@@@std@@QEAA@AEBU?$less@H@1@@Z
pdata	ENDS
;	COMDAT pdata
pdata	SEGMENT
$pdata$??1?$_Tree@V?$_Tmap_traits@HVComplicated@?1??EmplaceFunc@cpp11@@AEAAXXZ@U?$less@H@std@@V?$allocator@U?$pair@$$CBHVComplicated@?1??EmplaceFunc@cpp11@@AEAAXXZ@@std@@@5@$0A@@std@@@std@@QEAA@XZ DD imagerel ??1?$_Tree@V?$_Tmap_traits@HVComplicated@?1??EmplaceFunc@cpp11@@AEAAXXZ@U?$less@H@std@@V?$allocator@U?$pair@$$CBHVComplicated@?1??EmplaceFunc@cpp11@@AEAAXXZ@@std@@@5@$0A@@std@@@std@@QEAA@XZ
	DD	imagerel ??1?$_Tree@V?$_Tmap_traits@HVComplicated@?1??EmplaceFunc@cpp11@@AEAAXXZ@U?$less@H@std@@V?$allocator@U?$pair@$$CBHVComplicated@?1??EmplaceFunc@cpp11@@AEAAXXZ@@std@@@5@$0A@@std@@@std@@QEAA@XZ+209
	DD	imagerel $unwind$??1?$_Tree@V?$_Tmap_traits@HVComplicated@?1??EmplaceFunc@cpp11@@AEAAXXZ@U?$less@H@std@@V?$allocator@U?$pair@$$CBHVComplicated@?1??EmplaceFunc@cpp11@@AEAAXXZ@@std@@@5@$0A@@std@@@std@@QEAA@XZ
pdata	ENDS
;	COMDAT pdata
pdata	SEGMENT
$pdata$?max_size@?$_Tree@V?$_Tmap_traits@HVComplicated@?1??EmplaceFunc@cpp11@@AEAAXXZ@U?$less@H@std@@V?$allocator@U?$pair@$$CBHVComplicated@?1??EmplaceFunc@cpp11@@AEAAXXZ@@std@@@5@$0A@@std@@@std@@QEBA_KXZ DD imagerel ?max_size@?$_Tree@V?$_Tmap_traits@HVComplicated@?1??EmplaceFunc@cpp11@@AEAAXXZ@U?$less@H@std@@V?$allocator@U?$pair@$$CBHVComplicated@?1??EmplaceFunc@cpp11@@AEAAXXZ@@std@@@5@$0A@@std@@@std@@QEBA_KXZ
	DD	imagerel ?max_size@?$_Tree@V?$_Tmap_traits@HVComplicated@?1??EmplaceFunc@cpp11@@AEAAXXZ@U?$less@H@std@@V?$allocator@U?$pair@$$CBHVComplicated@?1??EmplaceFunc@cpp11@@AEAAXXZ@@std@@@5@$0A@@std@@@std@@QEBA_KXZ+130
	DD	imagerel $unwind$?max_size@?$_Tree@V?$_Tmap_traits@HVComplicated@?1??EmplaceFunc@cpp11@@AEAAXXZ@U?$less@H@std@@V?$allocator@U?$pair@$$CBHVComplicated@?1??EmplaceFunc@cpp11@@AEAAXXZ@@std@@@5@$0A@@std@@@std@@QEBA_KXZ
pdata	ENDS
;	COMDAT pdata
pdata	SEGMENT
$pdata$?_Check_grow_by_1@?$_Tree@V?$_Tmap_traits@HVComplicated@?1??EmplaceFunc@cpp11@@AEAAXXZ@U?$less@H@std@@V?$allocator@U?$pair@$$CBHVComplicated@?1??EmplaceFunc@cpp11@@AEAAXXZ@@std@@@5@$0A@@std@@@std@@IEAAXXZ DD imagerel ?_Check_grow_by_1@?$_Tree@V?$_Tmap_traits@HVComplicated@?1??EmplaceFunc@cpp11@@AEAAXXZ@U?$less@H@std@@V?$allocator@U?$pair@$$CBHVComplicated@?1??EmplaceFunc@cpp11@@AEAAXXZ@@std@@@5@$0A@@std@@@std@@IEAAXXZ
	DD	imagerel ?_Check_grow_by_1@?$_Tree@V?$_Tmap_traits@HVComplicated@?1??EmplaceFunc@cpp11@@AEAAXXZ@U?$less@H@std@@V?$allocator@U?$pair@$$CBHVComplicated@?1??EmplaceFunc@cpp11@@AEAAXXZ@@std@@@5@$0A@@std@@@std@@IEAAXXZ+113
	DD	imagerel $unwind$?_Check_grow_by_1@?$_Tree@V?$_Tmap_traits@HVComplicated@?1??EmplaceFunc@cpp11@@AEAAXXZ@U?$less@H@std@@V?$allocator@U?$pair@$$CBHVComplicated@?1??EmplaceFunc@cpp11@@AEAAXXZ@@std@@@5@$0A@@std@@@std@@IEAAXXZ
pdata	ENDS
;	COMDAT pdata
pdata	SEGMENT
$pdata$?_Alloc_sentinel_and_proxy@?$_Tree@V?$_Tmap_traits@HVComplicated@?1??EmplaceFunc@cpp11@@AEAAXXZ@U?$less@H@std@@V?$allocator@U?$pair@$$CBHVComplicated@?1??EmplaceFunc@cpp11@@AEAAXXZ@@std@@@5@$0A@@std@@@std@@IEAAXXZ DD imagerel ?_Alloc_sentinel_and_proxy@?$_Tree@V?$_Tmap_traits@HVComplicated@?1??EmplaceFunc@cpp11@@AEAAXXZ@U?$less@H@std@@V?$allocator@U?$pair@$$CBHVComplicated@?1??EmplaceFunc@cpp11@@AEAAXXZ@@std@@@5@$0A@@std@@@std@@IEAAXXZ
	DD	imagerel ?_Alloc_sentinel_and_proxy@?$_Tree@V?$_Tmap_traits@HVComplicated@?1??EmplaceFunc@cpp11@@AEAAXXZ@U?$less@H@std@@V?$allocator@U?$pair@$$CBHVComplicated@?1??EmplaceFunc@cpp11@@AEAAXXZ@@std@@@5@$0A@@std@@@std@@IEAAXXZ+225
	DD	imagerel $unwind$?_Alloc_sentinel_and_proxy@?$_Tree@V?$_Tmap_traits@HVComplicated@?1??EmplaceFunc@cpp11@@AEAAXXZ@U?$less@H@std@@V?$allocator@U?$pair@$$CBHVComplicated@?1??EmplaceFunc@cpp11@@AEAAXXZ@@std@@@5@$0A@@std@@@std@@IEAAXXZ
pdata	ENDS
;	COMDAT pdata
pdata	SEGMENT
$pdata$?dtor$0@?0??_Alloc_sentinel_and_proxy@?$_Tree@V?$_Tmap_traits@HVComplicated@?1??EmplaceFunc@cpp11@@AEAAXXZ@U?$less@H@std@@V?$allocator@U?$pair@$$CBHVComplicated@?1??EmplaceFunc@cpp11@@AEAAXXZ@@std@@@5@$0A@@std@@@std@@IEAAXXZ@4HA DD imagerel ?dtor$0@?0??_Alloc_sentinel_and_proxy@?$_Tree@V?$_Tmap_traits@HVComplicated@?1??EmplaceFunc@cpp11@@AEAAXXZ@U?$less@H@std@@V?$allocator@U?$pair@$$CBHVComplicated@?1??EmplaceFunc@cpp11@@AEAAXXZ@@std@@@5@$0A@@std@@@std@@IEAAXXZ@4HA
	DD	imagerel ?dtor$0@?0??_Alloc_sentinel_and_proxy@?$_Tree@V?$_Tmap_traits@HVComplicated@?1??EmplaceFunc@cpp11@@AEAAXXZ@U?$less@H@std@@V?$allocator@U?$pair@$$CBHVComplicated@?1??EmplaceFunc@cpp11@@AEAAXXZ@@std@@@5@$0A@@std@@@std@@IEAAXXZ@4HA+36
	DD	imagerel $unwind$?dtor$0@?0??_Alloc_sentinel_and_proxy@?$_Tree@V?$_Tmap_traits@HVComplicated@?1??EmplaceFunc@cpp11@@AEAAXXZ@U?$less@H@std@@V?$allocator@U?$pair@$$CBHVComplicated@?1??EmplaceFunc@cpp11@@AEAAXXZ@@std@@@5@$0A@@std@@@std@@IEAAXXZ@4HA
pdata	ENDS
;	COMDAT pdata
pdata	SEGMENT
$pdata$?_Getcomp@?$_Tree@V?$_Tmap_traits@HVComplicated@?1??EmplaceFunc@cpp11@@AEAAXXZ@U?$less@H@std@@V?$allocator@U?$pair@$$CBHVComplicated@?1??EmplaceFunc@cpp11@@AEAAXXZ@@std@@@5@$0A@@std@@@std@@IEBAAEBU?$less@H@2@XZ DD imagerel ?_Getcomp@?$_Tree@V?$_Tmap_traits@HVComplicated@?1??EmplaceFunc@cpp11@@AEAAXXZ@U?$less@H@std@@V?$allocator@U?$pair@$$CBHVComplicated@?1??EmplaceFunc@cpp11@@AEAAXXZ@@std@@@5@$0A@@std@@@std@@IEBAAEBU?$less@H@2@XZ
	DD	imagerel ?_Getcomp@?$_Tree@V?$_Tmap_traits@HVComplicated@?1??EmplaceFunc@cpp11@@AEAAXXZ@U?$less@H@std@@V?$allocator@U?$pair@$$CBHVComplicated@?1??EmplaceFunc@cpp11@@AEAAXXZ@@std@@@5@$0A@@std@@@std@@IEBAAEBU?$less@H@2@XZ+81
	DD	imagerel $unwind$?_Getcomp@?$_Tree@V?$_Tmap_traits@HVComplicated@?1??EmplaceFunc@cpp11@@AEAAXXZ@U?$less@H@std@@V?$allocator@U?$pair@$$CBHVComplicated@?1??EmplaceFunc@cpp11@@AEAAXXZ@@std@@@5@$0A@@std@@@std@@IEBAAEBU?$less@H@2@XZ
pdata	ENDS
;	COMDAT pdata
pdata	SEGMENT
$pdata$?_Getal@?$_Tree@V?$_Tmap_traits@HVComplicated@?1??EmplaceFunc@cpp11@@AEAAXXZ@U?$less@H@std@@V?$allocator@U?$pair@$$CBHVComplicated@?1??EmplaceFunc@cpp11@@AEAAXXZ@@std@@@5@$0A@@std@@@std@@IEAAAEAV?$allocator@U?$_Tree_node@U?$pair@$$CBHVComplicated@?1??EmplaceFunc@cpp11@@AEAAXXZ@@std@@PEAX@std@@@2@XZ DD imagerel ?_Getal@?$_Tree@V?$_Tmap_traits@HVComplicated@?1??EmplaceFunc@cpp11@@AEAAXXZ@U?$less@H@std@@V?$allocator@U?$pair@$$CBHVComplicated@?1??EmplaceFunc@cpp11@@AEAAXXZ@@std@@@5@$0A@@std@@@std@@IEAAAEAV?$allocator@U?$_Tree_node@U?$pair@$$CBHVComplicated@?1??EmplaceFunc@cpp11@@AEAAXXZ@@std@@PEAX@std@@@2@XZ
	DD	imagerel ?_Getal@?$_Tree@V?$_Tmap_traits@HVComplicated@?1??EmplaceFunc@cpp11@@AEAAXXZ@U?$less@H@std@@V?$allocator@U?$pair@$$CBHVComplicated@?1??EmplaceFunc@cpp11@@AEAAXXZ@@std@@@5@$0A@@std@@@std@@IEAAAEAV?$allocator@U?$_Tree_node@U?$pair@$$CBHVComplicated@?1??EmplaceFunc@cpp11@@AEAAXXZ@@std@@PEAX@std@@@2@XZ+81
	DD	imagerel $unwind$?_Getal@?$_Tree@V?$_Tmap_traits@HVComplicated@?1??EmplaceFunc@cpp11@@AEAAXXZ@U?$less@H@std@@V?$allocator@U?$pair@$$CBHVComplicated@?1??EmplaceFunc@cpp11@@AEAAXXZ@@std@@@5@$0A@@std@@@std@@IEAAAEAV?$allocator@U?$_Tree_node@U?$pair@$$CBHVComplicated@?1??EmplaceFunc@cpp11@@AEAAXXZ@@std@@PEAX@std@@@2@XZ
pdata	ENDS
;	COMDAT pdata
pdata	SEGMENT
$pdata$?_Getal@?$_Tree@V?$_Tmap_traits@HVComplicated@?1??EmplaceFunc@cpp11@@AEAAXXZ@U?$less@H@std@@V?$allocator@U?$pair@$$CBHVComplicated@?1??EmplaceFunc@cpp11@@AEAAXXZ@@std@@@5@$0A@@std@@@std@@IEBAAEBV?$allocator@U?$_Tree_node@U?$pair@$$CBHVComplicated@?1??EmplaceFunc@cpp11@@AEAAXXZ@@std@@PEAX@std@@@2@XZ DD imagerel ?_Getal@?$_Tree@V?$_Tmap_traits@HVComplicated@?1??EmplaceFunc@cpp11@@AEAAXXZ@U?$less@H@std@@V?$allocator@U?$pair@$$CBHVComplicated@?1??EmplaceFunc@cpp11@@AEAAXXZ@@std@@@5@$0A@@std@@@std@@IEBAAEBV?$allocator@U?$_Tree_node@U?$pair@$$CBHVComplicated@?1??EmplaceFunc@cpp11@@AEAAXXZ@@std@@PEAX@std@@@2@XZ
	DD	imagerel ?_Getal@?$_Tree@V?$_Tmap_traits@HVComplicated@?1??EmplaceFunc@cpp11@@AEAAXXZ@U?$less@H@std@@V?$allocator@U?$pair@$$CBHVComplicated@?1??EmplaceFunc@cpp11@@AEAAXXZ@@std@@@5@$0A@@std@@@std@@IEBAAEBV?$allocator@U?$_Tree_node@U?$pair@$$CBHVComplicated@?1??EmplaceFunc@cpp11@@AEAAXXZ@@std@@PEAX@std@@@2@XZ+81
	DD	imagerel $unwind$?_Getal@?$_Tree@V?$_Tmap_traits@HVComplicated@?1??EmplaceFunc@cpp11@@AEAAXXZ@U?$less@H@std@@V?$allocator@U?$pair@$$CBHVComplicated@?1??EmplaceFunc@cpp11@@AEAAXXZ@@std@@@5@$0A@@std@@@std@@IEBAAEBV?$allocator@U?$_Tree_node@U?$pair@$$CBHVComplicated@?1??EmplaceFunc@cpp11@@AEAAXXZ@@std@@PEAX@std@@@2@XZ
pdata	ENDS
;	COMDAT pdata
pdata	SEGMENT
$pdata$?_Get_scary@?$_Tree@V?$_Tmap_traits@HVComplicated@?1??EmplaceFunc@cpp11@@AEAAXXZ@U?$less@H@std@@V?$allocator@U?$pair@$$CBHVComplicated@?1??EmplaceFunc@cpp11@@AEAAXXZ@@std@@@5@$0A@@std@@@std@@IEAAPEAV?$_Tree_val@U?$_Tree_simple_types@U?$pair@$$CBHVComplicated@?1??EmplaceFunc@cpp11@@AEAAXXZ@@std@@@std@@@2@XZ DD imagerel ?_Get_scary@?$_Tree@V?$_Tmap_traits@HVComplicated@?1??EmplaceFunc@cpp11@@AEAAXXZ@U?$less@H@std@@V?$allocator@U?$pair@$$CBHVComplicated@?1??EmplaceFunc@cpp11@@AEAAXXZ@@std@@@5@$0A@@std@@@std@@IEAAPEAV?$_Tree_val@U?$_Tree_simple_types@U?$pair@$$CBHVComplicated@?1??EmplaceFunc@cpp11@@AEAAXXZ@@std@@@std@@@2@XZ
	DD	imagerel ?_Get_scary@?$_Tree@V?$_Tmap_traits@HVComplicated@?1??EmplaceFunc@cpp11@@AEAAXXZ@U?$less@H@std@@V?$allocator@U?$pair@$$CBHVComplicated@?1??EmplaceFunc@cpp11@@AEAAXXZ@@std@@@5@$0A@@std@@@std@@IEAAPEAV?$_Tree_val@U?$_Tree_simple_types@U?$pair@$$CBHVComplicated@?1??EmplaceFunc@cpp11@@AEAAXXZ@@std@@@std@@@2@XZ+81
	DD	imagerel $unwind$?_Get_scary@?$_Tree@V?$_Tmap_traits@HVComplicated@?1??EmplaceFunc@cpp11@@AEAAXXZ@U?$less@H@std@@V?$allocator@U?$pair@$$CBHVComplicated@?1??EmplaceFunc@cpp11@@AEAAXXZ@@std@@@5@$0A@@std@@@std@@IEAAPEAV?$_Tree_val@U?$_Tree_simple_types@U?$pair@$$CBHVComplicated@?1??EmplaceFunc@cpp11@@AEAAXXZ@@std@@@std@@@2@XZ
pdata	ENDS
;	COMDAT pdata
pdata	SEGMENT
$pdata$?_Get_scary@?$_Tree@V?$_Tmap_traits@HVComplicated@?1??EmplaceFunc@cpp11@@AEAAXXZ@U?$less@H@std@@V?$allocator@U?$pair@$$CBHVComplicated@?1??EmplaceFunc@cpp11@@AEAAXXZ@@std@@@5@$0A@@std@@@std@@IEBAPEBV?$_Tree_val@U?$_Tree_simple_types@U?$pair@$$CBHVComplicated@?1??EmplaceFunc@cpp11@@AEAAXXZ@@std@@@std@@@2@XZ DD imagerel ?_Get_scary@?$_Tree@V?$_Tmap_traits@HVComplicated@?1??EmplaceFunc@cpp11@@AEAAXXZ@U?$less@H@std@@V?$allocator@U?$pair@$$CBHVComplicated@?1??EmplaceFunc@cpp11@@AEAAXXZ@@std@@@5@$0A@@std@@@std@@IEBAPEBV?$_Tree_val@U?$_Tree_simple_types@U?$pair@$$CBHVComplicated@?1??EmplaceFunc@cpp11@@AEAAXXZ@@std@@@std@@@2@XZ
	DD	imagerel ?_Get_scary@?$_Tree@V?$_Tmap_traits@HVComplicated@?1??EmplaceFunc@cpp11@@AEAAXXZ@U?$less@H@std@@V?$allocator@U?$pair@$$CBHVComplicated@?1??EmplaceFunc@cpp11@@AEAAXXZ@@std@@@5@$0A@@std@@@std@@IEBAPEBV?$_Tree_val@U?$_Tree_simple_types@U?$pair@$$CBHVComplicated@?1??EmplaceFunc@cpp11@@AEAAXXZ@@std@@@std@@@2@XZ+81
	DD	imagerel $unwind$?_Get_scary@?$_Tree@V?$_Tmap_traits@HVComplicated@?1??EmplaceFunc@cpp11@@AEAAXXZ@U?$less@H@std@@V?$allocator@U?$pair@$$CBHVComplicated@?1??EmplaceFunc@cpp11@@AEAAXXZ@@std@@@5@$0A@@std@@@std@@IEBAPEBV?$_Tree_val@U?$_Tree_simple_types@U?$pair@$$CBHVComplicated@?1??EmplaceFunc@cpp11@@AEAAXXZ@@std@@@std@@@2@XZ
pdata	ENDS
;	COMDAT pdata
pdata	SEGMENT
$pdata$??R?$less@H@std@@QEBA_NAEBH0@Z DD imagerel $LN5
	DD	imagerel $LN5+123
	DD	imagerel $unwind$??R?$less@H@std@@QEBA_NAEBH0@Z
pdata	ENDS
;	COMDAT pdata
pdata	SEGMENT
$pdata$??0?$_Tree_val@U?$_Tree_simple_types@U?$pair@$$CBHVComplicated@?1??EmplaceFunc@cpp11@@AEAAXXZ@@std@@@std@@@std@@QEAA@XZ DD imagerel ??0?$_Tree_val@U?$_Tree_simple_types@U?$pair@$$CBHVComplicated@?1??EmplaceFunc@cpp11@@AEAAXXZ@@std@@@std@@@std@@QEAA@XZ
	DD	imagerel ??0?$_Tree_val@U?$_Tree_simple_types@U?$pair@$$CBHVComplicated@?1??EmplaceFunc@cpp11@@AEAAXXZ@@std@@@std@@@std@@QEAA@XZ+113
	DD	imagerel $unwind$??0?$_Tree_val@U?$_Tree_simple_types@U?$pair@$$CBHVComplicated@?1??EmplaceFunc@cpp11@@AEAAXXZ@@std@@@std@@@std@@QEAA@XZ
pdata	ENDS
;	COMDAT pdata
pdata	SEGMENT
$pdata$?_Lrotate@?$_Tree_val@U?$_Tree_simple_types@U?$pair@$$CBHVComplicated@?1??EmplaceFunc@cpp11@@AEAAXXZ@@std@@@std@@@std@@QEAAXPEAU?$_Tree_node@U?$pair@$$CBHVComplicated@?1??EmplaceFunc@cpp11@@AEAAXXZ@@std@@PEAX@2@@Z DD imagerel ?_Lrotate@?$_Tree_val@U?$_Tree_simple_types@U?$pair@$$CBHVComplicated@?1??EmplaceFunc@cpp11@@AEAAXXZ@@std@@@std@@@std@@QEAAXPEAU?$_Tree_node@U?$pair@$$CBHVComplicated@?1??EmplaceFunc@cpp11@@AEAAXXZ@@std@@PEAX@2@@Z
	DD	imagerel ?_Lrotate@?$_Tree_val@U?$_Tree_simple_types@U?$pair@$$CBHVComplicated@?1??EmplaceFunc@cpp11@@AEAAXXZ@@std@@@std@@@std@@QEAAXPEAU?$_Tree_node@U?$pair@$$CBHVComplicated@?1??EmplaceFunc@cpp11@@AEAAXXZ@@std@@PEAX@2@@Z+290
	DD	imagerel $unwind$?_Lrotate@?$_Tree_val@U?$_Tree_simple_types@U?$pair@$$CBHVComplicated@?1??EmplaceFunc@cpp11@@AEAAXXZ@@std@@@std@@@std@@QEAAXPEAU?$_Tree_node@U?$pair@$$CBHVComplicated@?1??EmplaceFunc@cpp11@@AEAAXXZ@@std@@PEAX@2@@Z
pdata	ENDS
;	COMDAT pdata
pdata	SEGMENT
$pdata$?_Rrotate@?$_Tree_val@U?$_Tree_simple_types@U?$pair@$$CBHVComplicated@?1??EmplaceFunc@cpp11@@AEAAXXZ@@std@@@std@@@std@@QEAAXPEAU?$_Tree_node@U?$pair@$$CBHVComplicated@?1??EmplaceFunc@cpp11@@AEAAXXZ@@std@@PEAX@2@@Z DD imagerel ?_Rrotate@?$_Tree_val@U?$_Tree_simple_types@U?$pair@$$CBHVComplicated@?1??EmplaceFunc@cpp11@@AEAAXXZ@@std@@@std@@@std@@QEAAXPEAU?$_Tree_node@U?$pair@$$CBHVComplicated@?1??EmplaceFunc@cpp11@@AEAAXXZ@@std@@PEAX@2@@Z
	DD	imagerel ?_Rrotate@?$_Tree_val@U?$_Tree_simple_types@U?$pair@$$CBHVComplicated@?1??EmplaceFunc@cpp11@@AEAAXXZ@@std@@@std@@@std@@QEAAXPEAU?$_Tree_node@U?$pair@$$CBHVComplicated@?1??EmplaceFunc@cpp11@@AEAAXXZ@@std@@PEAX@2@@Z+293
	DD	imagerel $unwind$?_Rrotate@?$_Tree_val@U?$_Tree_simple_types@U?$pair@$$CBHVComplicated@?1??EmplaceFunc@cpp11@@AEAAXXZ@@std@@@std@@@std@@QEAAXPEAU?$_Tree_node@U?$pair@$$CBHVComplicated@?1??EmplaceFunc@cpp11@@AEAAXXZ@@std@@PEAX@2@@Z
pdata	ENDS
;	COMDAT pdata
pdata	SEGMENT
$pdata$?_Insert_node@?$_Tree_val@U?$_Tree_simple_types@U?$pair@$$CBHVComplicated@?1??EmplaceFunc@cpp11@@AEAAXXZ@@std@@@std@@@std@@QEAAPEAU?$_Tree_node@U?$pair@$$CBHVComplicated@?1??EmplaceFunc@cpp11@@AEAAXXZ@@std@@PEAX@2@U?$_Tree_id@PEAU?$_Tree_node@U?$pair@$$CBHVComplicated@?1??EmplaceFunc@cpp11@@AEAAXXZ@@std@@PEAX@std@@@2@QEAU32@@Z DD imagerel ?_Insert_node@?$_Tree_val@U?$_Tree_simple_types@U?$pair@$$CBHVComplicated@?1??EmplaceFunc@cpp11@@AEAAXXZ@@std@@@std@@@std@@QEAAPEAU?$_Tree_node@U?$pair@$$CBHVComplicated@?1??EmplaceFunc@cpp11@@AEAAXXZ@@std@@PEAX@2@U?$_Tree_id@PEAU?$_Tree_node@U?$pair@$$CBHVComplicated@?1??EmplaceFunc@cpp11@@AEAAXXZ@@std@@PEAX@std@@@2@QEAU32@@Z
	DD	imagerel ?_Insert_node@?$_Tree_val@U?$_Tree_simple_types@U?$pair@$$CBHVComplicated@?1??EmplaceFunc@cpp11@@AEAAXXZ@@std@@@std@@@std@@QEAAPEAU?$_Tree_node@U?$pair@$$CBHVComplicated@?1??EmplaceFunc@cpp11@@AEAAXXZ@@std@@PEAX@2@U?$_Tree_id@PEAU?$_Tree_node@U?$pair@$$CBHVComplicated@?1??EmplaceFunc@cpp11@@AEAAXXZ@@std@@PEAX@std@@@2@QEAU32@@Z+802
	DD	imagerel $unwind$?_Insert_node@?$_Tree_val@U?$_Tree_simple_types@U?$pair@$$CBHVComplicated@?1??EmplaceFunc@cpp11@@AEAAXXZ@@std@@@std@@@std@@QEAAPEAU?$_Tree_node@U?$pair@$$CBHVComplicated@?1??EmplaceFunc@cpp11@@AEAAXXZ@@std@@PEAX@2@U?$_Tree_id@PEAU?$_Tree_node@U?$pair@$$CBHVComplicated@?1??EmplaceFunc@cpp11@@AEAAXXZ@@std@@PEAX@std@@@2@QEAU32@@Z
pdata	ENDS
;	COMDAT pdata
pdata	SEGMENT
$pdata$?_Get_first@?$_Compressed_pair@V?$allocator@U?$_Tree_node@U?$pair@$$CBHVComplicated@?1??EmplaceFunc@cpp11@@AEAAXXZ@@std@@PEAX@std@@@std@@V?$_Tree_val@U?$_Tree_simple_types@U?$pair@$$CBHVComplicated@?1??EmplaceFunc@cpp11@@AEAAXXZ@@std@@@std@@@2@$00@std@@QEAAAEAV?$allocator@U?$_Tree_node@U?$pair@$$CBHVComplicated@?1??EmplaceFunc@cpp11@@AEAAXXZ@@std@@PEAX@std@@@2@XZ DD imagerel ?_Get_first@?$_Compressed_pair@V?$allocator@U?$_Tree_node@U?$pair@$$CBHVComplicated@?1??EmplaceFunc@cpp11@@AEAAXXZ@@std@@PEAX@std@@@std@@V?$_Tree_val@U?$_Tree_simple_types@U?$pair@$$CBHVComplicated@?1??EmplaceFunc@cpp11@@AEAAXXZ@@std@@@std@@@2@$00@std@@QEAAAEAV?$allocator@U?$_Tree_node@U?$pair@$$CBHVComplicated@?1??EmplaceFunc@cpp11@@AEAAXXZ@@std@@PEAX@std@@@2@XZ
	DD	imagerel ?_Get_first@?$_Compressed_pair@V?$allocator@U?$_Tree_node@U?$pair@$$CBHVComplicated@?1??EmplaceFunc@cpp11@@AEAAXXZ@@std@@PEAX@std@@@std@@V?$_Tree_val@U?$_Tree_simple_types@U?$pair@$$CBHVComplicated@?1??EmplaceFunc@cpp11@@AEAAXXZ@@std@@@std@@@2@$00@std@@QEAAAEAV?$allocator@U?$_Tree_node@U?$pair@$$CBHVComplicated@?1??EmplaceFunc@cpp11@@AEAAXXZ@@std@@PEAX@std@@@2@XZ+72
	DD	imagerel $unwind$?_Get_first@?$_Compressed_pair@V?$allocator@U?$_Tree_node@U?$pair@$$CBHVComplicated@?1??EmplaceFunc@cpp11@@AEAAXXZ@@std@@PEAX@std@@@std@@V?$_Tree_val@U?$_Tree_simple_types@U?$pair@$$CBHVComplicated@?1??EmplaceFunc@cpp11@@AEAAXXZ@@std@@@std@@@2@$00@std@@QEAAAEAV?$allocator@U?$_Tree_node@U?$pair@$$CBHVComplicated@?1??EmplaceFunc@cpp11@@AEAAXXZ@@std@@PEAX@std@@@2@XZ
pdata	ENDS
;	COMDAT pdata
pdata	SEGMENT
$pdata$?_Get_first@?$_Compressed_pair@V?$allocator@U?$_Tree_node@U?$pair@$$CBHVComplicated@?1??EmplaceFunc@cpp11@@AEAAXXZ@@std@@PEAX@std@@@std@@V?$_Tree_val@U?$_Tree_simple_types@U?$pair@$$CBHVComplicated@?1??EmplaceFunc@cpp11@@AEAAXXZ@@std@@@std@@@2@$00@std@@QEBAAEBV?$allocator@U?$_Tree_node@U?$pair@$$CBHVComplicated@?1??EmplaceFunc@cpp11@@AEAAXXZ@@std@@PEAX@std@@@2@XZ DD imagerel ?_Get_first@?$_Compressed_pair@V?$allocator@U?$_Tree_node@U?$pair@$$CBHVComplicated@?1??EmplaceFunc@cpp11@@AEAAXXZ@@std@@PEAX@std@@@std@@V?$_Tree_val@U?$_Tree_simple_types@U?$pair@$$CBHVComplicated@?1??EmplaceFunc@cpp11@@AEAAXXZ@@std@@@std@@@2@$00@std@@QEBAAEBV?$allocator@U?$_Tree_node@U?$pair@$$CBHVComplicated@?1??EmplaceFunc@cpp11@@AEAAXXZ@@std@@PEAX@std@@@2@XZ
	DD	imagerel ?_Get_first@?$_Compressed_pair@V?$allocator@U?$_Tree_node@U?$pair@$$CBHVComplicated@?1??EmplaceFunc@cpp11@@AEAAXXZ@@std@@PEAX@std@@@std@@V?$_Tree_val@U?$_Tree_simple_types@U?$pair@$$CBHVComplicated@?1??EmplaceFunc@cpp11@@AEAAXXZ@@std@@@std@@@2@$00@std@@QEBAAEBV?$allocator@U?$_Tree_node@U?$pair@$$CBHVComplicated@?1??EmplaceFunc@cpp11@@AEAAXXZ@@std@@PEAX@std@@@2@XZ+72
	DD	imagerel $unwind$?_Get_first@?$_Compressed_pair@V?$allocator@U?$_Tree_node@U?$pair@$$CBHVComplicated@?1??EmplaceFunc@cpp11@@AEAAXXZ@@std@@PEAX@std@@@std@@V?$_Tree_val@U?$_Tree_simple_types@U?$pair@$$CBHVComplicated@?1??EmplaceFunc@cpp11@@AEAAXXZ@@std@@@std@@@2@$00@std@@QEBAAEBV?$allocator@U?$_Tree_node@U?$pair@$$CBHVComplicated@?1??EmplaceFunc@cpp11@@AEAAXXZ@@std@@PEAX@std@@@2@XZ
pdata	ENDS
;	COMDAT pdata
pdata	SEGMENT
$pdata$?_Get_first@?$_Compressed_pair@U?$less@H@std@@V?$_Compressed_pair@V?$allocator@U?$_Tree_node@U?$pair@$$CBHVComplicated@?1??EmplaceFunc@cpp11@@AEAAXXZ@@std@@PEAX@std@@@std@@V?$_Tree_val@U?$_Tree_simple_types@U?$pair@$$CBHVComplicated@?1??EmplaceFunc@cpp11@@AEAAXXZ@@std@@@std@@@2@$00@2@$00@std@@QEBAAEBU?$less@H@2@XZ DD imagerel ?_Get_first@?$_Compressed_pair@U?$less@H@std@@V?$_Compressed_pair@V?$allocator@U?$_Tree_node@U?$pair@$$CBHVComplicated@?1??EmplaceFunc@cpp11@@AEAAXXZ@@std@@PEAX@std@@@std@@V?$_Tree_val@U?$_Tree_simple_types@U?$pair@$$CBHVComplicated@?1??EmplaceFunc@cpp11@@AEAAXXZ@@std@@@std@@@2@$00@2@$00@std@@QEBAAEBU?$less@H@2@XZ
	DD	imagerel ?_Get_first@?$_Compressed_pair@U?$less@H@std@@V?$_Compressed_pair@V?$allocator@U?$_Tree_node@U?$pair@$$CBHVComplicated@?1??EmplaceFunc@cpp11@@AEAAXXZ@@std@@PEAX@std@@@std@@V?$_Tree_val@U?$_Tree_simple_types@U?$pair@$$CBHVComplicated@?1??EmplaceFunc@cpp11@@AEAAXXZ@@std@@@std@@@2@$00@2@$00@std@@QEBAAEBU?$less@H@2@XZ+72
	DD	imagerel $unwind$?_Get_first@?$_Compressed_pair@U?$less@H@std@@V?$_Compressed_pair@V?$allocator@U?$_Tree_node@U?$pair@$$CBHVComplicated@?1??EmplaceFunc@cpp11@@AEAAXXZ@@std@@PEAX@std@@@std@@V?$_Tree_val@U?$_Tree_simple_types@U?$pair@$$CBHVComplicated@?1??EmplaceFunc@cpp11@@AEAAXXZ@@std@@@std@@@2@$00@2@$00@std@@QEBAAEBU?$less@H@2@XZ
pdata	ENDS
;	COMDAT pdata
pdata	SEGMENT
$pdata$??$?0$$V@?$_Compressed_pair@V?$allocator@U?$_Tree_node@U?$pair@$$CBHVComplicated@?1??EmplaceFunc@cpp11@@AEAAXXZ@@std@@PEAX@std@@@std@@V?$_Tree_val@U?$_Tree_simple_types@U?$pair@$$CBHVComplicated@?1??EmplaceFunc@cpp11@@AEAAXXZ@@std@@@std@@@2@$00@std@@QEAA@U_Zero_then_variadic_args_t@1@@Z DD imagerel ??$?0$$V@?$_Compressed_pair@V?$allocator@U?$_Tree_node@U?$pair@$$CBHVComplicated@?1??EmplaceFunc@cpp11@@AEAAXXZ@@std@@PEAX@std@@@std@@V?$_Tree_val@U?$_Tree_simple_types@U?$pair@$$CBHVComplicated@?1??EmplaceFunc@cpp11@@AEAAXXZ@@std@@@std@@@2@$00@std@@QEAA@U_Zero_then_variadic_args_t@1@@Z
	DD	imagerel ??$?0$$V@?$_Compressed_pair@V?$allocator@U?$_Tree_node@U?$pair@$$CBHVComplicated@?1??EmplaceFunc@cpp11@@AEAAXXZ@@std@@PEAX@std@@@std@@V?$_Tree_val@U?$_Tree_simple_types@U?$pair@$$CBHVComplicated@?1??EmplaceFunc@cpp11@@AEAAXXZ@@std@@@std@@@2@$00@std@@QEAA@U_Zero_then_variadic_args_t@1@@Z+102
	DD	imagerel $unwind$??$?0$$V@?$_Compressed_pair@V?$allocator@U?$_Tree_node@U?$pair@$$CBHVComplicated@?1??EmplaceFunc@cpp11@@AEAAXXZ@@std@@PEAX@std@@@std@@V?$_Tree_val@U?$_Tree_simple_types@U?$pair@$$CBHVComplicated@?1??EmplaceFunc@cpp11@@AEAAXXZ@@std@@@std@@@2@$00@std@@QEAA@U_Zero_then_variadic_args_t@1@@Z
pdata	ENDS
;	COMDAT pdata
pdata	SEGMENT
$pdata$??0?$map@HVComplicated@?1??EmplaceFunc@cpp11@@AEAAXXZ@U?$less@H@std@@V?$allocator@U?$pair@$$CBHVComplicated@?1??EmplaceFunc@cpp11@@AEAAXXZ@@std@@@5@@std@@QEAA@XZ DD imagerel ??0?$map@HVComplicated@?1??EmplaceFunc@cpp11@@AEAAXXZ@U?$less@H@std@@V?$allocator@U?$pair@$$CBHVComplicated@?1??EmplaceFunc@cpp11@@AEAAXXZ@@std@@@5@@std@@QEAA@XZ
	DD	imagerel ??0?$map@HVComplicated@?1??EmplaceFunc@cpp11@@AEAAXXZ@U?$less@H@std@@V?$allocator@U?$pair@$$CBHVComplicated@?1??EmplaceFunc@cpp11@@AEAAXXZ@@std@@@5@@std@@QEAA@XZ+90
	DD	imagerel $unwind$??0?$map@HVComplicated@?1??EmplaceFunc@cpp11@@AEAAXXZ@U?$less@H@std@@V?$allocator@U?$pair@$$CBHVComplicated@?1??EmplaceFunc@cpp11@@AEAAXXZ@@std@@@5@@std@@QEAA@XZ
pdata	ENDS
;	COMDAT pdata
pdata	SEGMENT
$pdata$??1?$map@HVComplicated@?1??EmplaceFunc@cpp11@@AEAAXXZ@U?$less@H@std@@V?$allocator@U?$pair@$$CBHVComplicated@?1??EmplaceFunc@cpp11@@AEAAXXZ@@std@@@5@@std@@QEAA@XZ DD imagerel ??1?$map@HVComplicated@?1??EmplaceFunc@cpp11@@AEAAXXZ@U?$less@H@std@@V?$allocator@U?$pair@$$CBHVComplicated@?1??EmplaceFunc@cpp11@@AEAAXXZ@@std@@@5@@std@@QEAA@XZ
	DD	imagerel ??1?$map@HVComplicated@?1??EmplaceFunc@cpp11@@AEAAXXZ@U?$less@H@std@@V?$allocator@U?$pair@$$CBHVComplicated@?1??EmplaceFunc@cpp11@@AEAAXXZ@@std@@@5@@std@@QEAA@XZ+64
	DD	imagerel $unwind$??1?$map@HVComplicated@?1??EmplaceFunc@cpp11@@AEAAXXZ@U?$less@H@std@@V?$allocator@U?$pair@$$CBHVComplicated@?1??EmplaceFunc@cpp11@@AEAAXXZ@@std@@@5@@std@@QEAA@XZ
pdata	ENDS
;	COMDAT pdata
pdata	SEGMENT
$pdata$?__autoclassinit2@?$map@HVComplicated@?1??EmplaceFunc@cpp11@@AEAAXXZ@U?$less@H@std@@V?$allocator@U?$pair@$$CBHVComplicated@?1??EmplaceFunc@cpp11@@AEAAXXZ@@std@@@5@@std@@QEAAX_K@Z DD imagerel ?__autoclassinit2@?$map@HVComplicated@?1??EmplaceFunc@cpp11@@AEAAXXZ@U?$less@H@std@@V?$allocator@U?$pair@$$CBHVComplicated@?1??EmplaceFunc@cpp11@@AEAAXXZ@@std@@@5@@std@@QEAAX_K@Z
	DD	imagerel ?__autoclassinit2@?$map@HVComplicated@?1??EmplaceFunc@cpp11@@AEAAXXZ@U?$less@H@std@@V?$allocator@U?$pair@$$CBHVComplicated@?1??EmplaceFunc@cpp11@@AEAAXXZ@@std@@@5@@std@@QEAAX_K@Z+73
	DD	imagerel $unwind$?__autoclassinit2@?$map@HVComplicated@?1??EmplaceFunc@cpp11@@AEAAXXZ@U?$less@H@std@@V?$allocator@U?$pair@$$CBHVComplicated@?1??EmplaceFunc@cpp11@@AEAAXXZ@@std@@@5@@std@@QEAAX_K@Z
pdata	ENDS
;	COMDAT pdata
pdata	SEGMENT
$pdata$??$make_pair@HVComplicated@?1??EmplaceFunc@cpp11@@AEAAXXZ@@std@@YA?AU?$pair@HVComplicated@?1??EmplaceFunc@cpp11@@AEAAXXZ@@0@$$QEAH$$QEAVComplicated@?1??EmplaceFunc@cpp11@@AEAAXXZ@@Z DD imagerel ??$make_pair@HVComplicated@?1??EmplaceFunc@cpp11@@AEAAXXZ@@std@@YA?AU?$pair@HVComplicated@?1??EmplaceFunc@cpp11@@AEAAXXZ@@0@$$QEAH$$QEAVComplicated@?1??EmplaceFunc@cpp11@@AEAAXXZ@@Z
	DD	imagerel ??$make_pair@HVComplicated@?1??EmplaceFunc@cpp11@@AEAAXXZ@@std@@YA?AU?$pair@HVComplicated@?1??EmplaceFunc@cpp11@@AEAAXXZ@@0@$$QEAH$$QEAVComplicated@?1??EmplaceFunc@cpp11@@AEAAXXZ@@Z+170
	DD	imagerel $unwind$??$make_pair@HVComplicated@?1??EmplaceFunc@cpp11@@AEAAXXZ@@std@@YA?AU?$pair@HVComplicated@?1??EmplaceFunc@cpp11@@AEAAXXZ@@0@$$QEAH$$QEAVComplicated@?1??EmplaceFunc@cpp11@@AEAAXXZ@@Z
pdata	ENDS
;	COMDAT pdata
pdata	SEGMENT
$pdata$??1?$pair@HVComplicated@?1??EmplaceFunc@cpp11@@AEAAXXZ@@std@@QEAA@XZ DD imagerel ??1?$pair@HVComplicated@?1??EmplaceFunc@cpp11@@AEAAXXZ@@std@@QEAA@XZ
	DD	imagerel ??1?$pair@HVComplicated@?1??EmplaceFunc@cpp11@@AEAAXXZ@@std@@QEAA@XZ+71
	DD	imagerel $unwind$??1?$pair@HVComplicated@?1??EmplaceFunc@cpp11@@AEAAXXZ@@std@@QEAA@XZ
pdata	ENDS
;	COMDAT pdata
pdata	SEGMENT
$pdata$??1?$pair@$$CBHVComplicated@?1??EmplaceFunc@cpp11@@AEAAXXZ@@std@@QEAA@XZ DD imagerel ??1?$pair@$$CBHVComplicated@?1??EmplaceFunc@cpp11@@AEAAXXZ@@std@@QEAA@XZ
	DD	imagerel ??1?$pair@$$CBHVComplicated@?1??EmplaceFunc@cpp11@@AEAAXXZ@@std@@QEAA@XZ+71
	DD	imagerel $unwind$??1?$pair@$$CBHVComplicated@?1??EmplaceFunc@cpp11@@AEAAXXZ@@std@@QEAA@XZ
pdata	ENDS
;	COMDAT pdata
pdata	SEGMENT
$pdata$??_G?$pair@$$CBHVComplicated@?1??EmplaceFunc@cpp11@@AEAAXXZ@@std@@QEAAPEAXI@Z DD imagerel ??_G?$pair@$$CBHVComplicated@?1??EmplaceFunc@cpp11@@AEAAXXZ@@std@@QEAAPEAXI@Z
	DD	imagerel ??_G?$pair@$$CBHVComplicated@?1??EmplaceFunc@cpp11@@AEAAXXZ@@std@@QEAAPEAXI@Z+105
	DD	imagerel $unwind$??_G?$pair@$$CBHVComplicated@?1??EmplaceFunc@cpp11@@AEAAXXZ@@std@@QEAAPEAXI@Z
pdata	ENDS
;	COMDAT pdata
pdata	SEGMENT
$pdata$??$?0HVComplicated@?1??EmplaceFunc@cpp11@@AEAAXXZ@$0A@@?$pair@$$CBHVComplicated@?1??EmplaceFunc@cpp11@@AEAAXXZ@@std@@QEAA@$$QEAU?$pair@HVComplicated@?1??EmplaceFunc@cpp11@@AEAAXXZ@@1@@Z DD imagerel ??$?0HVComplicated@?1??EmplaceFunc@cpp11@@AEAAXXZ@$0A@@?$pair@$$CBHVComplicated@?1??EmplaceFunc@cpp11@@AEAAXXZ@@std@@QEAA@$$QEAU?$pair@HVComplicated@?1??EmplaceFunc@cpp11@@AEAAXXZ@@1@@Z
	DD	imagerel ??$?0HVComplicated@?1??EmplaceFunc@cpp11@@AEAAXXZ@$0A@@?$pair@$$CBHVComplicated@?1??EmplaceFunc@cpp11@@AEAAXXZ@@std@@QEAA@$$QEAU?$pair@HVComplicated@?1??EmplaceFunc@cpp11@@AEAAXXZ@@1@@Z+154
	DD	imagerel $unwind$??$?0HVComplicated@?1??EmplaceFunc@cpp11@@AEAAXXZ@$0A@@?$pair@$$CBHVComplicated@?1??EmplaceFunc@cpp11@@AEAAXXZ@@std@@QEAA@$$QEAU?$pair@HVComplicated@?1??EmplaceFunc@cpp11@@AEAAXXZ@@1@@Z
pdata	ENDS
;	COMDAT pdata
pdata	SEGMENT
$pdata$??$insert@U?$pair@HVComplicated@?1??EmplaceFunc@cpp11@@AEAAXXZ@@std@@X@?$map@HVComplicated@?1??EmplaceFunc@cpp11@@AEAAXXZ@U?$less@H@std@@V?$allocator@U?$pair@$$CBHVComplicated@?1??EmplaceFunc@cpp11@@AEAAXXZ@@std@@@5@@std@@QEAA?AU?$pair@V?$_Tree_iterator@V?$_Tree_val@U?$_Tree_simple_types@U?$pair@$$CBHVComplicated@?1??EmplaceFunc@cpp11@@AEAAXXZ@@std@@@std@@@std@@@std@@_N@1@$$QEAU?$pair@HVComplicated@?1??EmplaceFunc@cpp11@@AEAAXXZ@@1@@Z DD imagerel ??$insert@U?$pair@HVComplicated@?1??EmplaceFunc@cpp11@@AEAAXXZ@@std@@X@?$map@HVComplicated@?1??EmplaceFunc@cpp11@@AEAAXXZ@U?$less@H@std@@V?$allocator@U?$pair@$$CBHVComplicated@?1??EmplaceFunc@cpp11@@AEAAXXZ@@std@@@5@@std@@QEAA?AU?$pair@V?$_Tree_iterator@V?$_Tree_val@U?$_Tree_simple_types@U?$pair@$$CBHVComplicated@?1??EmplaceFunc@cpp11@@AEAAXXZ@@std@@@std@@@std@@@std@@_N@1@$$QEAU?$pair@HVComplicated@?1??EmplaceFunc@cpp11@@AEAAXXZ@@1@@Z
	DD	imagerel ??$insert@U?$pair@HVComplicated@?1??EmplaceFunc@cpp11@@AEAAXXZ@@std@@X@?$map@HVComplicated@?1??EmplaceFunc@cpp11@@AEAAXXZ@U?$less@H@std@@V?$allocator@U?$pair@$$CBHVComplicated@?1??EmplaceFunc@cpp11@@AEAAXXZ@@std@@@5@@std@@QEAA?AU?$pair@V?$_Tree_iterator@V?$_Tree_val@U?$_Tree_simple_types@U?$pair@$$CBHVComplicated@?1??EmplaceFunc@cpp11@@AEAAXXZ@@std@@@std@@@std@@@std@@_N@1@$$QEAU?$pair@HVComplicated@?1??EmplaceFunc@cpp11@@AEAAXXZ@@1@@Z+140
	DD	imagerel $unwind$??$insert@U?$pair@HVComplicated@?1??EmplaceFunc@cpp11@@AEAAXXZ@@std@@X@?$map@HVComplicated@?1??EmplaceFunc@cpp11@@AEAAXXZ@U?$less@H@std@@V?$allocator@U?$pair@$$CBHVComplicated@?1??EmplaceFunc@cpp11@@AEAAXXZ@@std@@@5@@std@@QEAA?AU?$pair@V?$_Tree_iterator@V?$_Tree_val@U?$_Tree_simple_types@U?$pair@$$CBHVComplicated@?1??EmplaceFunc@cpp11@@AEAAXXZ@@std@@@std@@@std@@@std@@_N@1@$$QEAU?$pair@HVComplicated@?1??EmplaceFunc@cpp11@@AEAAXXZ@@1@@Z
pdata	ENDS
;	COMDAT pdata
pdata	SEGMENT
$pdata$??0?$_Tree_unchecked_const_iterator@V?$_Tree_val@U?$_Tree_simple_types@U?$pair@$$CBHVComplicated@?1??EmplaceFunc@cpp11@@AEAAXXZ@@std@@@std@@@std@@U_Iterator_base12@2@@std@@QEAA@PEAU?$_Tree_node@U?$pair@$$CBHVComplicated@?1??EmplaceFunc@cpp11@@AEAAXXZ@@std@@PEAX@1@PEBV?$_Tree_val@U?$_Tree_simple_types@U?$pair@$$CBHVComplicated@?1??EmplaceFunc@cpp11@@AEAAXXZ@@std@@@std@@@1@@Z DD imagerel ??0?$_Tree_unchecked_const_iterator@V?$_Tree_val@U?$_Tree_simple_types@U?$pair@$$CBHVComplicated@?1??EmplaceFunc@cpp11@@AEAAXXZ@@std@@@std@@@std@@U_Iterator_base12@2@@std@@QEAA@PEAU?$_Tree_node@U?$pair@$$CBHVComplicated@?1??EmplaceFunc@cpp11@@AEAAXXZ@@std@@PEAX@1@PEBV?$_Tree_val@U?$_Tree_simple_types@U?$pair@$$CBHVComplicated@?1??EmplaceFunc@cpp11@@AEAAXXZ@@std@@@std@@@1@@Z
	DD	imagerel ??0?$_Tree_unchecked_const_iterator@V?$_Tree_val@U?$_Tree_simple_types@U?$pair@$$CBHVComplicated@?1??EmplaceFunc@cpp11@@AEAAXXZ@@std@@@std@@@std@@U_Iterator_base12@2@@std@@QEAA@PEAU?$_Tree_node@U?$pair@$$CBHVComplicated@?1??EmplaceFunc@cpp11@@AEAAXXZ@@std@@PEAX@1@PEBV?$_Tree_val@U?$_Tree_simple_types@U?$pair@$$CBHVComplicated@?1??EmplaceFunc@cpp11@@AEAAXXZ@@std@@@std@@@1@@Z+130
	DD	imagerel $unwind$??0?$_Tree_unchecked_const_iterator@V?$_Tree_val@U?$_Tree_simple_types@U?$pair@$$CBHVComplicated@?1??EmplaceFunc@cpp11@@AEAAXXZ@@std@@@std@@@std@@U_Iterator_base12@2@@std@@QEAA@PEAU?$_Tree_node@U?$pair@$$CBHVComplicated@?1??EmplaceFunc@cpp11@@AEAAXXZ@@std@@PEAX@1@PEBV?$_Tree_val@U?$_Tree_simple_types@U?$pair@$$CBHVComplicated@?1??EmplaceFunc@cpp11@@AEAAXXZ@@std@@@std@@@1@@Z
pdata	ENDS
;	COMDAT pdata
pdata	SEGMENT
$pdata$??1?$_Tree_unchecked_const_iterator@V?$_Tree_val@U?$_Tree_simple_types@U?$pair@$$CBHVComplicated@?1??EmplaceFunc@cpp11@@AEAAXXZ@@std@@@std@@@std@@U_Iterator_base12@2@@std@@QEAA@XZ DD imagerel ??1?$_Tree_unchecked_const_iterator@V?$_Tree_val@U?$_Tree_simple_types@U?$pair@$$CBHVComplicated@?1??EmplaceFunc@cpp11@@AEAAXXZ@@std@@@std@@@std@@U_Iterator_base12@2@@std@@QEAA@XZ
	DD	imagerel ??1?$_Tree_unchecked_const_iterator@V?$_Tree_val@U?$_Tree_simple_types@U?$pair@$$CBHVComplicated@?1??EmplaceFunc@cpp11@@AEAAXXZ@@std@@@std@@@std@@U_Iterator_base12@2@@std@@QEAA@XZ+64
	DD	imagerel $unwind$??1?$_Tree_unchecked_const_iterator@V?$_Tree_val@U?$_Tree_simple_types@U?$pair@$$CBHVComplicated@?1??EmplaceFunc@cpp11@@AEAAXXZ@@std@@@std@@@std@@U_Iterator_base12@2@@std@@QEAA@XZ
pdata	ENDS
;	COMDAT pdata
pdata	SEGMENT
$pdata$??0?$_Tree_unchecked_const_iterator@V?$_Tree_val@U?$_Tree_simple_types@U?$pair@$$CBHVComplicated@?1??EmplaceFunc@cpp11@@AEAAXXZ@@std@@@std@@@std@@U_Iterator_base12@2@@std@@QEAA@$$QEAV01@@Z DD imagerel ??0?$_Tree_unchecked_const_iterator@V?$_Tree_val@U?$_Tree_simple_types@U?$pair@$$CBHVComplicated@?1??EmplaceFunc@cpp11@@AEAAXXZ@@std@@@std@@@std@@U_Iterator_base12@2@@std@@QEAA@$$QEAV01@@Z
	DD	imagerel ??0?$_Tree_unchecked_const_iterator@V?$_Tree_val@U?$_Tree_simple_types@U?$pair@$$CBHVComplicated@?1??EmplaceFunc@cpp11@@AEAAXXZ@@std@@@std@@@std@@U_Iterator_base12@2@@std@@QEAA@$$QEAV01@@Z+105
	DD	imagerel $unwind$??0?$_Tree_unchecked_const_iterator@V?$_Tree_val@U?$_Tree_simple_types@U?$pair@$$CBHVComplicated@?1??EmplaceFunc@cpp11@@AEAAXXZ@@std@@@std@@@std@@U_Iterator_base12@2@@std@@QEAA@$$QEAV01@@Z
pdata	ENDS
;	COMDAT pdata
pdata	SEGMENT
$pdata$??0?$_Tree_const_iterator@V?$_Tree_val@U?$_Tree_simple_types@U?$pair@$$CBHVComplicated@?1??EmplaceFunc@cpp11@@AEAAXXZ@@std@@@std@@@std@@@std@@QEAA@PEAU?$_Tree_node@U?$pair@$$CBHVComplicated@?1??EmplaceFunc@cpp11@@AEAAXXZ@@std@@PEAX@1@PEBV?$_Tree_val@U?$_Tree_simple_types@U?$pair@$$CBHVComplicated@?1??EmplaceFunc@cpp11@@AEAAXXZ@@std@@@std@@@1@@Z DD imagerel ??0?$_Tree_const_iterator@V?$_Tree_val@U?$_Tree_simple_types@U?$pair@$$CBHVComplicated@?1??EmplaceFunc@cpp11@@AEAAXXZ@@std@@@std@@@std@@@std@@QEAA@PEAU?$_Tree_node@U?$pair@$$CBHVComplicated@?1??EmplaceFunc@cpp11@@AEAAXXZ@@std@@PEAX@1@PEBV?$_Tree_val@U?$_Tree_simple_types@U?$pair@$$CBHVComplicated@?1??EmplaceFunc@cpp11@@AEAAXXZ@@std@@@std@@@1@@Z
	DD	imagerel ??0?$_Tree_const_iterator@V?$_Tree_val@U?$_Tree_simple_types@U?$pair@$$CBHVComplicated@?1??EmplaceFunc@cpp11@@AEAAXXZ@@std@@@std@@@std@@@std@@QEAA@PEAU?$_Tree_node@U?$pair@$$CBHVComplicated@?1??EmplaceFunc@cpp11@@AEAAXXZ@@std@@PEAX@1@PEBV?$_Tree_val@U?$_Tree_simple_types@U?$pair@$$CBHVComplicated@?1??EmplaceFunc@cpp11@@AEAAXXZ@@std@@@std@@@1@@Z+107
	DD	imagerel $unwind$??0?$_Tree_const_iterator@V?$_Tree_val@U?$_Tree_simple_types@U?$pair@$$CBHVComplicated@?1??EmplaceFunc@cpp11@@AEAAXXZ@@std@@@std@@@std@@@std@@QEAA@PEAU?$_Tree_node@U?$pair@$$CBHVComplicated@?1??EmplaceFunc@cpp11@@AEAAXXZ@@std@@PEAX@1@PEBV?$_Tree_val@U?$_Tree_simple_types@U?$pair@$$CBHVComplicated@?1??EmplaceFunc@cpp11@@AEAAXXZ@@std@@@std@@@1@@Z
pdata	ENDS
;	COMDAT pdata
pdata	SEGMENT
$pdata$??1?$_Tree_const_iterator@V?$_Tree_val@U?$_Tree_simple_types@U?$pair@$$CBHVComplicated@?1??EmplaceFunc@cpp11@@AEAAXXZ@@std@@@std@@@std@@@std@@QEAA@XZ DD imagerel ??1?$_Tree_const_iterator@V?$_Tree_val@U?$_Tree_simple_types@U?$pair@$$CBHVComplicated@?1??EmplaceFunc@cpp11@@AEAAXXZ@@std@@@std@@@std@@@std@@QEAA@XZ
	DD	imagerel ??1?$_Tree_const_iterator@V?$_Tree_val@U?$_Tree_simple_types@U?$pair@$$CBHVComplicated@?1??EmplaceFunc@cpp11@@AEAAXXZ@@std@@@std@@@std@@@std@@QEAA@XZ+64
	DD	imagerel $unwind$??1?$_Tree_const_iterator@V?$_Tree_val@U?$_Tree_simple_types@U?$pair@$$CBHVComplicated@?1??EmplaceFunc@cpp11@@AEAAXXZ@@std@@@std@@@std@@@std@@QEAA@XZ
pdata	ENDS
;	COMDAT pdata
pdata	SEGMENT
$pdata$??0?$_Tree_const_iterator@V?$_Tree_val@U?$_Tree_simple_types@U?$pair@$$CBHVComplicated@?1??EmplaceFunc@cpp11@@AEAAXXZ@@std@@@std@@@std@@@std@@QEAA@$$QEAV01@@Z DD imagerel ??0?$_Tree_const_iterator@V?$_Tree_val@U?$_Tree_simple_types@U?$pair@$$CBHVComplicated@?1??EmplaceFunc@cpp11@@AEAAXXZ@@std@@@std@@@std@@@std@@QEAA@$$QEAV01@@Z
	DD	imagerel ??0?$_Tree_const_iterator@V?$_Tree_val@U?$_Tree_simple_types@U?$pair@$$CBHVComplicated@?1??EmplaceFunc@cpp11@@AEAAXXZ@@std@@@std@@@std@@@std@@QEAA@$$QEAV01@@Z+83
	DD	imagerel $unwind$??0?$_Tree_const_iterator@V?$_Tree_val@U?$_Tree_simple_types@U?$pair@$$CBHVComplicated@?1??EmplaceFunc@cpp11@@AEAAXXZ@@std@@@std@@@std@@@std@@QEAA@$$QEAV01@@Z
pdata	ENDS
;	COMDAT pdata
pdata	SEGMENT
$pdata$??0?$_Tree_iterator@V?$_Tree_val@U?$_Tree_simple_types@U?$pair@$$CBHVComplicated@?1??EmplaceFunc@cpp11@@AEAAXXZ@@std@@@std@@@std@@@std@@QEAA@PEAU?$_Tree_node@U?$pair@$$CBHVComplicated@?1??EmplaceFunc@cpp11@@AEAAXXZ@@std@@PEAX@1@PEBV?$_Tree_val@U?$_Tree_simple_types@U?$pair@$$CBHVComplicated@?1??EmplaceFunc@cpp11@@AEAAXXZ@@std@@@std@@@1@@Z DD imagerel ??0?$_Tree_iterator@V?$_Tree_val@U?$_Tree_simple_types@U?$pair@$$CBHVComplicated@?1??EmplaceFunc@cpp11@@AEAAXXZ@@std@@@std@@@std@@@std@@QEAA@PEAU?$_Tree_node@U?$pair@$$CBHVComplicated@?1??EmplaceFunc@cpp11@@AEAAXXZ@@std@@PEAX@1@PEBV?$_Tree_val@U?$_Tree_simple_types@U?$pair@$$CBHVComplicated@?1??EmplaceFunc@cpp11@@AEAAXXZ@@std@@@std@@@1@@Z
	DD	imagerel ??0?$_Tree_iterator@V?$_Tree_val@U?$_Tree_simple_types@U?$pair@$$CBHVComplicated@?1??EmplaceFunc@cpp11@@AEAAXXZ@@std@@@std@@@std@@@std@@QEAA@PEAU?$_Tree_node@U?$pair@$$CBHVComplicated@?1??EmplaceFunc@cpp11@@AEAAXXZ@@std@@PEAX@1@PEBV?$_Tree_val@U?$_Tree_simple_types@U?$pair@$$CBHVComplicated@?1??EmplaceFunc@cpp11@@AEAAXXZ@@std@@@std@@@1@@Z+107
	DD	imagerel $unwind$??0?$_Tree_iterator@V?$_Tree_val@U?$_Tree_simple_types@U?$pair@$$CBHVComplicated@?1??EmplaceFunc@cpp11@@AEAAXXZ@@std@@@std@@@std@@@std@@QEAA@PEAU?$_Tree_node@U?$pair@$$CBHVComplicated@?1??EmplaceFunc@cpp11@@AEAAXXZ@@std@@PEAX@1@PEBV?$_Tree_val@U?$_Tree_simple_types@U?$pair@$$CBHVComplicated@?1??EmplaceFunc@cpp11@@AEAAXXZ@@std@@@std@@@1@@Z
pdata	ENDS
;	COMDAT pdata
pdata	SEGMENT
$pdata$??1?$_Tree_iterator@V?$_Tree_val@U?$_Tree_simple_types@U?$pair@$$CBHVComplicated@?1??EmplaceFunc@cpp11@@AEAAXXZ@@std@@@std@@@std@@@std@@QEAA@XZ DD imagerel ??1?$_Tree_iterator@V?$_Tree_val@U?$_Tree_simple_types@U?$pair@$$CBHVComplicated@?1??EmplaceFunc@cpp11@@AEAAXXZ@@std@@@std@@@std@@@std@@QEAA@XZ
	DD	imagerel ??1?$_Tree_iterator@V?$_Tree_val@U?$_Tree_simple_types@U?$pair@$$CBHVComplicated@?1??EmplaceFunc@cpp11@@AEAAXXZ@@std@@@std@@@std@@@std@@QEAA@XZ+64
	DD	imagerel $unwind$??1?$_Tree_iterator@V?$_Tree_val@U?$_Tree_simple_types@U?$pair@$$CBHVComplicated@?1??EmplaceFunc@cpp11@@AEAAXXZ@@std@@@std@@@std@@@std@@QEAA@XZ
pdata	ENDS
;	COMDAT pdata
pdata	SEGMENT
$pdata$??0?$_Tree_iterator@V?$_Tree_val@U?$_Tree_simple_types@U?$pair@$$CBHVComplicated@?1??EmplaceFunc@cpp11@@AEAAXXZ@@std@@@std@@@std@@@std@@QEAA@$$QEAV01@@Z DD imagerel ??0?$_Tree_iterator@V?$_Tree_val@U?$_Tree_simple_types@U?$pair@$$CBHVComplicated@?1??EmplaceFunc@cpp11@@AEAAXXZ@@std@@@std@@@std@@@std@@QEAA@$$QEAV01@@Z
	DD	imagerel ??0?$_Tree_iterator@V?$_Tree_val@U?$_Tree_simple_types@U?$pair@$$CBHVComplicated@?1??EmplaceFunc@cpp11@@AEAAXXZ@@std@@@std@@@std@@@std@@QEAA@$$QEAV01@@Z+83
	DD	imagerel $unwind$??0?$_Tree_iterator@V?$_Tree_val@U?$_Tree_simple_types@U?$pair@$$CBHVComplicated@?1??EmplaceFunc@cpp11@@AEAAXXZ@@std@@@std@@@std@@@std@@QEAA@$$QEAV01@@Z
pdata	ENDS
;	COMDAT pdata
pdata	SEGMENT
$pdata$??1?$pair@V?$_Tree_iterator@V?$_Tree_val@U?$_Tree_simple_types@U?$pair@$$CBHVComplicated@?1??EmplaceFunc@cpp11@@AEAAXXZ@@std@@@std@@@std@@@std@@_N@std@@QEAA@XZ DD imagerel ??1?$pair@V?$_Tree_iterator@V?$_Tree_val@U?$_Tree_simple_types@U?$pair@$$CBHVComplicated@?1??EmplaceFunc@cpp11@@AEAAXXZ@@std@@@std@@@std@@@std@@_N@std@@QEAA@XZ
	DD	imagerel ??1?$pair@V?$_Tree_iterator@V?$_Tree_val@U?$_Tree_simple_types@U?$pair@$$CBHVComplicated@?1??EmplaceFunc@cpp11@@AEAAXXZ@@std@@@std@@@std@@@std@@_N@std@@QEAA@XZ+67
	DD	imagerel $unwind$??1?$pair@V?$_Tree_iterator@V?$_Tree_val@U?$_Tree_simple_types@U?$pair@$$CBHVComplicated@?1??EmplaceFunc@cpp11@@AEAAXXZ@@std@@@std@@@std@@@std@@_N@std@@QEAA@XZ
pdata	ENDS
;	COMDAT pdata
pdata	SEGMENT
$pdata$??$emplace@U?$pair@HVComplicated@?1??EmplaceFunc@cpp11@@AEAAXXZ@@std@@@?$_Tree@V?$_Tmap_traits@HVComplicated@?1??EmplaceFunc@cpp11@@AEAAXXZ@U?$less@H@std@@V?$allocator@U?$pair@$$CBHVComplicated@?1??EmplaceFunc@cpp11@@AEAAXXZ@@std@@@5@$0A@@std@@@std@@QEAA?AU?$pair@V?$_Tree_iterator@V?$_Tree_val@U?$_Tree_simple_types@U?$pair@$$CBHVComplicated@?1??EmplaceFunc@cpp11@@AEAAXXZ@@std@@@std@@@std@@@std@@_N@1@$$QEAU?$pair@HVComplicated@?1??EmplaceFunc@cpp11@@AEAAXXZ@@1@@Z DD imagerel ??$emplace@U?$pair@HVComplicated@?1??EmplaceFunc@cpp11@@AEAAXXZ@@std@@@?$_Tree@V?$_Tmap_traits@HVComplicated@?1??EmplaceFunc@cpp11@@AEAAXXZ@U?$less@H@std@@V?$allocator@U?$pair@$$CBHVComplicated@?1??EmplaceFunc@cpp11@@AEAAXXZ@@std@@@5@$0A@@std@@@std@@QEAA?AU?$pair@V?$_Tree_iterator@V?$_Tree_val@U?$_Tree_simple_types@U?$pair@$$CBHVComplicated@?1??EmplaceFunc@cpp11@@AEAAXXZ@@std@@@std@@@std@@@std@@_N@1@$$QEAU?$pair@HVComplicated@?1??EmplaceFunc@cpp11@@AEAAXXZ@@1@@Z
	DD	imagerel ??$emplace@U?$pair@HVComplicated@?1??EmplaceFunc@cpp11@@AEAAXXZ@@std@@@?$_Tree@V?$_Tmap_traits@HVComplicated@?1??EmplaceFunc@cpp11@@AEAAXXZ@U?$less@H@std@@V?$allocator@U?$pair@$$CBHVComplicated@?1??EmplaceFunc@cpp11@@AEAAXXZ@@std@@@5@$0A@@std@@@std@@QEAA?AU?$pair@V?$_Tree_iterator@V?$_Tree_val@U?$_Tree_simple_types@U?$pair@$$CBHVComplicated@?1??EmplaceFunc@cpp11@@AEAAXXZ@@std@@@std@@@std@@@std@@_N@1@$$QEAU?$pair@HVComplicated@?1??EmplaceFunc@cpp11@@AEAAXXZ@@1@@Z+264
	DD	imagerel $unwind$??$emplace@U?$pair@HVComplicated@?1??EmplaceFunc@cpp11@@AEAAXXZ@@std@@@?$_Tree@V?$_Tmap_traits@HVComplicated@?1??EmplaceFunc@cpp11@@AEAAXXZ@U?$less@H@std@@V?$allocator@U?$pair@$$CBHVComplicated@?1??EmplaceFunc@cpp11@@AEAAXXZ@@std@@@5@$0A@@std@@@std@@QEAA?AU?$pair@V?$_Tree_iterator@V?$_Tree_val@U?$_Tree_simple_types@U?$pair@$$CBHVComplicated@?1??EmplaceFunc@cpp11@@AEAAXXZ@@std@@@std@@@std@@@std@@_N@1@$$QEAU?$pair@HVComplicated@?1??EmplaceFunc@cpp11@@AEAAXXZ@@1@@Z
pdata	ENDS
;	COMDAT pdata
pdata	SEGMENT
$pdata$??0?$allocator@VComplicated@?1??EmplaceFunc@cpp11@@AEAAXXZ@@std@@QEAA@XZ DD imagerel ??0?$allocator@VComplicated@?1??EmplaceFunc@cpp11@@AEAAXXZ@@std@@QEAA@XZ
	DD	imagerel ??0?$allocator@VComplicated@?1??EmplaceFunc@cpp11@@AEAAXXZ@@std@@QEAA@XZ+72
	DD	imagerel $unwind$??0?$allocator@VComplicated@?1??EmplaceFunc@cpp11@@AEAAXXZ@@std@@QEAA@XZ
pdata	ENDS
;	COMDAT pdata
pdata	SEGMENT
$pdata$?deallocate@?$allocator@VComplicated@?1??EmplaceFunc@cpp11@@AEAAXXZ@@std@@QEAAXQEAVComplicated@?1??EmplaceFunc@cpp11@@AEAAXXZ@_K@Z DD imagerel ?deallocate@?$allocator@VComplicated@?1??EmplaceFunc@cpp11@@AEAAXXZ@@std@@QEAAXQEAVComplicated@?1??EmplaceFunc@cpp11@@AEAAXXZ@_K@Z
	DD	imagerel ?deallocate@?$allocator@VComplicated@?1??EmplaceFunc@cpp11@@AEAAXXZ@@std@@QEAAXQEAVComplicated@?1??EmplaceFunc@cpp11@@AEAAXXZ@_K@Z+97
	DD	imagerel $unwind$?deallocate@?$allocator@VComplicated@?1??EmplaceFunc@cpp11@@AEAAXXZ@@std@@QEAAXQEAVComplicated@?1??EmplaceFunc@cpp11@@AEAAXXZ@_K@Z
pdata	ENDS
;	COMDAT pdata
pdata	SEGMENT
$pdata$?allocate@?$allocator@VComplicated@?1??EmplaceFunc@cpp11@@AEAAXXZ@@std@@QEAAPEAVComplicated@?1??EmplaceFunc@cpp11@@AEAAXXZ@_K@Z DD imagerel ?allocate@?$allocator@VComplicated@?1??EmplaceFunc@cpp11@@AEAAXXZ@@std@@QEAAPEAVComplicated@?1??EmplaceFunc@cpp11@@AEAAXXZ@_K@Z
	DD	imagerel ?allocate@?$allocator@VComplicated@?1??EmplaceFunc@cpp11@@AEAAXXZ@@std@@QEAAPEAVComplicated@?1??EmplaceFunc@cpp11@@AEAAXXZ@_K@Z+89
	DD	imagerel $unwind$?allocate@?$allocator@VComplicated@?1??EmplaceFunc@cpp11@@AEAAXXZ@@std@@QEAAPEAVComplicated@?1??EmplaceFunc@cpp11@@AEAAXXZ@_K@Z
pdata	ENDS
;	COMDAT pdata
pdata	SEGMENT
$pdata$?max_size@?$_Default_allocator_traits@V?$allocator@VComplicated@?1??EmplaceFunc@cpp11@@AEAAXXZ@@std@@@std@@SA_KAEBV?$allocator@VComplicated@?1??EmplaceFunc@cpp11@@AEAAXXZ@@2@@Z DD imagerel ?max_size@?$_Default_allocator_traits@V?$allocator@VComplicated@?1??EmplaceFunc@cpp11@@AEAAXXZ@@std@@@std@@SA_KAEBV?$allocator@VComplicated@?1??EmplaceFunc@cpp11@@AEAAXXZ@@2@@Z
	DD	imagerel ?max_size@?$_Default_allocator_traits@V?$allocator@VComplicated@?1??EmplaceFunc@cpp11@@AEAAXXZ@@std@@@std@@SA_KAEBV?$allocator@VComplicated@?1??EmplaceFunc@cpp11@@AEAAXXZ@@2@@Z+75
	DD	imagerel $unwind$?max_size@?$_Default_allocator_traits@V?$allocator@VComplicated@?1??EmplaceFunc@cpp11@@AEAAXXZ@@std@@@std@@SA_KAEBV?$allocator@VComplicated@?1??EmplaceFunc@cpp11@@AEAAXXZ@@2@@Z
pdata	ENDS
;	COMDAT pdata
pdata	SEGMENT
$pdata$??0?$vector@VComplicated@?1??EmplaceFunc@cpp11@@AEAAXXZ@V?$allocator@VComplicated@?1??EmplaceFunc@cpp11@@AEAAXXZ@@std@@@std@@QEAA@XZ DD imagerel ??0?$vector@VComplicated@?1??EmplaceFunc@cpp11@@AEAAXXZ@V?$allocator@VComplicated@?1??EmplaceFunc@cpp11@@AEAAXXZ@@std@@@std@@QEAA@XZ
	DD	imagerel ??0?$vector@VComplicated@?1??EmplaceFunc@cpp11@@AEAAXXZ@V?$allocator@VComplicated@?1??EmplaceFunc@cpp11@@AEAAXXZ@@std@@@std@@QEAA@XZ+165
	DD	imagerel $unwind$??0?$vector@VComplicated@?1??EmplaceFunc@cpp11@@AEAAXXZ@V?$allocator@VComplicated@?1??EmplaceFunc@cpp11@@AEAAXXZ@@std@@@std@@QEAA@XZ
pdata	ENDS
;	COMDAT pdata
pdata	SEGMENT
$pdata$??1?$vector@VComplicated@?1??EmplaceFunc@cpp11@@AEAAXXZ@V?$allocator@VComplicated@?1??EmplaceFunc@cpp11@@AEAAXXZ@@std@@@std@@QEAA@XZ DD imagerel ??1?$vector@VComplicated@?1??EmplaceFunc@cpp11@@AEAAXXZ@V?$allocator@VComplicated@?1??EmplaceFunc@cpp11@@AEAAXXZ@@std@@@std@@QEAA@XZ
	DD	imagerel ??1?$vector@VComplicated@?1??EmplaceFunc@cpp11@@AEAAXXZ@V?$allocator@VComplicated@?1??EmplaceFunc@cpp11@@AEAAXXZ@@std@@@std@@QEAA@XZ+209
	DD	imagerel $unwind$??1?$vector@VComplicated@?1??EmplaceFunc@cpp11@@AEAAXXZ@V?$allocator@VComplicated@?1??EmplaceFunc@cpp11@@AEAAXXZ@@std@@@std@@QEAA@XZ
pdata	ENDS
;	COMDAT pdata
pdata	SEGMENT
$pdata$?push_back@?$vector@VComplicated@?1??EmplaceFunc@cpp11@@AEAAXXZ@V?$allocator@VComplicated@?1??EmplaceFunc@cpp11@@AEAAXXZ@@std@@@std@@QEAAX$$QEAVComplicated@?1??EmplaceFunc@cpp11@@AEAAXXZ@@Z DD imagerel ?push_back@?$vector@VComplicated@?1??EmplaceFunc@cpp11@@AEAAXXZ@V?$allocator@VComplicated@?1??EmplaceFunc@cpp11@@AEAAXXZ@@std@@@std@@QEAAX$$QEAVComplicated@?1??EmplaceFunc@cpp11@@AEAAXXZ@@Z
	DD	imagerel ?push_back@?$vector@VComplicated@?1??EmplaceFunc@cpp11@@AEAAXXZ@V?$allocator@VComplicated@?1??EmplaceFunc@cpp11@@AEAAXXZ@@std@@@std@@QEAAX$$QEAVComplicated@?1??EmplaceFunc@cpp11@@AEAAXXZ@@Z+96
	DD	imagerel $unwind$?push_back@?$vector@VComplicated@?1??EmplaceFunc@cpp11@@AEAAXXZ@V?$allocator@VComplicated@?1??EmplaceFunc@cpp11@@AEAAXXZ@@std@@@std@@QEAAX$$QEAVComplicated@?1??EmplaceFunc@cpp11@@AEAAXXZ@@Z
pdata	ENDS
;	COMDAT pdata
pdata	SEGMENT
$pdata$?max_size@?$vector@VComplicated@?1??EmplaceFunc@cpp11@@AEAAXXZ@V?$allocator@VComplicated@?1??EmplaceFunc@cpp11@@AEAAXXZ@@std@@@std@@QEBA_KXZ DD imagerel ?max_size@?$vector@VComplicated@?1??EmplaceFunc@cpp11@@AEAAXXZ@V?$allocator@VComplicated@?1??EmplaceFunc@cpp11@@AEAAXXZ@@std@@@std@@QEBA_KXZ
	DD	imagerel ?max_size@?$vector@VComplicated@?1??EmplaceFunc@cpp11@@AEAAXXZ@V?$allocator@VComplicated@?1??EmplaceFunc@cpp11@@AEAAXXZ@@std@@@std@@QEBA_KXZ+130
	DD	imagerel $unwind$?max_size@?$vector@VComplicated@?1??EmplaceFunc@cpp11@@AEAAXXZ@V?$allocator@VComplicated@?1??EmplaceFunc@cpp11@@AEAAXXZ@@std@@@std@@QEBA_KXZ
pdata	ENDS
;	COMDAT pdata
pdata	SEGMENT
$pdata$?capacity@?$vector@VComplicated@?1??EmplaceFunc@cpp11@@AEAAXXZ@V?$allocator@VComplicated@?1??EmplaceFunc@cpp11@@AEAAXXZ@@std@@@std@@QEBA_KXZ DD imagerel ?capacity@?$vector@VComplicated@?1??EmplaceFunc@cpp11@@AEAAXXZ@V?$allocator@VComplicated@?1??EmplaceFunc@cpp11@@AEAAXXZ@@std@@@std@@QEBA_KXZ
	DD	imagerel ?capacity@?$vector@VComplicated@?1??EmplaceFunc@cpp11@@AEAAXXZ@V?$allocator@VComplicated@?1??EmplaceFunc@cpp11@@AEAAXXZ@@std@@@std@@QEBA_KXZ+105
	DD	imagerel $unwind$?capacity@?$vector@VComplicated@?1??EmplaceFunc@cpp11@@AEAAXXZ@V?$allocator@VComplicated@?1??EmplaceFunc@cpp11@@AEAAXXZ@@std@@@std@@QEBA_KXZ
pdata	ENDS
;	COMDAT pdata
pdata	SEGMENT
$pdata$?_Umove@?$vector@VComplicated@?1??EmplaceFunc@cpp11@@AEAAXXZ@V?$allocator@VComplicated@?1??EmplaceFunc@cpp11@@AEAAXXZ@@std@@@std@@AEAAPEAVComplicated@?1??EmplaceFunc@cpp11@@AEAAXXZ@PEAV3?1??45@AEAAXXZ@00@Z DD imagerel ?_Umove@?$vector@VComplicated@?1??EmplaceFunc@cpp11@@AEAAXXZ@V?$allocator@VComplicated@?1??EmplaceFunc@cpp11@@AEAAXXZ@@std@@@std@@AEAAPEAVComplicated@?1??EmplaceFunc@cpp11@@AEAAXXZ@PEAV3?1??45@AEAAXXZ@00@Z
	DD	imagerel ?_Umove@?$vector@VComplicated@?1??EmplaceFunc@cpp11@@AEAAXXZ@V?$allocator@VComplicated@?1??EmplaceFunc@cpp11@@AEAAXXZ@@std@@@std@@AEAAPEAVComplicated@?1??EmplaceFunc@cpp11@@AEAAXXZ@PEAV3?1??45@AEAAXXZ@00@Z+120
	DD	imagerel $unwind$?_Umove@?$vector@VComplicated@?1??EmplaceFunc@cpp11@@AEAAXXZ@V?$allocator@VComplicated@?1??EmplaceFunc@cpp11@@AEAAXXZ@@std@@@std@@AEAAPEAVComplicated@?1??EmplaceFunc@cpp11@@AEAAXXZ@PEAV3?1??45@AEAAXXZ@00@Z
pdata	ENDS
;	COMDAT pdata
pdata	SEGMENT
$pdata$?_Umove_if_noexcept1@?$vector@VComplicated@?1??EmplaceFunc@cpp11@@AEAAXXZ@V?$allocator@VComplicated@?1??EmplaceFunc@cpp11@@AEAAXXZ@@std@@@std@@AEAAXPEAVComplicated@?1??EmplaceFunc@cpp11@@AEAAXXZ@00U?$integral_constant@_N$0A@@2@@Z DD imagerel ?_Umove_if_noexcept1@?$vector@VComplicated@?1??EmplaceFunc@cpp11@@AEAAXXZ@V?$allocator@VComplicated@?1??EmplaceFunc@cpp11@@AEAAXXZ@@std@@@std@@AEAAXPEAVComplicated@?1??EmplaceFunc@cpp11@@AEAAXXZ@00U?$integral_constant@_N$0A@@2@@Z
	DD	imagerel ?_Umove_if_noexcept1@?$vector@VComplicated@?1??EmplaceFunc@cpp11@@AEAAXXZ@V?$allocator@VComplicated@?1??EmplaceFunc@cpp11@@AEAAXXZ@@std@@@std@@AEAAXPEAVComplicated@?1??EmplaceFunc@cpp11@@AEAAXXZ@00U?$integral_constant@_N$0A@@2@@Z+120
	DD	imagerel $unwind$?_Umove_if_noexcept1@?$vector@VComplicated@?1??EmplaceFunc@cpp11@@AEAAXXZ@V?$allocator@VComplicated@?1??EmplaceFunc@cpp11@@AEAAXXZ@@std@@@std@@AEAAXPEAVComplicated@?1??EmplaceFunc@cpp11@@AEAAXXZ@00U?$integral_constant@_N$0A@@2@@Z
pdata	ENDS
;	COMDAT pdata
pdata	SEGMENT
$pdata$?_Umove_if_noexcept@?$vector@VComplicated@?1??EmplaceFunc@cpp11@@AEAAXXZ@V?$allocator@VComplicated@?1??EmplaceFunc@cpp11@@AEAAXXZ@@std@@@std@@AEAAXPEAVComplicated@?1??EmplaceFunc@cpp11@@AEAAXXZ@00@Z DD imagerel ?_Umove_if_noexcept@?$vector@VComplicated@?1??EmplaceFunc@cpp11@@AEAAXXZ@V?$allocator@VComplicated@?1??EmplaceFunc@cpp11@@AEAAXXZ@@std@@@std@@AEAAXPEAVComplicated@?1??EmplaceFunc@cpp11@@AEAAXXZ@00@Z
	DD	imagerel ?_Umove_if_noexcept@?$vector@VComplicated@?1??EmplaceFunc@cpp11@@AEAAXXZ@V?$allocator@VComplicated@?1??EmplaceFunc@cpp11@@AEAAXXZ@@std@@@std@@AEAAXPEAVComplicated@?1??EmplaceFunc@cpp11@@AEAAXXZ@00@Z+142
	DD	imagerel $unwind$?_Umove_if_noexcept@?$vector@VComplicated@?1??EmplaceFunc@cpp11@@AEAAXXZ@V?$allocator@VComplicated@?1??EmplaceFunc@cpp11@@AEAAXXZ@@std@@@std@@AEAAXPEAVComplicated@?1??EmplaceFunc@cpp11@@AEAAXXZ@00@Z
pdata	ENDS
;	COMDAT pdata
pdata	SEGMENT
$pdata$?_Destroy@?$vector@VComplicated@?1??EmplaceFunc@cpp11@@AEAAXXZ@V?$allocator@VComplicated@?1??EmplaceFunc@cpp11@@AEAAXXZ@@std@@@std@@AEAAXPEAVComplicated@?1??EmplaceFunc@cpp11@@AEAAXXZ@0@Z DD imagerel ?_Destroy@?$vector@VComplicated@?1??EmplaceFunc@cpp11@@AEAAXXZ@V?$allocator@VComplicated@?1??EmplaceFunc@cpp11@@AEAAXXZ@@std@@@std@@AEAAXPEAVComplicated@?1??EmplaceFunc@cpp11@@AEAAXXZ@0@Z
	DD	imagerel ?_Destroy@?$vector@VComplicated@?1??EmplaceFunc@cpp11@@AEAAXXZ@V?$allocator@VComplicated@?1??EmplaceFunc@cpp11@@AEAAXXZ@@std@@@std@@AEAAXPEAVComplicated@?1??EmplaceFunc@cpp11@@AEAAXXZ@0@Z+108
	DD	imagerel $unwind$?_Destroy@?$vector@VComplicated@?1??EmplaceFunc@cpp11@@AEAAXXZ@V?$allocator@VComplicated@?1??EmplaceFunc@cpp11@@AEAAXXZ@@std@@@std@@AEAAXPEAVComplicated@?1??EmplaceFunc@cpp11@@AEAAXXZ@0@Z
pdata	ENDS
;	COMDAT pdata
pdata	SEGMENT
$pdata$?_Calculate_growth@?$vector@VComplicated@?1??EmplaceFunc@cpp11@@AEAAXXZ@V?$allocator@VComplicated@?1??EmplaceFunc@cpp11@@AEAAXXZ@@std@@@std@@AEBA_K_K@Z DD imagerel ?_Calculate_growth@?$vector@VComplicated@?1??EmplaceFunc@cpp11@@AEAAXXZ@V?$allocator@VComplicated@?1??EmplaceFunc@cpp11@@AEAAXXZ@@std@@@std@@AEBA_K_K@Z
	DD	imagerel ?_Calculate_growth@?$vector@VComplicated@?1??EmplaceFunc@cpp11@@AEAAXXZ@V?$allocator@VComplicated@?1??EmplaceFunc@cpp11@@AEAAXXZ@@std@@@std@@AEBA_K_K@Z+200
	DD	imagerel $unwind$?_Calculate_growth@?$vector@VComplicated@?1??EmplaceFunc@cpp11@@AEAAXXZ@V?$allocator@VComplicated@?1??EmplaceFunc@cpp11@@AEAAXXZ@@std@@@std@@AEBA_K_K@Z
pdata	ENDS
;	COMDAT pdata
pdata	SEGMENT
$pdata$?_Change_array@?$vector@VComplicated@?1??EmplaceFunc@cpp11@@AEAAXXZ@V?$allocator@VComplicated@?1??EmplaceFunc@cpp11@@AEAAXXZ@@std@@@std@@AEAAXQEAVComplicated@?1??EmplaceFunc@cpp11@@AEAAXXZ@_K1@Z DD imagerel ?_Change_array@?$vector@VComplicated@?1??EmplaceFunc@cpp11@@AEAAXXZ@V?$allocator@VComplicated@?1??EmplaceFunc@cpp11@@AEAAXXZ@@std@@@std@@AEAAXQEAVComplicated@?1??EmplaceFunc@cpp11@@AEAAXXZ@_K1@Z
	DD	imagerel ?_Change_array@?$vector@VComplicated@?1??EmplaceFunc@cpp11@@AEAAXXZ@V?$allocator@VComplicated@?1??EmplaceFunc@cpp11@@AEAAXXZ@@std@@@std@@AEAAXQEAVComplicated@?1??EmplaceFunc@cpp11@@AEAAXXZ@_K1@Z+334
	DD	imagerel $unwind$?_Change_array@?$vector@VComplicated@?1??EmplaceFunc@cpp11@@AEAAXXZ@V?$allocator@VComplicated@?1??EmplaceFunc@cpp11@@AEAAXXZ@@std@@@std@@AEAAXQEAVComplicated@?1??EmplaceFunc@cpp11@@AEAAXXZ@_K1@Z
pdata	ENDS
;	COMDAT pdata
pdata	SEGMENT
$pdata$?_Tidy@?$vector@VComplicated@?1??EmplaceFunc@cpp11@@AEAAXXZ@V?$allocator@VComplicated@?1??EmplaceFunc@cpp11@@AEAAXXZ@@std@@@std@@AEAAXXZ DD imagerel ?_Tidy@?$vector@VComplicated@?1??EmplaceFunc@cpp11@@AEAAXXZ@V?$allocator@VComplicated@?1??EmplaceFunc@cpp11@@AEAAXXZ@@std@@@std@@AEAAXXZ
	DD	imagerel ?_Tidy@?$vector@VComplicated@?1??EmplaceFunc@cpp11@@AEAAXXZ@V?$allocator@VComplicated@?1??EmplaceFunc@cpp11@@AEAAXXZ@@std@@@std@@AEAAXXZ+291
	DD	imagerel $unwind$?_Tidy@?$vector@VComplicated@?1??EmplaceFunc@cpp11@@AEAAXXZ@V?$allocator@VComplicated@?1??EmplaceFunc@cpp11@@AEAAXXZ@@std@@@std@@AEAAXXZ
pdata	ENDS
;	COMDAT pdata
pdata	SEGMENT
$pdata$?_Xlength@?$vector@VComplicated@?1??EmplaceFunc@cpp11@@AEAAXXZ@V?$allocator@VComplicated@?1??EmplaceFunc@cpp11@@AEAAXXZ@@std@@@std@@CAXXZ DD imagerel ?_Xlength@?$vector@VComplicated@?1??EmplaceFunc@cpp11@@AEAAXXZ@V?$allocator@VComplicated@?1??EmplaceFunc@cpp11@@AEAAXXZ@@std@@@std@@CAXXZ
	DD	imagerel ?_Xlength@?$vector@VComplicated@?1??EmplaceFunc@cpp11@@AEAAXXZ@V?$allocator@VComplicated@?1??EmplaceFunc@cpp11@@AEAAXXZ@@std@@@std@@CAXXZ+64
	DD	imagerel $unwind$?_Xlength@?$vector@VComplicated@?1??EmplaceFunc@cpp11@@AEAAXXZ@V?$allocator@VComplicated@?1??EmplaceFunc@cpp11@@AEAAXXZ@@std@@@std@@CAXXZ
pdata	ENDS
;	COMDAT pdata
pdata	SEGMENT
$pdata$?_Orphan_range@?$vector@VComplicated@?1??EmplaceFunc@cpp11@@AEAAXXZ@V?$allocator@VComplicated@?1??EmplaceFunc@cpp11@@AEAAXXZ@@std@@@std@@AEBAXPEAVComplicated@?1??EmplaceFunc@cpp11@@AEAAXXZ@0@Z DD imagerel ?_Orphan_range@?$vector@VComplicated@?1??EmplaceFunc@cpp11@@AEAAXXZ@V?$allocator@VComplicated@?1??EmplaceFunc@cpp11@@AEAAXXZ@@std@@@std@@AEBAXPEAVComplicated@?1??EmplaceFunc@cpp11@@AEAAXXZ@0@Z
	DD	imagerel ?_Orphan_range@?$vector@VComplicated@?1??EmplaceFunc@cpp11@@AEAAXXZ@V?$allocator@VComplicated@?1??EmplaceFunc@cpp11@@AEAAXXZ@@std@@@std@@AEBAXPEAVComplicated@?1??EmplaceFunc@cpp11@@AEAAXXZ@0@Z+267
	DD	imagerel $unwind$?_Orphan_range@?$vector@VComplicated@?1??EmplaceFunc@cpp11@@AEAAXXZ@V?$allocator@VComplicated@?1??EmplaceFunc@cpp11@@AEAAXXZ@@std@@@std@@AEBAXPEAVComplicated@?1??EmplaceFunc@cpp11@@AEAAXXZ@0@Z
pdata	ENDS
;	COMDAT pdata
pdata	SEGMENT
$pdata$?_Getal@?$vector@VComplicated@?1??EmplaceFunc@cpp11@@AEAAXXZ@V?$allocator@VComplicated@?1??EmplaceFunc@cpp11@@AEAAXXZ@@std@@@std@@AEAAAEAV?$allocator@VComplicated@?1??EmplaceFunc@cpp11@@AEAAXXZ@@2@XZ DD imagerel ?_Getal@?$vector@VComplicated@?1??EmplaceFunc@cpp11@@AEAAXXZ@V?$allocator@VComplicated@?1??EmplaceFunc@cpp11@@AEAAXXZ@@std@@@std@@AEAAAEAV?$allocator@VComplicated@?1??EmplaceFunc@cpp11@@AEAAXXZ@@2@XZ
	DD	imagerel ?_Getal@?$vector@VComplicated@?1??EmplaceFunc@cpp11@@AEAAXXZ@V?$allocator@VComplicated@?1??EmplaceFunc@cpp11@@AEAAXXZ@@std@@@std@@AEAAAEAV?$allocator@VComplicated@?1??EmplaceFunc@cpp11@@AEAAXXZ@@2@XZ+81
	DD	imagerel $unwind$?_Getal@?$vector@VComplicated@?1??EmplaceFunc@cpp11@@AEAAXXZ@V?$allocator@VComplicated@?1??EmplaceFunc@cpp11@@AEAAXXZ@@std@@@std@@AEAAAEAV?$allocator@VComplicated@?1??EmplaceFunc@cpp11@@AEAAXXZ@@2@XZ
pdata	ENDS
;	COMDAT pdata
pdata	SEGMENT
$pdata$?_Getal@?$vector@VComplicated@?1??EmplaceFunc@cpp11@@AEAAXXZ@V?$allocator@VComplicated@?1??EmplaceFunc@cpp11@@AEAAXXZ@@std@@@std@@AEBAAEBV?$allocator@VComplicated@?1??EmplaceFunc@cpp11@@AEAAXXZ@@2@XZ DD imagerel ?_Getal@?$vector@VComplicated@?1??EmplaceFunc@cpp11@@AEAAXXZ@V?$allocator@VComplicated@?1??EmplaceFunc@cpp11@@AEAAXXZ@@std@@@std@@AEBAAEBV?$allocator@VComplicated@?1??EmplaceFunc@cpp11@@AEAAXXZ@@2@XZ
	DD	imagerel ?_Getal@?$vector@VComplicated@?1??EmplaceFunc@cpp11@@AEAAXXZ@V?$allocator@VComplicated@?1??EmplaceFunc@cpp11@@AEAAXXZ@@std@@@std@@AEBAAEBV?$allocator@VComplicated@?1??EmplaceFunc@cpp11@@AEAAXXZ@@2@XZ+81
	DD	imagerel $unwind$?_Getal@?$vector@VComplicated@?1??EmplaceFunc@cpp11@@AEAAXXZ@V?$allocator@VComplicated@?1??EmplaceFunc@cpp11@@AEAAXXZ@@std@@@std@@AEBAAEBV?$allocator@VComplicated@?1??EmplaceFunc@cpp11@@AEAAXXZ@@2@XZ
pdata	ENDS
;	COMDAT pdata
pdata	SEGMENT
$pdata$??0?$_Vector_val@U?$_Simple_types@VComplicated@?1??EmplaceFunc@cpp11@@AEAAXXZ@@std@@@std@@QEAA@XZ DD imagerel ??0?$_Vector_val@U?$_Simple_types@VComplicated@?1??EmplaceFunc@cpp11@@AEAAXXZ@@std@@@std@@QEAA@XZ
	DD	imagerel ??0?$_Vector_val@U?$_Simple_types@VComplicated@?1??EmplaceFunc@cpp11@@AEAAXXZ@@std@@@std@@QEAA@XZ+128
	DD	imagerel $unwind$??0?$_Vector_val@U?$_Simple_types@VComplicated@?1??EmplaceFunc@cpp11@@AEAAXXZ@@std@@@std@@QEAA@XZ
pdata	ENDS
;	COMDAT pdata
pdata	SEGMENT
$pdata$?_Get_first@?$_Compressed_pair@V?$allocator@VComplicated@?1??EmplaceFunc@cpp11@@AEAAXXZ@@std@@V?$_Vector_val@U?$_Simple_types@VComplicated@?1??EmplaceFunc@cpp11@@AEAAXXZ@@std@@@2@$00@std@@QEAAAEAV?$allocator@VComplicated@?1??EmplaceFunc@cpp11@@AEAAXXZ@@2@XZ DD imagerel ?_Get_first@?$_Compressed_pair@V?$allocator@VComplicated@?1??EmplaceFunc@cpp11@@AEAAXXZ@@std@@V?$_Vector_val@U?$_Simple_types@VComplicated@?1??EmplaceFunc@cpp11@@AEAAXXZ@@std@@@2@$00@std@@QEAAAEAV?$allocator@VComplicated@?1??EmplaceFunc@cpp11@@AEAAXXZ@@2@XZ
	DD	imagerel ?_Get_first@?$_Compressed_pair@V?$allocator@VComplicated@?1??EmplaceFunc@cpp11@@AEAAXXZ@@std@@V?$_Vector_val@U?$_Simple_types@VComplicated@?1??EmplaceFunc@cpp11@@AEAAXXZ@@std@@@2@$00@std@@QEAAAEAV?$allocator@VComplicated@?1??EmplaceFunc@cpp11@@AEAAXXZ@@2@XZ+72
	DD	imagerel $unwind$?_Get_first@?$_Compressed_pair@V?$allocator@VComplicated@?1??EmplaceFunc@cpp11@@AEAAXXZ@@std@@V?$_Vector_val@U?$_Simple_types@VComplicated@?1??EmplaceFunc@cpp11@@AEAAXXZ@@std@@@2@$00@std@@QEAAAEAV?$allocator@VComplicated@?1??EmplaceFunc@cpp11@@AEAAXXZ@@2@XZ
pdata	ENDS
;	COMDAT pdata
pdata	SEGMENT
$pdata$?_Get_first@?$_Compressed_pair@V?$allocator@VComplicated@?1??EmplaceFunc@cpp11@@AEAAXXZ@@std@@V?$_Vector_val@U?$_Simple_types@VComplicated@?1??EmplaceFunc@cpp11@@AEAAXXZ@@std@@@2@$00@std@@QEBAAEBV?$allocator@VComplicated@?1??EmplaceFunc@cpp11@@AEAAXXZ@@2@XZ DD imagerel ?_Get_first@?$_Compressed_pair@V?$allocator@VComplicated@?1??EmplaceFunc@cpp11@@AEAAXXZ@@std@@V?$_Vector_val@U?$_Simple_types@VComplicated@?1??EmplaceFunc@cpp11@@AEAAXXZ@@std@@@2@$00@std@@QEBAAEBV?$allocator@VComplicated@?1??EmplaceFunc@cpp11@@AEAAXXZ@@2@XZ
	DD	imagerel ?_Get_first@?$_Compressed_pair@V?$allocator@VComplicated@?1??EmplaceFunc@cpp11@@AEAAXXZ@@std@@V?$_Vector_val@U?$_Simple_types@VComplicated@?1??EmplaceFunc@cpp11@@AEAAXXZ@@std@@@2@$00@std@@QEBAAEBV?$allocator@VComplicated@?1??EmplaceFunc@cpp11@@AEAAXXZ@@2@XZ+72
	DD	imagerel $unwind$?_Get_first@?$_Compressed_pair@V?$allocator@VComplicated@?1??EmplaceFunc@cpp11@@AEAAXXZ@@std@@V?$_Vector_val@U?$_Simple_types@VComplicated@?1??EmplaceFunc@cpp11@@AEAAXXZ@@std@@@2@$00@std@@QEBAAEBV?$allocator@VComplicated@?1??EmplaceFunc@cpp11@@AEAAXXZ@@2@XZ
pdata	ENDS
;	COMDAT pdata
pdata	SEGMENT
$pdata$?__autoclassinit2@?$vector@VComplicated@?1??EmplaceFunc@cpp11@@AEAAXXZ@V?$allocator@VComplicated@?1??EmplaceFunc@cpp11@@AEAAXXZ@@std@@@std@@QEAAX_K@Z DD imagerel ?__autoclassinit2@?$vector@VComplicated@?1??EmplaceFunc@cpp11@@AEAAXXZ@V?$allocator@VComplicated@?1??EmplaceFunc@cpp11@@AEAAXXZ@@std@@@std@@QEAAX_K@Z
	DD	imagerel ?__autoclassinit2@?$vector@VComplicated@?1??EmplaceFunc@cpp11@@AEAAXXZ@V?$allocator@VComplicated@?1??EmplaceFunc@cpp11@@AEAAXXZ@@std@@@std@@QEAAX_K@Z+73
	DD	imagerel $unwind$?__autoclassinit2@?$vector@VComplicated@?1??EmplaceFunc@cpp11@@AEAAXXZ@V?$allocator@VComplicated@?1??EmplaceFunc@cpp11@@AEAAXXZ@@std@@@std@@QEAAX_K@Z
pdata	ENDS
;	COMDAT pdata
pdata	SEGMENT
$pdata$??$emplace_back@HNAEAY01$$CBD@?$vector@VComplicated@?1??EmplaceFunc@cpp11@@AEAAXXZ@V?$allocator@VComplicated@?1??EmplaceFunc@cpp11@@AEAAXXZ@@std@@@std@@QEAA@$$QEAH$$QEANAEAY01$$CBD@Z DD imagerel ??$emplace_back@HNAEAY01$$CBD@?$vector@VComplicated@?1??EmplaceFunc@cpp11@@AEAAXXZ@V?$allocator@VComplicated@?1??EmplaceFunc@cpp11@@AEAAXXZ@@std@@@std@@QEAA@$$QEAH$$QEANAEAY01$$CBD@Z
	DD	imagerel ??$emplace_back@HNAEAY01$$CBD@?$vector@VComplicated@?1??EmplaceFunc@cpp11@@AEAAXXZ@V?$allocator@VComplicated@?1??EmplaceFunc@cpp11@@AEAAXXZ@@std@@@std@@QEAA@$$QEAH$$QEANAEAY01$$CBD@Z+335
	DD	imagerel $unwind$??$emplace_back@HNAEAY01$$CBD@?$vector@VComplicated@?1??EmplaceFunc@cpp11@@AEAAXXZ@V?$allocator@VComplicated@?1??EmplaceFunc@cpp11@@AEAAXXZ@@std@@@std@@QEAA@$$QEAH$$QEANAEAY01$$CBD@Z
pdata	ENDS
;	COMDAT pdata
pdata	SEGMENT
$pdata$??$forward@N@std@@YA$$QEANAEAN@Z DD imagerel $LN3
	DD	imagerel $LN3+72
	DD	imagerel $unwind$??$forward@N@std@@YA$$QEANAEAN@Z
pdata	ENDS
;	COMDAT pdata
pdata	SEGMENT
$pdata$??$forward@AEAY01$$CBD@std@@YAAEAY01$$CBDAEAY01$$CBD@Z DD imagerel $LN3
	DD	imagerel $LN3+72
	DD	imagerel $unwind$??$forward@AEAY01$$CBD@std@@YAAEAY01$$CBDAEAY01$$CBD@Z
pdata	ENDS
;	COMDAT pdata
pdata	SEGMENT
$pdata$??$_Emplace_back_with_unused_capacity@HNAEAY01$$CBD@?$vector@VComplicated@?1??EmplaceFunc@cpp11@@AEAAXXZ@V?$allocator@VComplicated@?1??EmplaceFunc@cpp11@@AEAAXXZ@@std@@@std@@AEAA@$$QEAH$$QEANAEAY01$$CBD@Z DD imagerel ??$_Emplace_back_with_unused_capacity@HNAEAY01$$CBD@?$vector@VComplicated@?1??EmplaceFunc@cpp11@@AEAAXXZ@V?$allocator@VComplicated@?1??EmplaceFunc@cpp11@@AEAAXXZ@@std@@@std@@AEAA@$$QEAH$$QEANAEAY01$$CBD@Z
	DD	imagerel ??$_Emplace_back_with_unused_capacity@HNAEAY01$$CBD@?$vector@VComplicated@?1??EmplaceFunc@cpp11@@AEAAXXZ@V?$allocator@VComplicated@?1??EmplaceFunc@cpp11@@AEAAXXZ@@std@@@std@@AEAA@$$QEAH$$QEANAEAY01$$CBD@Z+301
	DD	imagerel $unwind$??$_Emplace_back_with_unused_capacity@HNAEAY01$$CBD@?$vector@VComplicated@?1??EmplaceFunc@cpp11@@AEAAXXZ@V?$allocator@VComplicated@?1??EmplaceFunc@cpp11@@AEAAXXZ@@std@@@std@@AEAA@$$QEAH$$QEANAEAY01$$CBD@Z
pdata	ENDS
;	COMDAT pdata
pdata	SEGMENT
$pdata$??$_Unfancy@VComplicated@?1??EmplaceFunc@cpp11@@AEAAXXZ@@std@@YAPEAVComplicated@?1??EmplaceFunc@cpp11@@AEAAXXZ@PEAV1?1??23@AEAAXXZ@@Z DD imagerel ??$_Unfancy@VComplicated@?1??EmplaceFunc@cpp11@@AEAAXXZ@@std@@YAPEAVComplicated@?1??EmplaceFunc@cpp11@@AEAAXXZ@PEAV1?1??23@AEAAXXZ@@Z
	DD	imagerel ??$_Unfancy@VComplicated@?1??EmplaceFunc@cpp11@@AEAAXXZ@@std@@YAPEAVComplicated@?1??EmplaceFunc@cpp11@@AEAAXXZ@PEAV1?1??23@AEAAXXZ@@Z+71
	DD	imagerel $unwind$??$_Unfancy@VComplicated@?1??EmplaceFunc@cpp11@@AEAAXXZ@@std@@YAPEAVComplicated@?1??EmplaceFunc@cpp11@@AEAAXXZ@PEAV1?1??23@AEAAXXZ@@Z
pdata	ENDS
;	COMDAT pdata
pdata	SEGMENT
$pdata$??$construct@VComplicated@?1??EmplaceFunc@cpp11@@AEAAXXZ@HNAEAY01$$CBD@?$_Default_allocator_traits@V?$allocator@VComplicated@?1??EmplaceFunc@cpp11@@AEAAXXZ@@std@@@std@@SAXAEAV?$allocator@VComplicated@?1??EmplaceFunc@cpp11@@AEAAXXZ@@1@QEAVComplicated@?1??EmplaceFunc@cpp11@@AEAAXXZ@$$QEAH$$QEANAEAY01$$CBD@Z DD imagerel ??$construct@VComplicated@?1??EmplaceFunc@cpp11@@AEAAXXZ@HNAEAY01$$CBD@?$_Default_allocator_traits@V?$allocator@VComplicated@?1??EmplaceFunc@cpp11@@AEAAXXZ@@std@@@std@@SAXAEAV?$allocator@VComplicated@?1??EmplaceFunc@cpp11@@AEAAXXZ@@1@QEAVComplicated@?1??EmplaceFunc@cpp11@@AEAAXXZ@$$QEAH$$QEANAEAY01$$CBD@Z
	DD	imagerel ??$construct@VComplicated@?1??EmplaceFunc@cpp11@@AEAAXXZ@HNAEAY01$$CBD@?$_Default_allocator_traits@V?$allocator@VComplicated@?1??EmplaceFunc@cpp11@@AEAAXXZ@@std@@@std@@SAXAEAV?$allocator@VComplicated@?1??EmplaceFunc@cpp11@@AEAAXXZ@@1@QEAVComplicated@?1??EmplaceFunc@cpp11@@AEAAXXZ@$$QEAH$$QEANAEAY01$$CBD@Z+242
	DD	imagerel $unwind$??$construct@VComplicated@?1??EmplaceFunc@cpp11@@AEAAXXZ@HNAEAY01$$CBD@?$_Default_allocator_traits@V?$allocator@VComplicated@?1??EmplaceFunc@cpp11@@AEAAXXZ@@std@@@std@@SAXAEAV?$allocator@VComplicated@?1??EmplaceFunc@cpp11@@AEAAXXZ@@1@QEAVComplicated@?1??EmplaceFunc@cpp11@@AEAAXXZ@$$QEAH$$QEANAEAY01$$CBD@Z
pdata	ENDS
;	COMDAT pdata
pdata	SEGMENT
$pdata$??$_Emplace_reallocate@HNAEAY01$$CBD@?$vector@VComplicated@?1??EmplaceFunc@cpp11@@AEAAXXZ@V?$allocator@VComplicated@?1??EmplaceFunc@cpp11@@AEAAXXZ@@std@@@std@@QEAAPEAVComplicated@?1??EmplaceFunc@cpp11@@AEAAXXZ@QEAV2?1??34@AEAAXXZ@$$QEAH$$QEANAEAY01$$CBD@Z DD imagerel ??$_Emplace_reallocate@HNAEAY01$$CBD@?$vector@VComplicated@?1??EmplaceFunc@cpp11@@AEAAXXZ@V?$allocator@VComplicated@?1??EmplaceFunc@cpp11@@AEAAXXZ@@std@@@std@@QEAAPEAVComplicated@?1??EmplaceFunc@cpp11@@AEAAXXZ@QEAV2?1??34@AEAAXXZ@$$QEAH$$QEANAEAY01$$CBD@Z
	DD	imagerel ??$_Emplace_reallocate@HNAEAY01$$CBD@?$vector@VComplicated@?1??EmplaceFunc@cpp11@@AEAAXXZ@V?$allocator@VComplicated@?1??EmplaceFunc@cpp11@@AEAAXXZ@@std@@@std@@QEAAPEAVComplicated@?1??EmplaceFunc@cpp11@@AEAAXXZ@QEAV2?1??34@AEAAXXZ@$$QEAH$$QEANAEAY01$$CBD@Z+715
	DD	imagerel $unwind$??$_Emplace_reallocate@HNAEAY01$$CBD@?$vector@VComplicated@?1??EmplaceFunc@cpp11@@AEAAXXZ@V?$allocator@VComplicated@?1??EmplaceFunc@cpp11@@AEAAXXZ@@std@@@std@@QEAAPEAVComplicated@?1??EmplaceFunc@cpp11@@AEAAXXZ@QEAV2?1??34@AEAAXXZ@$$QEAH$$QEANAEAY01$$CBD@Z
pdata	ENDS
;	COMDAT pdata
pdata	SEGMENT
$pdata$?catch$0@?0???$_Emplace_reallocate@HNAEAY01$$CBD@?$vector@VComplicated@?1??EmplaceFunc@cpp11@@AEAAXXZ@V?$allocator@VComplicated@?1??EmplaceFunc@cpp11@@AEAAXXZ@@std@@@std@@QEAAPEAVComplicated@?1??EmplaceFunc@cpp11@@AEAAXXZ@QEAV2?1??34@AEAAXXZ@$$QEAH$$QEANAEAY01$$CBD@Z@4HA DD imagerel ?catch$0@?0???$_Emplace_reallocate@HNAEAY01$$CBD@?$vector@VComplicated@?1??EmplaceFunc@cpp11@@AEAAXXZ@V?$allocator@VComplicated@?1??EmplaceFunc@cpp11@@AEAAXXZ@@std@@@std@@QEAAPEAVComplicated@?1??EmplaceFunc@cpp11@@AEAAXXZ@QEAV2?1??34@AEAAXXZ@$$QEAH$$QEANAEAY01$$CBD@Z@4HA
	DD	imagerel ?catch$0@?0???$_Emplace_reallocate@HNAEAY01$$CBD@?$vector@VComplicated@?1??EmplaceFunc@cpp11@@AEAAXXZ@V?$allocator@VComplicated@?1??EmplaceFunc@cpp11@@AEAAXXZ@@std@@@std@@QEAAPEAVComplicated@?1??EmplaceFunc@cpp11@@AEAAXXZ@QEAV2?1??34@AEAAXXZ@$$QEAH$$QEANAEAY01$$CBD@Z@4HA+94
	DD	imagerel $unwind$?catch$0@?0???$_Emplace_reallocate@HNAEAY01$$CBD@?$vector@VComplicated@?1??EmplaceFunc@cpp11@@AEAAXXZ@V?$allocator@VComplicated@?1??EmplaceFunc@cpp11@@AEAAXXZ@@std@@@std@@QEAAPEAVComplicated@?1??EmplaceFunc@cpp11@@AEAAXXZ@QEAV2?1??34@AEAAXXZ@$$QEAH$$QEANAEAY01$$CBD@Z@4HA
pdata	ENDS
;	COMDAT pdata
pdata	SEGMENT
$pdata$??1Person@?A0x8e55e522@@QEAA@XZ DD imagerel ??1Person@?A0x8e55e522@@QEAA@XZ
	DD	imagerel ??1Person@?A0x8e55e522@@QEAA@XZ+86
	DD	imagerel $unwind$??1Person@?A0x8e55e522@@QEAA@XZ
pdata	ENDS
;	COMDAT pdata
pdata	SEGMENT
$pdata$??0Person@?A0x8e55e522@@QEAA@AEBU01@@Z DD imagerel ??0Person@?A0x8e55e522@@QEAA@AEBU01@@Z
	DD	imagerel ??0Person@?A0x8e55e522@@QEAA@AEBU01@@Z+166
	DD	imagerel $unwind$??0Person@?A0x8e55e522@@QEAA@AEBU01@@Z
pdata	ENDS
;	COMDAT pdata
pdata	SEGMENT
$pdata$?dtor$0@?0???0Person@?A0x8e55e522@@QEAA@AEBU01@@Z@4HA DD imagerel ?dtor$0@?0???0Person@?A0x8e55e522@@QEAA@AEBU01@@Z@4HA
	DD	imagerel ?dtor$0@?0???0Person@?A0x8e55e522@@QEAA@AEBU01@@Z@4HA+39
	DD	imagerel $unwind$?dtor$0@?0???0Person@?A0x8e55e522@@QEAA@AEBU01@@Z@4HA
pdata	ENDS
;	COMDAT pdata
pdata	SEGMENT
$pdata$??_GPerson@?A0x8e55e522@@QEAAPEAXI@Z DD imagerel ??_GPerson@?A0x8e55e522@@QEAAPEAXI@Z
	DD	imagerel ??_GPerson@?A0x8e55e522@@QEAAPEAXI@Z+105
	DD	imagerel $unwind$??_GPerson@?A0x8e55e522@@QEAAPEAXI@Z
pdata	ENDS
;	COMDAT pdata
pdata	SEGMENT
$pdata$??0?$allocator@UPerson@?A0x8e55e522@@@std@@QEAA@XZ DD imagerel ??0?$allocator@UPerson@?A0x8e55e522@@@std@@QEAA@XZ
	DD	imagerel ??0?$allocator@UPerson@?A0x8e55e522@@@std@@QEAA@XZ+72
	DD	imagerel $unwind$??0?$allocator@UPerson@?A0x8e55e522@@@std@@QEAA@XZ
pdata	ENDS
;	COMDAT pdata
pdata	SEGMENT
$pdata$?deallocate@?$allocator@UPerson@?A0x8e55e522@@@std@@QEAAXQEAUPerson@?A0x8e55e522@@_K@Z DD imagerel ?deallocate@?$allocator@UPerson@?A0x8e55e522@@@std@@QEAAXQEAUPerson@?A0x8e55e522@@_K@Z
	DD	imagerel ?deallocate@?$allocator@UPerson@?A0x8e55e522@@@std@@QEAAXQEAUPerson@?A0x8e55e522@@_K@Z+97
	DD	imagerel $unwind$?deallocate@?$allocator@UPerson@?A0x8e55e522@@@std@@QEAAXQEAUPerson@?A0x8e55e522@@_K@Z
pdata	ENDS
;	COMDAT pdata
pdata	SEGMENT
$pdata$?allocate@?$allocator@UPerson@?A0x8e55e522@@@std@@QEAAPEAUPerson@?A0x8e55e522@@_K@Z DD imagerel ?allocate@?$allocator@UPerson@?A0x8e55e522@@@std@@QEAAPEAUPerson@?A0x8e55e522@@_K@Z
	DD	imagerel ?allocate@?$allocator@UPerson@?A0x8e55e522@@@std@@QEAAPEAUPerson@?A0x8e55e522@@_K@Z+89
	DD	imagerel $unwind$?allocate@?$allocator@UPerson@?A0x8e55e522@@@std@@QEAAPEAUPerson@?A0x8e55e522@@_K@Z
pdata	ENDS
;	COMDAT pdata
pdata	SEGMENT
$pdata$?max_size@?$_Default_allocator_traits@V?$allocator@UPerson@?A0x8e55e522@@@std@@@std@@SA_KAEBV?$allocator@UPerson@?A0x8e55e522@@@2@@Z DD imagerel ?max_size@?$_Default_allocator_traits@V?$allocator@UPerson@?A0x8e55e522@@@std@@@std@@SA_KAEBV?$allocator@UPerson@?A0x8e55e522@@@2@@Z
	DD	imagerel ?max_size@?$_Default_allocator_traits@V?$allocator@UPerson@?A0x8e55e522@@@std@@@std@@SA_KAEBV?$allocator@UPerson@?A0x8e55e522@@@2@@Z+75
	DD	imagerel $unwind$?max_size@?$_Default_allocator_traits@V?$allocator@UPerson@?A0x8e55e522@@@std@@@std@@SA_KAEBV?$allocator@UPerson@?A0x8e55e522@@@2@@Z
pdata	ENDS
;	COMDAT pdata
pdata	SEGMENT
$pdata$??0?$vector@UPerson@?A0x8e55e522@@V?$allocator@UPerson@?A0x8e55e522@@@std@@@std@@QEAA@V?$initializer_list@UPerson@?A0x8e55e522@@@1@AEBV?$allocator@UPerson@?A0x8e55e522@@@1@@Z DD imagerel ??0?$vector@UPerson@?A0x8e55e522@@V?$allocator@UPerson@?A0x8e55e522@@@std@@@std@@QEAA@V?$initializer_list@UPerson@?A0x8e55e522@@@1@AEBV?$allocator@UPerson@?A0x8e55e522@@@1@@Z
	DD	imagerel ??0?$vector@UPerson@?A0x8e55e522@@V?$allocator@UPerson@?A0x8e55e522@@@std@@@std@@QEAA@V?$initializer_list@UPerson@?A0x8e55e522@@@1@AEBV?$allocator@UPerson@?A0x8e55e522@@@1@@Z+367
	DD	imagerel $unwind$??0?$vector@UPerson@?A0x8e55e522@@V?$allocator@UPerson@?A0x8e55e522@@@std@@@std@@QEAA@V?$initializer_list@UPerson@?A0x8e55e522@@@1@AEBV?$allocator@UPerson@?A0x8e55e522@@@1@@Z
pdata	ENDS
;	COMDAT pdata
pdata	SEGMENT
$pdata$?dtor$0@?0???0?$vector@UPerson@?A0x8e55e522@@V?$allocator@UPerson@?A0x8e55e522@@@std@@@std@@QEAA@V?$initializer_list@UPerson@?A0x8e55e522@@@1@AEBV?$allocator@UPerson@?A0x8e55e522@@@1@@Z@4HA DD imagerel ?dtor$0@?0???0?$vector@UPerson@?A0x8e55e522@@V?$allocator@UPerson@?A0x8e55e522@@@std@@@std@@QEAA@V?$initializer_list@UPerson@?A0x8e55e522@@@1@AEBV?$allocator@UPerson@?A0x8e55e522@@@1@@Z@4HA
	DD	imagerel ?dtor$0@?0???0?$vector@UPerson@?A0x8e55e522@@V?$allocator@UPerson@?A0x8e55e522@@@std@@@std@@QEAA@V?$initializer_list@UPerson@?A0x8e55e522@@@1@AEBV?$allocator@UPerson@?A0x8e55e522@@@1@@Z@4HA+36
	DD	imagerel $unwind$?dtor$0@?0???0?$vector@UPerson@?A0x8e55e522@@V?$allocator@UPerson@?A0x8e55e522@@@std@@@std@@QEAA@V?$initializer_list@UPerson@?A0x8e55e522@@@1@AEBV?$allocator@UPerson@?A0x8e55e522@@@1@@Z@4HA
pdata	ENDS
;	COMDAT pdata
pdata	SEGMENT
$pdata$??1?$vector@UPerson@?A0x8e55e522@@V?$allocator@UPerson@?A0x8e55e522@@@std@@@std@@QEAA@XZ DD imagerel ??1?$vector@UPerson@?A0x8e55e522@@V?$allocator@UPerson@?A0x8e55e522@@@std@@@std@@QEAA@XZ
	DD	imagerel ??1?$vector@UPerson@?A0x8e55e522@@V?$allocator@UPerson@?A0x8e55e522@@@std@@@std@@QEAA@XZ+209
	DD	imagerel $unwind$??1?$vector@UPerson@?A0x8e55e522@@V?$allocator@UPerson@?A0x8e55e522@@@std@@@std@@QEAA@XZ
pdata	ENDS
;	COMDAT pdata
pdata	SEGMENT
$pdata$?max_size@?$vector@UPerson@?A0x8e55e522@@V?$allocator@UPerson@?A0x8e55e522@@@std@@@std@@QEBA_KXZ DD imagerel ?max_size@?$vector@UPerson@?A0x8e55e522@@V?$allocator@UPerson@?A0x8e55e522@@@std@@@std@@QEBA_KXZ
	DD	imagerel ?max_size@?$vector@UPerson@?A0x8e55e522@@V?$allocator@UPerson@?A0x8e55e522@@@std@@@std@@QEBA_KXZ+130
	DD	imagerel $unwind$?max_size@?$vector@UPerson@?A0x8e55e522@@V?$allocator@UPerson@?A0x8e55e522@@@std@@@std@@QEBA_KXZ
pdata	ENDS
;	COMDAT pdata
pdata	SEGMENT
$pdata$?_Destroy@?$vector@UPerson@?A0x8e55e522@@V?$allocator@UPerson@?A0x8e55e522@@@std@@@std@@AEAAXPEAUPerson@?A0x8e55e522@@0@Z DD imagerel ?_Destroy@?$vector@UPerson@?A0x8e55e522@@V?$allocator@UPerson@?A0x8e55e522@@@std@@@std@@AEAAXPEAUPerson@?A0x8e55e522@@0@Z
	DD	imagerel ?_Destroy@?$vector@UPerson@?A0x8e55e522@@V?$allocator@UPerson@?A0x8e55e522@@@std@@@std@@AEAAXPEAUPerson@?A0x8e55e522@@0@Z+108
	DD	imagerel $unwind$?_Destroy@?$vector@UPerson@?A0x8e55e522@@V?$allocator@UPerson@?A0x8e55e522@@@std@@@std@@AEAAXPEAUPerson@?A0x8e55e522@@0@Z
pdata	ENDS
;	COMDAT pdata
pdata	SEGMENT
$pdata$?_Buy_raw@?$vector@UPerson@?A0x8e55e522@@V?$allocator@UPerson@?A0x8e55e522@@@std@@@std@@AEAAX_K@Z DD imagerel ?_Buy_raw@?$vector@UPerson@?A0x8e55e522@@V?$allocator@UPerson@?A0x8e55e522@@@std@@@std@@AEAAX_K@Z
	DD	imagerel ?_Buy_raw@?$vector@UPerson@?A0x8e55e522@@V?$allocator@UPerson@?A0x8e55e522@@@std@@@std@@AEAAX_K@Z+217
	DD	imagerel $unwind$?_Buy_raw@?$vector@UPerson@?A0x8e55e522@@V?$allocator@UPerson@?A0x8e55e522@@@std@@@std@@AEAAX_K@Z
pdata	ENDS
;	COMDAT pdata
pdata	SEGMENT
$pdata$?_Buy_nonzero@?$vector@UPerson@?A0x8e55e522@@V?$allocator@UPerson@?A0x8e55e522@@@std@@@std@@AEAAX_K@Z DD imagerel ?_Buy_nonzero@?$vector@UPerson@?A0x8e55e522@@V?$allocator@UPerson@?A0x8e55e522@@@std@@@std@@AEAAX_K@Z
	DD	imagerel ?_Buy_nonzero@?$vector@UPerson@?A0x8e55e522@@V?$allocator@UPerson@?A0x8e55e522@@@std@@@std@@AEAAX_K@Z+114
	DD	imagerel $unwind$?_Buy_nonzero@?$vector@UPerson@?A0x8e55e522@@V?$allocator@UPerson@?A0x8e55e522@@@std@@@std@@AEAAX_K@Z
pdata	ENDS
;	COMDAT pdata
pdata	SEGMENT
$pdata$?_Tidy@?$vector@UPerson@?A0x8e55e522@@V?$allocator@UPerson@?A0x8e55e522@@@std@@@std@@AEAAXXZ DD imagerel ?_Tidy@?$vector@UPerson@?A0x8e55e522@@V?$allocator@UPerson@?A0x8e55e522@@@std@@@std@@AEAAXXZ
	DD	imagerel ?_Tidy@?$vector@UPerson@?A0x8e55e522@@V?$allocator@UPerson@?A0x8e55e522@@@std@@@std@@AEAAXXZ+291
	DD	imagerel $unwind$?_Tidy@?$vector@UPerson@?A0x8e55e522@@V?$allocator@UPerson@?A0x8e55e522@@@std@@@std@@AEAAXXZ
pdata	ENDS
;	COMDAT pdata
pdata	SEGMENT
$pdata$?_Xlength@?$vector@UPerson@?A0x8e55e522@@V?$allocator@UPerson@?A0x8e55e522@@@std@@@std@@CAXXZ DD imagerel ?_Xlength@?$vector@UPerson@?A0x8e55e522@@V?$allocator@UPerson@?A0x8e55e522@@@std@@@std@@CAXXZ
	DD	imagerel ?_Xlength@?$vector@UPerson@?A0x8e55e522@@V?$allocator@UPerson@?A0x8e55e522@@@std@@@std@@CAXXZ+64
	DD	imagerel $unwind$?_Xlength@?$vector@UPerson@?A0x8e55e522@@V?$allocator@UPerson@?A0x8e55e522@@@std@@@std@@CAXXZ
pdata	ENDS
;	COMDAT pdata
pdata	SEGMENT
$pdata$?_Getal@?$vector@UPerson@?A0x8e55e522@@V?$allocator@UPerson@?A0x8e55e522@@@std@@@std@@AEAAAEAV?$allocator@UPerson@?A0x8e55e522@@@2@XZ DD imagerel ?_Getal@?$vector@UPerson@?A0x8e55e522@@V?$allocator@UPerson@?A0x8e55e522@@@std@@@std@@AEAAAEAV?$allocator@UPerson@?A0x8e55e522@@@2@XZ
	DD	imagerel ?_Getal@?$vector@UPerson@?A0x8e55e522@@V?$allocator@UPerson@?A0x8e55e522@@@std@@@std@@AEAAAEAV?$allocator@UPerson@?A0x8e55e522@@@2@XZ+81
	DD	imagerel $unwind$?_Getal@?$vector@UPerson@?A0x8e55e522@@V?$allocator@UPerson@?A0x8e55e522@@@std@@@std@@AEAAAEAV?$allocator@UPerson@?A0x8e55e522@@@2@XZ
pdata	ENDS
;	COMDAT pdata
pdata	SEGMENT
$pdata$?_Getal@?$vector@UPerson@?A0x8e55e522@@V?$allocator@UPerson@?A0x8e55e522@@@std@@@std@@AEBAAEBV?$allocator@UPerson@?A0x8e55e522@@@2@XZ DD imagerel ?_Getal@?$vector@UPerson@?A0x8e55e522@@V?$allocator@UPerson@?A0x8e55e522@@@std@@@std@@AEBAAEBV?$allocator@UPerson@?A0x8e55e522@@@2@XZ
	DD	imagerel ?_Getal@?$vector@UPerson@?A0x8e55e522@@V?$allocator@UPerson@?A0x8e55e522@@@std@@@std@@AEBAAEBV?$allocator@UPerson@?A0x8e55e522@@@2@XZ+81
	DD	imagerel $unwind$?_Getal@?$vector@UPerson@?A0x8e55e522@@V?$allocator@UPerson@?A0x8e55e522@@@std@@@std@@AEBAAEBV?$allocator@UPerson@?A0x8e55e522@@@2@XZ
pdata	ENDS
;	COMDAT pdata
pdata	SEGMENT
$pdata$??0?$_Vector_val@U?$_Simple_types@UPerson@?A0x8e55e522@@@std@@@std@@QEAA@XZ DD imagerel ??0?$_Vector_val@U?$_Simple_types@UPerson@?A0x8e55e522@@@std@@@std@@QEAA@XZ
	DD	imagerel ??0?$_Vector_val@U?$_Simple_types@UPerson@?A0x8e55e522@@@std@@@std@@QEAA@XZ+128
	DD	imagerel $unwind$??0?$_Vector_val@U?$_Simple_types@UPerson@?A0x8e55e522@@@std@@@std@@QEAA@XZ
pdata	ENDS
;	COMDAT pdata
pdata	SEGMENT
$pdata$?_Get_first@?$_Compressed_pair@V?$allocator@UPerson@?A0x8e55e522@@@std@@V?$_Vector_val@U?$_Simple_types@UPerson@?A0x8e55e522@@@std@@@2@$00@std@@QEAAAEAV?$allocator@UPerson@?A0x8e55e522@@@2@XZ DD imagerel ?_Get_first@?$_Compressed_pair@V?$allocator@UPerson@?A0x8e55e522@@@std@@V?$_Vector_val@U?$_Simple_types@UPerson@?A0x8e55e522@@@std@@@2@$00@std@@QEAAAEAV?$allocator@UPerson@?A0x8e55e522@@@2@XZ
	DD	imagerel ?_Get_first@?$_Compressed_pair@V?$allocator@UPerson@?A0x8e55e522@@@std@@V?$_Vector_val@U?$_Simple_types@UPerson@?A0x8e55e522@@@std@@@2@$00@std@@QEAAAEAV?$allocator@UPerson@?A0x8e55e522@@@2@XZ+72
	DD	imagerel $unwind$?_Get_first@?$_Compressed_pair@V?$allocator@UPerson@?A0x8e55e522@@@std@@V?$_Vector_val@U?$_Simple_types@UPerson@?A0x8e55e522@@@std@@@2@$00@std@@QEAAAEAV?$allocator@UPerson@?A0x8e55e522@@@2@XZ
pdata	ENDS
;	COMDAT pdata
pdata	SEGMENT
$pdata$?_Get_first@?$_Compressed_pair@V?$allocator@UPerson@?A0x8e55e522@@@std@@V?$_Vector_val@U?$_Simple_types@UPerson@?A0x8e55e522@@@std@@@2@$00@std@@QEBAAEBV?$allocator@UPerson@?A0x8e55e522@@@2@XZ DD imagerel ?_Get_first@?$_Compressed_pair@V?$allocator@UPerson@?A0x8e55e522@@@std@@V?$_Vector_val@U?$_Simple_types@UPerson@?A0x8e55e522@@@std@@@2@$00@std@@QEBAAEBV?$allocator@UPerson@?A0x8e55e522@@@2@XZ
