; Listing generated by Microsoft (R) Optimizing Compiler Version 19.23.28105.4 

include listing.inc

INCLUDELIB MSVCRTD
INCLUDELIB OLDNAMES

msvcjmc	SEGMENT
__7F8AB566_vcruntime_new@h DB 01H
__8A0D8D63_cstddef DB 01H
__09340588_corecrt_math@h DB 01H
__24E9E95F_stdlib@h DB 01H
__2FC657CE_cstdlib DB 01H
__C8593937_type_traits DB 01H
__B0C4CEA9_malloc@h DB 01H
__96AB3BB0_vcruntime_exception@h DB 01H
__A47A247F_exception DB 01H
__367CC694_corecrt_memcpy_s@h DB 01H
__35D7DDB3_corecrt_memory@h DB 01H
__DC9673E3_corecrt_wstring@h DB 01H
__A29A7DFB_string@h DB 01H
__F3238959_xutility DB 01H
__D64083BB_tuple DB 01H
__F66CEB67_corecrt_stdio_config@h DB 01H
__101834BA_corecrt_wstdio@h DB 01H
__AD6A91B7_stdio@h DB 01H
__5467428D_corecrt_wconio@h DB 01H
__4442441F_corecrt_wio@h DB 01H
__45F4AF76_corecrt_wtime@h DB 01H
__186FF47F_stat@h DB 01H
__534C724A_wchar@h DB 01H
__289D9ECD_limits DB 01H
__725EB186_xmemory DB 01H
__794A66F8_xtree DB 01H
__2DF72A1A_xpolymorphic_allocator@h DB 01H
__70639AFA_cmath DB 01H
__068D371A_xstring DB 01H
__2D341E22_stdexcept DB 01H
__502C2D49_xcall_once@h DB 01H
__EF713F69_system_error DB 01H
__B69C91F9_vcruntime_typeinfo@h DB 01H
__83FC7A40_typeinfo DB 01H
__94339243_memory DB 01H
__B876C54C_xfacet DB 01H
__7242C389_ctype@h DB 01H
__9C759988_xlocinfo DB 01H
__D9B3432B_xlocale DB 01H
__A590EE9B_xiosbase DB 01H
__4734253C_xlocnum DB 01H
__1421D064_ios DB 01H
__113EAA92_xbit_ops@h DB 01H
__1FCC5A9C_xhash DB 01H
__C6677F44_functional DB 01H
__18EA6D4C_Event@cpp DB 01H
__D5F27C02_Event@h DB 01H
__A973ACD5_istream DB 01H
__CAA399EF_ostream DB 01H
__2F94A69E_streambuf DB 01H
__14A2048C_map DB 01H
__E4744B4B_iosfwd DB 01H
__18CBD245_utility DB 01H
__EFD44557_xstddef DB 01H
__AE76A8A9_xatomic@h DB 01H
msvcjmc	ENDS
PUBLIC	?__empty_global_delete@@YAXPEAX@Z		; __empty_global_delete
PUBLIC	?__empty_global_delete@@YAXPEAX_K@Z		; __empty_global_delete
PUBLIC	?__empty_global_delete@@YAXPEAXW4align_val_t@std@@@Z ; __empty_global_delete
PUBLIC	?__empty_global_delete@@YAXPEAX_KW4align_val_t@std@@@Z ; __empty_global_delete
PUBLIC	??2@YAPEAX_KPEAX@Z				; operator new
PUBLIC	??0exception@std@@QEAA@QEBDH@Z			; std::exception::exception
PUBLIC	??0exception@std@@QEAA@AEBV01@@Z		; std::exception::exception
PUBLIC	??1exception@std@@UEAA@XZ			; std::exception::~exception
PUBLIC	?what@exception@std@@UEBAPEBDXZ			; std::exception::what
PUBLIC	??_Gexception@std@@UEAAPEAXI@Z			; std::exception::`scalar deleting destructor'
PUBLIC	??0bad_alloc@std@@AEAA@QEBD@Z			; std::bad_alloc::bad_alloc
PUBLIC	??1bad_alloc@std@@UEAA@XZ			; std::bad_alloc::~bad_alloc
PUBLIC	??0bad_alloc@std@@QEAA@AEBV01@@Z		; std::bad_alloc::bad_alloc
PUBLIC	??_Gbad_alloc@std@@UEAAPEAXI@Z			; std::bad_alloc::`scalar deleting destructor'
PUBLIC	??0bad_array_new_length@std@@QEAA@XZ		; std::bad_array_new_length::bad_array_new_length
PUBLIC	??1bad_array_new_length@std@@UEAA@XZ		; std::bad_array_new_length::~bad_array_new_length
PUBLIC	??0bad_array_new_length@std@@QEAA@AEBV01@@Z	; std::bad_array_new_length::bad_array_new_length
PUBLIC	??_Gbad_array_new_length@std@@UEAAPEAXI@Z	; std::bad_array_new_length::`scalar deleting destructor'
PUBLIC	?_Throw_bad_array_new_length@std@@YAXXZ		; std::_Throw_bad_array_new_length
PUBLIC	??0?$tuple@$$V@std@@QEAA@AEBV01@@Z		; std::tuple<>::tuple<>
PUBLIC	?max@?$numeric_limits@_J@std@@SA_JXZ		; std::numeric_limits<__int64>::max
PUBLIC	?_Allocate@_Default_allocate_traits@std@@SAPEAX_K@Z ; std::_Default_allocate_traits::_Allocate
PUBLIC	?_Adjust_manually_vector_aligned@std@@YAXAEAPEAXAEA_K@Z ; std::_Adjust_manually_vector_aligned
PUBLIC	?_Adopt@_Iterator_base0@std@@QEAAXPEBX@Z	; std::_Iterator_base0::_Adopt
PUBLIC	??0_Container_proxy@std@@QEAA@PEAU_Container_base12@1@@Z ; std::_Container_proxy::_Container_proxy
PUBLIC	??0_Container_base12@std@@QEAA@XZ		; std::_Container_base12::_Container_base12
PUBLIC	?_Orphan_all@_Container_base12@std@@QEAAXXZ	; std::_Container_base12::_Orphan_all
PUBLIC	??$_Construct_in_place@U_Container_proxy@std@@PEAU_Container_base12@2@@std@@YAXAEAU_Container_proxy@0@$$QEAPEAU_Container_base12@0@@Z ; std::_Construct_in_place<std::_Container_proxy,std::_Container_base12 *>
PUBLIC	??0_Iterator_base12@std@@QEAA@XZ		; std::_Iterator_base12::_Iterator_base12
PUBLIC	??0_Iterator_base12@std@@QEAA@AEBU01@@Z		; std::_Iterator_base12::_Iterator_base12
PUBLIC	??4_Iterator_base12@std@@QEAAAEAU01@AEBU01@@Z	; std::_Iterator_base12::operator=
PUBLIC	??1_Iterator_base12@std@@QEAA@XZ		; std::_Iterator_base12::~_Iterator_base12
PUBLIC	?_Adopt@_Iterator_base12@std@@QEAAXPEBU_Container_base12@2@@Z ; std::_Iterator_base12::_Adopt
PUBLIC	?_Orphan_me@_Iterator_base12@std@@QEAAXXZ	; std::_Iterator_base12::_Orphan_me
PUBLIC	?_Release@_Basic_container_proxy_ptr12@std@@QEAAXXZ ; std::_Basic_container_proxy_ptr12::_Release
PUBLIC	??$addressof@U_Container_base12@std@@@std@@YAPEAU_Container_base12@0@AEAU10@@Z ; std::addressof<std::_Container_base12>
PUBLIC	?_Throw_tree_length_error@std@@YAXXZ		; std::_Throw_tree_length_error
PUBLIC	?length@?$_Narrow_char_traits@DH@std@@SA_KQEBD@Z ; std::_Narrow_char_traits<char,int>::length
PUBLIC	?eq_int_type@?$_Narrow_char_traits@DH@std@@SA_NAEBH0@Z ; std::_Narrow_char_traits<char,int>::eq_int_type
PUBLIC	?eof@?$_Narrow_char_traits@DH@std@@SAHXZ	; std::_Narrow_char_traits<char,int>::eof
PUBLIC	??$_Min_value@_K@std@@YAAEB_KAEB_K0@Z		; std::_Min_value<unsigned __int64>
PUBLIC	?event_foo@@YAXXZ				; event_foo
PUBLIC	??$?6U?$char_traits@D@std@@@std@@YAAEAV?$basic_ostream@DU?$char_traits@D@std@@@0@AEAV10@PEBD@Z ; std::operator<<<std::char_traits<char> >
PUBLIC	??$endl@DU?$char_traits@D@std@@@std@@YAAEAV?$basic_ostream@DU?$char_traits@D@std@@@0@AEAV10@@Z ; std::endl<char,std::char_traits<char> >
PUBLIC	??0?$Events@V?$function@$$A6AXHH@Z@std@@@@QEAA@XZ ; Events<std::function<void __cdecl(int,int)> >::Events<std::function<void __cdecl(int,int)> >
PUBLIC	??1?$Events@V?$function@$$A6AXHH@Z@std@@@@QEAA@XZ ; Events<std::function<void __cdecl(int,int)> >::~Events<std::function<void __cdecl(int,int)> >
PUBLIC	?Connector@?$Events@V?$function@$$A6AXHH@Z@std@@@@QEAAH$$QEAV?$function@$$A6AXHH@Z@std@@@Z ; Events<std::function<void __cdecl(int,int)> >::Connector
PUBLIC	?Connector@?$Events@V?$function@$$A6AXHH@Z@std@@@@QEAAHAEBV?$function@$$A6AXHH@Z@std@@@Z ; Events<std::function<void __cdecl(int,int)> >::Connector
PUBLIC	??0?$allocator@U?$_Tree_node@U?$pair@$$CBHV?$function@$$A6AXHH@Z@std@@@std@@PEAX@std@@@std@@QEAA@XZ ; std::allocator<std::_Tree_node<std::pair<int const ,std::function<void __cdecl(int,int)> >,void *> >::allocator<std::_Tree_node<std::pair<int const ,std::function<void __cdecl(int,int)> >,void *> >
PUBLIC	?deallocate@?$allocator@U?$_Tree_node@U?$pair@$$CBHV?$function@$$A6AXHH@Z@std@@@std@@PEAX@std@@@std@@QEAAXQEAU?$_Tree_node@U?$pair@$$CBHV?$function@$$A6AXHH@Z@std@@@std@@PEAX@2@_K@Z ; std::allocator<std::_Tree_node<std::pair<int const ,std::function<void __cdecl(int,int)> >,void *> >::deallocate
PUBLIC	?allocate@?$allocator@U?$_Tree_node@U?$pair@$$CBHV?$function@$$A6AXHH@Z@std@@@std@@PEAX@std@@@std@@QEAAPEAU?$_Tree_node@U?$pair@$$CBHV?$function@$$A6AXHH@Z@std@@@std@@PEAX@2@_K@Z ; std::allocator<std::_Tree_node<std::pair<int const ,std::function<void __cdecl(int,int)> >,void *> >::allocate
PUBLIC	?deallocate@?$_Default_allocator_traits@V?$allocator@U?$_Tree_node@U?$pair@$$CBHV?$function@$$A6AXHH@Z@std@@@std@@PEAX@std@@@std@@@std@@SAXAEAV?$allocator@U?$_Tree_node@U?$pair@$$CBHV?$function@$$A6AXHH@Z@std@@@std@@PEAX@std@@@2@QEAU?$_Tree_node@U?$pair@$$CBHV?$function@$$A6AXHH@Z@std@@@std@@PEAX@2@_K@Z ; std::_Default_allocator_traits<std::allocator<std::_Tree_node<std::pair<int const ,std::function<void __cdecl(int,int)> >,void *> > >::deallocate
PUBLIC	?max_size@?$_Default_allocator_traits@V?$allocator@U?$_Tree_node@U?$pair@$$CBHV?$function@$$A6AXHH@Z@std@@@std@@PEAX@std@@@std@@@std@@SA_KAEBV?$allocator@U?$_Tree_node@U?$pair@$$CBHV?$function@$$A6AXHH@Z@std@@@std@@PEAX@std@@@2@@Z ; std::_Default_allocator_traits<std::allocator<std::_Tree_node<std::pair<int const ,std::function<void __cdecl(int,int)> >,void *> > >::max_size
PUBLIC	??0?$_Tree@V?$_Tmap_traits@HV?$function@$$A6AXHH@Z@std@@U?$less@H@2@V?$allocator@U?$pair@$$CBHV?$function@$$A6AXHH@Z@std@@@std@@@2@$0A@@std@@@std@@QEAA@AEBU?$less@H@1@@Z ; std::_Tree<std::_Tmap_traits<int,std::function<void __cdecl(int,int)>,std::less<int>,std::allocator<std::pair<int const ,std::function<void __cdecl(int,int)> > >,0> >::_Tree<std::_Tmap_traits<int,std::function<void __cdecl(int,int)>,std::less<int>,std::allocator<std::pair<int const ,std::function<void __cdecl(int,int)> > >,0> >
PUBLIC	??1?$_Tree@V?$_Tmap_traits@HV?$function@$$A6AXHH@Z@std@@U?$less@H@2@V?$allocator@U?$pair@$$CBHV?$function@$$A6AXHH@Z@std@@@std@@@2@$0A@@std@@@std@@QEAA@XZ ; std::_Tree<std::_Tmap_traits<int,std::function<void __cdecl(int,int)>,std::less<int>,std::allocator<std::pair<int const ,std::function<void __cdecl(int,int)> > >,0> >::~_Tree<std::_Tmap_traits<int,std::function<void __cdecl(int,int)>,std::less<int>,std::allocator<std::pair<int const ,std::function<void __cdecl(int,int)> > >,0> >
PUBLIC	?_Unchecked_begin@?$_Tree@V?$_Tmap_traits@HV?$function@$$A6AXHH@Z@std@@U?$less@H@2@V?$allocator@U?$pair@$$CBHV?$function@$$A6AXHH@Z@std@@@std@@@2@$0A@@std@@@std@@QEAA?AV?$_Tree_unchecked_iterator@V?$_Tree_val@U?$_Tree_simple_types@U?$pair@$$CBHV?$function@$$A6AXHH@Z@std@@@std@@@std@@@std@@@2@XZ ; std::_Tree<std::_Tmap_traits<int,std::function<void __cdecl(int,int)>,std::less<int>,std::allocator<std::pair<int const ,std::function<void __cdecl(int,int)> > >,0> >::_Unchecked_begin
PUBLIC	?_Unchecked_end@?$_Tree@V?$_Tmap_traits@HV?$function@$$A6AXHH@Z@std@@U?$less@H@2@V?$allocator@U?$pair@$$CBHV?$function@$$A6AXHH@Z@std@@@std@@@2@$0A@@std@@@std@@QEBA?AU_Default_sentinel@2@XZ ; std::_Tree<std::_Tmap_traits<int,std::function<void __cdecl(int,int)>,std::less<int>,std::allocator<std::pair<int const ,std::function<void __cdecl(int,int)> > >,0> >::_Unchecked_end
PUBLIC	?max_size@?$_Tree@V?$_Tmap_traits@HV?$function@$$A6AXHH@Z@std@@U?$less@H@2@V?$allocator@U?$pair@$$CBHV?$function@$$A6AXHH@Z@std@@@std@@@2@$0A@@std@@@std@@QEBA_KXZ ; std::_Tree<std::_Tmap_traits<int,std::function<void __cdecl(int,int)>,std::less<int>,std::allocator<std::pair<int const ,std::function<void __cdecl(int,int)> > >,0> >::max_size
PUBLIC	?_Check_grow_by_1@?$_Tree@V?$_Tmap_traits@HV?$function@$$A6AXHH@Z@std@@U?$less@H@2@V?$allocator@U?$pair@$$CBHV?$function@$$A6AXHH@Z@std@@@std@@@2@$0A@@std@@@std@@IEAAXXZ ; std::_Tree<std::_Tmap_traits<int,std::function<void __cdecl(int,int)>,std::less<int>,std::allocator<std::pair<int const ,std::function<void __cdecl(int,int)> > >,0> >::_Check_grow_by_1
PUBLIC	?_Alloc_sentinel_and_proxy@?$_Tree@V?$_Tmap_traits@HV?$function@$$A6AXHH@Z@std@@U?$less@H@2@V?$allocator@U?$pair@$$CBHV?$function@$$A6AXHH@Z@std@@@std@@@2@$0A@@std@@@std@@IEAAXXZ ; std::_Tree<std::_Tmap_traits<int,std::function<void __cdecl(int,int)>,std::less<int>,std::allocator<std::pair<int const ,std::function<void __cdecl(int,int)> > >,0> >::_Alloc_sentinel_and_proxy
PUBLIC	?_Getcomp@?$_Tree@V?$_Tmap_traits@HV?$function@$$A6AXHH@Z@std@@U?$less@H@2@V?$allocator@U?$pair@$$CBHV?$function@$$A6AXHH@Z@std@@@std@@@2@$0A@@std@@@std@@IEBAAEBU?$less@H@2@XZ ; std::_Tree<std::_Tmap_traits<int,std::function<void __cdecl(int,int)>,std::less<int>,std::allocator<std::pair<int const ,std::function<void __cdecl(int,int)> > >,0> >::_Getcomp
PUBLIC	?_Getal@?$_Tree@V?$_Tmap_traits@HV?$function@$$A6AXHH@Z@std@@U?$less@H@2@V?$allocator@U?$pair@$$CBHV?$function@$$A6AXHH@Z@std@@@std@@@2@$0A@@std@@@std@@IEAAAEAV?$allocator@U?$_Tree_node@U?$pair@$$CBHV?$function@$$A6AXHH@Z@std@@@std@@PEAX@std@@@2@XZ ; std::_Tree<std::_Tmap_traits<int,std::function<void __cdecl(int,int)>,std::less<int>,std::allocator<std::pair<int const ,std::function<void __cdecl(int,int)> > >,0> >::_Getal
PUBLIC	?_Getal@?$_Tree@V?$_Tmap_traits@HV?$function@$$A6AXHH@Z@std@@U?$less@H@2@V?$allocator@U?$pair@$$CBHV?$function@$$A6AXHH@Z@std@@@std@@@2@$0A@@std@@@std@@IEBAAEBV?$allocator@U?$_Tree_node@U?$pair@$$CBHV?$function@$$A6AXHH@Z@std@@@std@@PEAX@std@@@2@XZ ; std::_Tree<std::_Tmap_traits<int,std::function<void __cdecl(int,int)>,std::less<int>,std::allocator<std::pair<int const ,std::function<void __cdecl(int,int)> > >,0> >::_Getal
PUBLIC	?_Get_scary@?$_Tree@V?$_Tmap_traits@HV?$function@$$A6AXHH@Z@std@@U?$less@H@2@V?$allocator@U?$pair@$$CBHV?$function@$$A6AXHH@Z@std@@@std@@@2@$0A@@std@@@std@@IEAAPEAV?$_Tree_val@U?$_Tree_simple_types@U?$pair@$$CBHV?$function@$$A6AXHH@Z@std@@@std@@@std@@@2@XZ ; std::_Tree<std::_Tmap_traits<int,std::function<void __cdecl(int,int)>,std::less<int>,std::allocator<std::pair<int const ,std::function<void __cdecl(int,int)> > >,0> >::_Get_scary
PUBLIC	?_Get_scary@?$_Tree@V?$_Tmap_traits@HV?$function@$$A6AXHH@Z@std@@U?$less@H@2@V?$allocator@U?$pair@$$CBHV?$function@$$A6AXHH@Z@std@@@std@@@2@$0A@@std@@@std@@IEBAPEBV?$_Tree_val@U?$_Tree_simple_types@U?$pair@$$CBHV?$function@$$A6AXHH@Z@std@@@std@@@std@@@2@XZ ; std::_Tree<std::_Tmap_traits<int,std::function<void __cdecl(int,int)>,std::less<int>,std::allocator<std::pair<int const ,std::function<void __cdecl(int,int)> > >,0> >::_Get_scary
PUBLIC	??R?$less@H@std@@QEBA_NAEBH0@Z			; std::less<int>::operator()
PUBLIC	??0?$_Tree_val@U?$_Tree_simple_types@U?$pair@$$CBHV?$function@$$A6AXHH@Z@std@@@std@@@std@@@std@@QEAA@XZ ; std::_Tree_val<std::_Tree_simple_types<std::pair<int const ,std::function<void __cdecl(int,int)> > > >::_Tree_val<std::_Tree_simple_types<std::pair<int const ,std::function<void __cdecl(int,int)> > > >
PUBLIC	?_Min@?$_Tree_val@U?$_Tree_simple_types@U?$pair@$$CBHV?$function@$$A6AXHH@Z@std@@@std@@@std@@@std@@SAPEAU?$_Tree_node@U?$pair@$$CBHV?$function@$$A6AXHH@Z@std@@@std@@PEAX@2@PEAU32@@Z ; std::_Tree_val<std::_Tree_simple_types<std::pair<int const ,std::function<void __cdecl(int,int)> > > >::_Min
PUBLIC	?_Lrotate@?$_Tree_val@U?$_Tree_simple_types@U?$pair@$$CBHV?$function@$$A6AXHH@Z@std@@@std@@@std@@@std@@QEAAXPEAU?$_Tree_node@U?$pair@$$CBHV?$function@$$A6AXHH@Z@std@@@std@@PEAX@2@@Z ; std::_Tree_val<std::_Tree_simple_types<std::pair<int const ,std::function<void __cdecl(int,int)> > > >::_Lrotate
PUBLIC	?_Rrotate@?$_Tree_val@U?$_Tree_simple_types@U?$pair@$$CBHV?$function@$$A6AXHH@Z@std@@@std@@@std@@@std@@QEAAXPEAU?$_Tree_node@U?$pair@$$CBHV?$function@$$A6AXHH@Z@std@@@std@@PEAX@2@@Z ; std::_Tree_val<std::_Tree_simple_types<std::pair<int const ,std::function<void __cdecl(int,int)> > > >::_Rrotate
PUBLIC	?_Insert_node@?$_Tree_val@U?$_Tree_simple_types@U?$pair@$$CBHV?$function@$$A6AXHH@Z@std@@@std@@@std@@@std@@QEAAPEAU?$_Tree_node@U?$pair@$$CBHV?$function@$$A6AXHH@Z@std@@@std@@PEAX@2@U?$_Tree_id@PEAU?$_Tree_node@U?$pair@$$CBHV?$function@$$A6AXHH@Z@std@@@std@@PEAX@std@@@2@QEAU32@@Z ; std::_Tree_val<std::_Tree_simple_types<std::pair<int const ,std::function<void __cdecl(int,int)> > > >::_Insert_node
PUBLIC	?_Get_first@?$_Compressed_pair@V?$allocator@U?$_Tree_node@U?$pair@$$CBHV?$function@$$A6AXHH@Z@std@@@std@@PEAX@std@@@std@@V?$_Tree_val@U?$_Tree_simple_types@U?$pair@$$CBHV?$function@$$A6AXHH@Z@std@@@std@@@std@@@2@$00@std@@QEAAAEAV?$allocator@U?$_Tree_node@U?$pair@$$CBHV?$function@$$A6AXHH@Z@std@@@std@@PEAX@std@@@2@XZ ; std::_Compressed_pair<std::allocator<std::_Tree_node<std::pair<int const ,std::function<void __cdecl(int,int)> >,void *> >,std::_Tree_val<std::_Tree_simple_types<std::pair<int const ,std::function<void __cdecl(int,int)> > > >,1>::_Get_first
PUBLIC	?_Get_first@?$_Compressed_pair@V?$allocator@U?$_Tree_node@U?$pair@$$CBHV?$function@$$A6AXHH@Z@std@@@std@@PEAX@std@@@std@@V?$_Tree_val@U?$_Tree_simple_types@U?$pair@$$CBHV?$function@$$A6AXHH@Z@std@@@std@@@std@@@2@$00@std@@QEBAAEBV?$allocator@U?$_Tree_node@U?$pair@$$CBHV?$function@$$A6AXHH@Z@std@@@std@@PEAX@std@@@2@XZ ; std::_Compressed_pair<std::allocator<std::_Tree_node<std::pair<int const ,std::function<void __cdecl(int,int)> >,void *> >,std::_Tree_val<std::_Tree_simple_types<std::pair<int const ,std::function<void __cdecl(int,int)> > > >,1>::_Get_first
PUBLIC	?_Get_first@?$_Compressed_pair@U?$less@H@std@@V?$_Compressed_pair@V?$allocator@U?$_Tree_node@U?$pair@$$CBHV?$function@$$A6AXHH@Z@std@@@std@@PEAX@std@@@std@@V?$_Tree_val@U?$_Tree_simple_types@U?$pair@$$CBHV?$function@$$A6AXHH@Z@std@@@std@@@std@@@2@$00@2@$00@std@@QEBAAEBU?$less@H@2@XZ ; std::_Compressed_pair<std::less<int>,std::_Compressed_pair<std::allocator<std::_Tree_node<std::pair<int const ,std::function<void __cdecl(int,int)> >,void *> >,std::_Tree_val<std::_Tree_simple_types<std::pair<int const ,std::function<void __cdecl(int,int)> > > >,1>,1>::_Get_first
PUBLIC	??$?0$$V@?$_Compressed_pair@V?$allocator@U?$_Tree_node@U?$pair@$$CBHV?$function@$$A6AXHH@Z@std@@@std@@PEAX@std@@@std@@V?$_Tree_val@U?$_Tree_simple_types@U?$pair@$$CBHV?$function@$$A6AXHH@Z@std@@@std@@@std@@@2@$00@std@@QEAA@U_Zero_then_variadic_args_t@1@@Z ; std::_Compressed_pair<std::allocator<std::_Tree_node<std::pair<int const ,std::function<void __cdecl(int,int)> >,void *> >,std::_Tree_val<std::_Tree_simple_types<std::pair<int const ,std::function<void __cdecl(int,int)> > > >,1>::_Compressed_pair<std::allocator<std::_Tree_node<std::pair<int const ,std::function<void __cdecl(int,int)> >,void *> >,std::_Tree_val<std::_Tree_simple_types<std::pair<int const ,std::function<void __cdecl(int,int)> > > >,1><>
PUBLIC	??0?$map@HV?$function@$$A6AXHH@Z@std@@U?$less@H@2@V?$allocator@U?$pair@$$CBHV?$function@$$A6AXHH@Z@std@@@std@@@2@@std@@QEAA@XZ ; std::map<int,std::function<void __cdecl(int,int)>,std::less<int>,std::allocator<std::pair<int const ,std::function<void __cdecl(int,int)> > > >::map<int,std::function<void __cdecl(int,int)>,std::less<int>,std::allocator<std::pair<int const ,std::function<void __cdecl(int,int)> > > >
PUBLIC	??1?$map@HV?$function@$$A6AXHH@Z@std@@U?$less@H@2@V?$allocator@U?$pair@$$CBHV?$function@$$A6AXHH@Z@std@@@std@@@2@@std@@QEAA@XZ ; std::map<int,std::function<void __cdecl(int,int)>,std::less<int>,std::allocator<std::pair<int const ,std::function<void __cdecl(int,int)> > > >::~map<int,std::function<void __cdecl(int,int)>,std::less<int>,std::allocator<std::pair<int const ,std::function<void __cdecl(int,int)> > > >
PUBLIC	?__autoclassinit2@?$Events@V?$function@$$A6AXHH@Z@std@@@@QEAAX_K@Z ; Events<std::function<void __cdecl(int,int)> >::__autoclassinit2
PUBLIC	??0?$_Func_class@XHH@std@@QEAA@XZ		; std::_Func_class<void,int,int>::_Func_class<void,int,int>
PUBLIC	??R?$_Func_class@XHH@std@@QEBAXHH@Z		; std::_Func_class<void,int,int>::operator()
PUBLIC	??1?$_Func_class@XHH@std@@QEAA@XZ		; std::_Func_class<void,int,int>::~_Func_class<void,int,int>
PUBLIC	?_Empty@?$_Func_class@XHH@std@@IEBA_NXZ		; std::_Func_class<void,int,int>::_Empty
PUBLIC	?_Reset_copy@?$_Func_class@XHH@std@@IEAAXAEBV12@@Z ; std::_Func_class<void,int,int>::_Reset_copy
PUBLIC	?_Reset_move@?$_Func_class@XHH@std@@IEAAX$$QEAV12@@Z ; std::_Func_class<void,int,int>::_Reset_move
PUBLIC	?_Tidy@?$_Func_class@XHH@std@@IEAAXXZ		; std::_Func_class<void,int,int>::_Tidy
PUBLIC	?_Local@?$_Func_class@XHH@std@@AEBA_NXZ		; std::_Func_class<void,int,int>::_Local
PUBLIC	?_Getimpl@?$_Func_class@XHH@std@@AEBAPEAV?$_Func_base@XHH@2@XZ ; std::_Func_class<void,int,int>::_Getimpl
PUBLIC	?_Set@?$_Func_class@XHH@std@@AEAAXPEAV?$_Func_base@XHH@2@@Z ; std::_Func_class<void,int,int>::_Set
PUBLIC	??0?$function@$$A6AXHH@Z@std@@QEAA@AEBV01@@Z	; std::function<void __cdecl(int,int)>::function<void __cdecl(int,int)>
PUBLIC	??0?$function@$$A6AXHH@Z@std@@QEAA@$$QEAV01@@Z	; std::function<void __cdecl(int,int)>::function<void __cdecl(int,int)>
PUBLIC	??1?$function@$$A6AXHH@Z@std@@QEAA@XZ		; std::function<void __cdecl(int,int)>::~function<void __cdecl(int,int)>
PUBLIC	??$forward@AEAP6AXHH@Z@std@@YAAEAP6AXHH@ZAEAP6AXHH@Z@Z ; std::forward<void (__cdecl*&)(int,int)>
PUBLIC	??$forward@H@std@@YA$$QEAHAEAH@Z		; std::forward<int>
PUBLIC	??$_Call@AEAP6AXHH@ZHH@_Invoker_functor@std@@SAXAEAP6AXHH@Z$$QEAH1@Z ; std::_Invoker_functor::_Call<void (__cdecl*&)(int,int),int,int>
PUBLIC	??$invoke@AEAP6AXHH@ZHH@std@@YAXAEAP6AXHH@Z$$QEAH1@Z ; std::invoke<void (__cdecl*&)(int,int),int,int>
PUBLIC	??$?0P6AXHH@ZX@?$function@$$A6AXHH@Z@std@@QEAA@P6AXHH@Z@Z ; std::function<void __cdecl(int,int)>::function<void __cdecl(int,int)><void (__cdecl*)(int,int),void>
PUBLIC	??0?$tuple@U?$_Ph@$01@std@@@std@@QEAA@AEBV01@@Z	; std::tuple<std::_Ph<2> >::tuple<std::_Ph<2> >
PUBLIC	??0?$tuple@U?$_Ph@$01@std@@@std@@QEAA@$$QEAV01@@Z ; std::tuple<std::_Ph<2> >::tuple<std::_Ph<2> >
PUBLIC	??0?$tuple@U?$_Ph@$00@std@@U?$_Ph@$01@2@@std@@QEAA@AEBV01@@Z ; std::tuple<std::_Ph<1>,std::_Ph<2> >::tuple<std::_Ph<1>,std::_Ph<2> >
PUBLIC	??0?$tuple@U?$_Ph@$00@std@@U?$_Ph@$01@2@@std@@QEAA@$$QEAV01@@Z ; std::tuple<std::_Ph<1>,std::_Ph<2> >::tuple<std::_Ph<1>,std::_Ph<2> >
PUBLIC	??$forward_as_tuple@HH@std@@YA?AV?$tuple@$$QEAH$$QEAH@0@$$QEAH0@Z ; std::forward_as_tuple<int,int>
PUBLIC	??$move@AEAV?$tuple@$$QEAH$$QEAH@std@@@std@@YA$$QEAV?$tuple@$$QEAH$$QEAH@0@AEAV10@@Z ; std::move<std::tuple<int &&,int &&> &>
PUBLIC	??$get@$0A@$$QEAH$$QEAH@std@@YA$$QEAH$$QEAV?$tuple@$$QEAH$$QEAH@0@@Z ; std::get<0,int &&,int &&>
PUBLIC	??$_Fix@V?$tuple@$$QEAH$$QEAH@std@@@?$_Select_fixer@U?$_Ph@$00@std@@$0A@$0A@$00@std@@SA$$QEAHAEAU?$_Ph@$00@1@$$QEAV?$tuple@$$QEAH$$QEAH@1@@Z ; std::_Select_fixer<std::_Ph<1>,0,0,1>::_Fix<std::tuple<int &&,int &&> >
PUBLIC	??$_Fix_arg@U?$_Ph@$00@std@@V?$tuple@$$QEAH$$QEAH@2@@std@@YA$$QEAHAEAU?$_Ph@$00@0@$$QEAV?$tuple@$$QEAH$$QEAH@0@@Z ; std::_Fix_arg<std::_Ph<1>,std::tuple<int &&,int &&> >
PUBLIC	??$get@$00$$QEAH$$QEAH@std@@YA$$QEAH$$QEAV?$tuple@$$QEAH$$QEAH@0@@Z ; std::get<1,int &&,int &&>
PUBLIC	??$_Fix@V?$tuple@$$QEAH$$QEAH@std@@@?$_Select_fixer@U?$_Ph@$01@std@@$0A@$0A@$01@std@@SA$$QEAHAEAU?$_Ph@$01@1@$$QEAV?$tuple@$$QEAH$$QEAH@1@@Z ; std::_Select_fixer<std::_Ph<2>,0,0,2>::_Fix<std::tuple<int &&,int &&> >
PUBLIC	??$_Fix_arg@U?$_Ph@$01@std@@V?$tuple@$$QEAH$$QEAH@2@@std@@YA$$QEAHAEAU?$_Ph@$01@0@$$QEAV?$tuple@$$QEAH$$QEAH@0@@Z ; std::_Fix_arg<std::_Ph<2>,std::tuple<int &&,int &&> >
PUBLIC	??$Notify@AEAHAEAH@?$Events@V?$function@$$A6AXHH@Z@std@@@@QEAAXAEAH0@Z ; Events<std::function<void __cdecl(int,int)> >::Notify<int &,int &>
PUBLIC	??$Assign@AEBV?$function@$$A6AXHH@Z@std@@@?$Events@V?$function@$$A6AXHH@Z@std@@@@AEAAHAEBV?$function@$$A6AXHH@Z@std@@@Z ; Events<std::function<void __cdecl(int,int)> >::Assign<std::function<void __cdecl(int,int)> const &>
PUBLIC	??$forward@V?$function@$$A6AXHH@Z@std@@@std@@YA$$QEAV?$function@$$A6AXHH@Z@0@AEAV10@@Z ; std::forward<std::function<void __cdecl(int,int)> >
PUBLIC	??$Assign@V?$function@$$A6AXHH@Z@std@@@?$Events@V?$function@$$A6AXHH@Z@std@@@@AEAAH$$QEAV?$function@$$A6AXHH@Z@std@@@Z ; Events<std::function<void __cdecl(int,int)> >::Assign<std::function<void __cdecl(int,int)> >
PUBLIC	??0_Sentry_base@?$basic_ostream@DU?$char_traits@D@std@@@std@@QEAA@AEAV12@@Z ; std::basic_ostream<char,std::char_traits<char> >::_Sentry_base::_Sentry_base
PUBLIC	??1_Sentry_base@?$basic_ostream@DU?$char_traits@D@std@@@std@@QEAA@XZ ; std::basic_ostream<char,std::char_traits<char> >::_Sentry_base::~_Sentry_base
PUBLIC	??0sentry@?$basic_ostream@DU?$char_traits@D@std@@@std@@QEAA@AEAV12@@Z ; std::basic_ostream<char,std::char_traits<char> >::sentry::sentry
PUBLIC	??1sentry@?$basic_ostream@DU?$char_traits@D@std@@@std@@QEAA@XZ ; std::basic_ostream<char,std::char_traits<char> >::sentry::~sentry
PUBLIC	??Bsentry@?$basic_ostream@DU?$char_traits@D@std@@@std@@QEBA_NXZ ; std::basic_ostream<char,std::char_traits<char> >::sentry::operator bool
PUBLIC	?allocate@?$allocator@U_Container_proxy@std@@@std@@QEAAPEAU_Container_proxy@2@_K@Z ; std::allocator<std::_Container_proxy>::allocate
PUBLIC	??$_Delete_plain_internal@V?$allocator@U_Container_proxy@std@@@std@@@std@@YAXAEAV?$allocator@U_Container_proxy@std@@@0@QEAU_Container_proxy@0@@Z ; std::_Delete_plain_internal<std::allocator<std::_Container_proxy> >
PUBLIC	??0?$_Container_proxy_ptr12@V?$allocator@U_Container_proxy@std@@@std@@@std@@QEAA@AEAV?$allocator@U_Container_proxy@std@@@1@AEAU_Container_base12@1@@Z ; std::_Container_proxy_ptr12<std::allocator<std::_Container_proxy> >::_Container_proxy_ptr12<std::allocator<std::_Container_proxy> >
PUBLIC	??1?$_Container_proxy_ptr12@V?$allocator@U_Container_proxy@std@@@std@@@std@@QEAA@XZ ; std::_Container_proxy_ptr12<std::allocator<std::_Container_proxy> >::~_Container_proxy_ptr12<std::allocator<std::_Container_proxy> >
PUBLIC	??$_Unfancy@U_Container_proxy@std@@@std@@YAPEAU_Container_proxy@0@PEAU10@@Z ; std::_Unfancy<std::_Container_proxy>
PUBLIC	??0?$_Func_base@XHH@std@@QEAA@XZ		; std::_Func_base<void,int,int>::_Func_base<void,int,int>
PUBLIC	??$_Erase_head@V?$allocator@U?$_Tree_node@U?$pair@$$CBHV?$function@$$A6AXHH@Z@std@@@std@@PEAX@std@@@std@@@?$_Tree_val@U?$_Tree_simple_types@U?$pair@$$CBHV?$function@$$A6AXHH@Z@std@@@std@@@std@@@std@@QEAAXAEAV?$allocator@U?$_Tree_node@U?$pair@$$CBHV?$function@$$A6AXHH@Z@std@@@std@@PEAX@std@@@1@@Z ; std::_Tree_val<std::_Tree_simple_types<std::pair<int const ,std::function<void __cdecl(int,int)> > > >::_Erase_head<std::allocator<std::_Tree_node<std::pair<int const ,std::function<void __cdecl(int,int)> >,void *> > >
PUBLIC	??$?0U?$_Tree_node@U?$pair@$$CBHV?$function@$$A6AXHH@Z@std@@@std@@PEAX@std@@@?$allocator@U_Container_proxy@std@@@std@@QEAA@AEBV?$allocator@U?$_Tree_node@U?$pair@$$CBHV?$function@$$A6AXHH@Z@std@@@std@@PEAX@std@@@1@@Z ; std::allocator<std::_Container_proxy>::allocator<std::_Container_proxy><std::_Tree_node<std::pair<int const ,std::function<void __cdecl(int,int)> >,void *> >
PUBLIC	??$_Allocate@$0BA@U_Default_allocate_traits@std@@$0A@@std@@YAPEAX_K@Z ; std::_Allocate<16,std::_Default_allocate_traits,0>
PUBLIC	??$_Deallocate@$0BA@$0A@@std@@YAXPEAX_K@Z	; std::_Deallocate<16,0>
PUBLIC	??$_Get_size_of_n@$0BA@@std@@YA_K_K@Z		; std::_Get_size_of_n<16>
PUBLIC	??$addressof@V?$_Tree_val@U?$_Tree_simple_types@U?$pair@$$CBHV?$function@$$A6AXHH@Z@std@@@std@@@std@@@std@@@std@@YAPEAV?$_Tree_val@U?$_Tree_simple_types@U?$pair@$$CBHV?$function@$$A6AXHH@Z@std@@@std@@@std@@@0@AEAV10@@Z ; std::addressof<std::_Tree_val<std::_Tree_simple_types<std::pair<int const ,std::function<void __cdecl(int,int)> > > > >
PUBLIC	??$?0AEBU?$less@H@std@@U_Zero_then_variadic_args_t@1@@?$_Compressed_pair@U?$less@H@std@@V?$_Compressed_pair@V?$allocator@U?$_Tree_node@U?$pair@$$CBHV?$function@$$A6AXHH@Z@std@@@std@@PEAX@std@@@std@@V?$_Tree_val@U?$_Tree_simple_types@U?$pair@$$CBHV?$function@$$A6AXHH@Z@std@@@std@@@std@@@2@$00@2@$00@std@@QEAA@U_One_then_variadic_args_t@1@AEBU?$less@H@1@$$QEAU_Zero_then_variadic_args_t@1@@Z ; std::_Compressed_pair<std::less<int>,std::_Compressed_pair<std::allocator<std::_Tree_node<std::pair<int const ,std::function<void __cdecl(int,int)> >,void *> >,std::_Tree_val<std::_Tree_simple_types<std::pair<int const ,std::function<void __cdecl(int,int)> > > >,1>,1>::_Compressed_pair<std::less<int>,std::_Compressed_pair<std::allocator<std::_Tree_node<std::pair<int const ,std::function<void __cdecl(int,int)> >,void *> >,std::_Tree_val<std::_Tree_simple_types<std::pair<int const ,std::function<void __cdecl(int,int)> > > >,1>,1><std::less<int> const &,std::_Zero_then_variadic_args_t>
PUBLIC	??1?$pair@$$CBHV?$function@$$A6AXHH@Z@std@@@std@@QEAA@XZ ; std::pair<int const ,std::function<void __cdecl(int,int)> >::~pair<int const ,std::function<void __cdecl(int,int)> >
PUBLIC	??_G?$pair@$$CBHV?$function@$$A6AXHH@Z@std@@@std@@QEAAPEAXI@Z ; std::pair<int const ,std::function<void __cdecl(int,int)> >::`scalar deleting destructor'
PUBLIC	??$_Buyheadnode@V?$allocator@U?$_Tree_node@U?$pair@$$CBHV?$function@$$A6AXHH@Z@std@@@std@@PEAX@std@@@std@@@?$_Tree_node@U?$pair@$$CBHV?$function@$$A6AXHH@Z@std@@@std@@PEAX@std@@SAPEAU01@AEAV?$allocator@U?$_Tree_node@U?$pair@$$CBHV?$function@$$A6AXHH@Z@std@@@std@@PEAX@std@@@1@@Z ; std::_Tree_node<std::pair<int const ,std::function<void __cdecl(int,int)> >,void *>::_Buyheadnode<std::allocator<std::_Tree_node<std::pair<int const ,std::function<void __cdecl(int,int)> >,void *> > >
PUBLIC	??$addressof@U_Container_proxy@std@@@std@@YAPEAU_Container_proxy@0@AEAU10@@Z ; std::addressof<std::_Container_proxy>
PUBLIC	??$forward@PEAU_Container_base12@std@@@std@@YA$$QEAPEAU_Container_base12@0@AEAPEAU10@@Z ; std::forward<std::_Container_base12 *>
PUBLIC	??$move@AEAP6AXHH@Z@std@@YA$$QEAP6AXHH@ZAEAP6AXHH@Z@Z ; std::move<void (__cdecl*&)(int,int)>
PUBLIC	??$_Reset@P6AXHH@Z@?$_Func_class@XHH@std@@IEAAX$$QEAP6AXHH@Z@Z ; std::_Func_class<void,int,int>::_Reset<void (__cdecl*)(int,int)>
PUBLIC	??$forward@AEBU?$_Ph@$00@std@@@std@@YAAEBU?$_Ph@$00@0@AEBU10@@Z ; std::forward<std::_Ph<1> const &>
PUBLIC	??$forward@AEBU?$_Ph@$01@std@@@std@@YAAEBU?$_Ph@$01@0@AEBU10@@Z ; std::forward<std::_Ph<2> const &>
PUBLIC	??0?$_Tree_unchecked_const_iterator@V?$_Tree_val@U?$_Tree_simple_types@U?$pair@$$CBHV?$function@$$A6AXHH@Z@std@@@std@@@std@@@std@@U_Iterator_base0@2@@std@@QEAA@PEAU?$_Tree_node@U?$pair@$$CBHV?$function@$$A6AXHH@Z@std@@@std@@PEAX@1@PEBV?$_Tree_val@U?$_Tree_simple_types@U?$pair@$$CBHV?$function@$$A6AXHH@Z@std@@@std@@@std@@@1@@Z ; std::_Tree_unchecked_const_iterator<std::_Tree_val<std::_Tree_simple_types<std::pair<int const ,std::function<void __cdecl(int,int)> > > >,std::_Iterator_base0>::_Tree_unchecked_const_iterator<std::_Tree_val<std::_Tree_simple_types<std::pair<int const ,std::function<void __cdecl(int,int)> > > >,std::_Iterator_base0>
PUBLIC	??D?$_Tree_unchecked_const_iterator@V?$_Tree_val@U?$_Tree_simple_types@U?$pair@$$CBHV?$function@$$A6AXHH@Z@std@@@std@@@std@@@std@@U_Iterator_base0@2@@std@@QEBAAEBU?$pair@$$CBHV?$function@$$A6AXHH@Z@std@@@1@XZ ; std::_Tree_unchecked_const_iterator<std::_Tree_val<std::_Tree_simple_types<std::pair<int const ,std::function<void __cdecl(int,int)> > > >,std::_Iterator_base0>::operator*
PUBLIC	??E?$_Tree_unchecked_const_iterator@V?$_Tree_val@U?$_Tree_simple_types@U?$pair@$$CBHV?$function@$$A6AXHH@Z@std@@@std@@@std@@@std@@U_Iterator_base0@2@@std@@QEAAAEAV01@XZ ; std::_Tree_unchecked_const_iterator<std::_Tree_val<std::_Tree_simple_types<std::pair<int const ,std::function<void __cdecl(int,int)> > > >,std::_Iterator_base0>::operator++
PUBLIC	??9?$_Tree_unchecked_const_iterator@V?$_Tree_val@U?$_Tree_simple_types@U?$pair@$$CBHV?$function@$$A6AXHH@Z@std@@@std@@@std@@@std@@U_Iterator_base0@2@@std@@QEBA_NU_Default_sentinel@1@@Z ; std::_Tree_unchecked_const_iterator<std::_Tree_val<std::_Tree_simple_types<std::pair<int const ,std::function<void __cdecl(int,int)> > > >,std::_Iterator_base0>::operator!=
PUBLIC	??0?$_Tree_unchecked_iterator@V?$_Tree_val@U?$_Tree_simple_types@U?$pair@$$CBHV?$function@$$A6AXHH@Z@std@@@std@@@std@@@std@@@std@@QEAA@PEAU?$_Tree_node@U?$pair@$$CBHV?$function@$$A6AXHH@Z@std@@@std@@PEAX@1@PEBV?$_Tree_val@U?$_Tree_simple_types@U?$pair@$$CBHV?$function@$$A6AXHH@Z@std@@@std@@@std@@@1@@Z ; std::_Tree_unchecked_iterator<std::_Tree_val<std::_Tree_simple_types<std::pair<int const ,std::function<void __cdecl(int,int)> > > > >::_Tree_unchecked_iterator<std::_Tree_val<std::_Tree_simple_types<std::pair<int const ,std::function<void __cdecl(int,int)> > > > >
PUBLIC	??D?$_Tree_unchecked_iterator@V?$_Tree_val@U?$_Tree_simple_types@U?$pair@$$CBHV?$function@$$A6AXHH@Z@std@@@std@@@std@@@std@@@std@@QEBAAEAU?$pair@$$CBHV?$function@$$A6AXHH@Z@std@@@1@XZ ; std::_Tree_unchecked_iterator<std::_Tree_val<std::_Tree_simple_types<std::pair<int const ,std::function<void __cdecl(int,int)> > > > >::operator*
PUBLIC	??E?$_Tree_unchecked_iterator@V?$_Tree_val@U?$_Tree_simple_types@U?$pair@$$CBHV?$function@$$A6AXHH@Z@std@@@std@@@std@@@std@@@std@@QEAAAEAV01@XZ ; std::_Tree_unchecked_iterator<std::_Tree_val<std::_Tree_simple_types<std::pair<int const ,std::function<void __cdecl(int,int)> > > > >::operator++
PUBLIC	?__autoclassinit2@?$_Tree_unchecked_iterator@V?$_Tree_val@U?$_Tree_simple_types@U?$pair@$$CBHV?$function@$$A6AXHH@Z@std@@@std@@@std@@@std@@@std@@QEAAX_K@Z ; std::_Tree_unchecked_iterator<std::_Tree_val<std::_Tree_simple_types<std::pair<int const ,std::function<void __cdecl(int,int)> > > > >::__autoclassinit2
PUBLIC	??$forward@AEAH@std@@YAAEAHAEAH@Z		; std::forward<int &>
PUBLIC	??$forward@AEBV?$function@$$A6AXHH@Z@std@@@std@@YAAEBV?$function@$$A6AXHH@Z@0@AEBV10@@Z ; std::forward<std::function<void __cdecl(int,int)> const &>
PUBLIC	??$emplace@AEAHAEBV?$function@$$A6AXHH@Z@std@@@?$_Tree@V?$_Tmap_traits@HV?$function@$$A6AXHH@Z@std@@U?$less@H@2@V?$allocator@U?$pair@$$CBHV?$function@$$A6AXHH@Z@std@@@std@@@2@$0A@@std@@@std@@QEAA?AU?$pair@V?$_Tree_iterator@V?$_Tree_val@U?$_Tree_simple_types@U?$pair@$$CBHV?$function@$$A6AXHH@Z@std@@@std@@@std@@@std@@@std@@_N@1@AEAHAEBV?$function@$$A6AXHH@Z@1@@Z ; std::_Tree<std::_Tmap_traits<int,std::function<void __cdecl(int,int)>,std::less<int>,std::allocator<std::pair<int const ,std::function<void __cdecl(int,int)> > >,0> >::emplace<int &,std::function<void __cdecl(int,int)> const &>
PUBLIC	??0?$_Tree_unchecked_const_iterator@V?$_Tree_val@U?$_Tree_simple_types@U?$pair@$$CBHV?$function@$$A6AXHH@Z@std@@@std@@@std@@@std@@U_Iterator_base12@2@@std@@QEAA@PEAU?$_Tree_node@U?$pair@$$CBHV?$function@$$A6AXHH@Z@std@@@std@@PEAX@1@PEBV?$_Tree_val@U?$_Tree_simple_types@U?$pair@$$CBHV?$function@$$A6AXHH@Z@std@@@std@@@std@@@1@@Z ; std::_Tree_unchecked_const_iterator<std::_Tree_val<std::_Tree_simple_types<std::pair<int const ,std::function<void __cdecl(int,int)> > > >,std::_Iterator_base12>::_Tree_unchecked_const_iterator<std::_Tree_val<std::_Tree_simple_types<std::pair<int const ,std::function<void __cdecl(int,int)> > > >,std::_Iterator_base12>
PUBLIC	??1?$_Tree_unchecked_const_iterator@V?$_Tree_val@U?$_Tree_simple_types@U?$pair@$$CBHV?$function@$$A6AXHH@Z@std@@@std@@@std@@@std@@U_Iterator_base12@2@@std@@QEAA@XZ ; std::_Tree_unchecked_const_iterator<std::_Tree_val<std::_Tree_simple_types<std::pair<int const ,std::function<void __cdecl(int,int)> > > >,std::_Iterator_base12>::~_Tree_unchecked_const_iterator<std::_Tree_val<std::_Tree_simple_types<std::pair<int const ,std::function<void __cdecl(int,int)> > > >,std::_Iterator_base12>
PUBLIC	??0?$_Tree_unchecked_const_iterator@V?$_Tree_val@U?$_Tree_simple_types@U?$pair@$$CBHV?$function@$$A6AXHH@Z@std@@@std@@@std@@@std@@U_Iterator_base12@2@@std@@QEAA@$$QEAV01@@Z ; std::_Tree_unchecked_const_iterator<std::_Tree_val<std::_Tree_simple_types<std::pair<int const ,std::function<void __cdecl(int,int)> > > >,std::_Iterator_base12>::_Tree_unchecked_const_iterator<std::_Tree_val<std::_Tree_simple_types<std::pair<int const ,std::function<void __cdecl(int,int)> > > >,std::_Iterator_base12>
PUBLIC	??0?$_Tree_const_iterator@V?$_Tree_val@U?$_Tree_simple_types@U?$pair@$$CBHV?$function@$$A6AXHH@Z@std@@@std@@@std@@@std@@@std@@QEAA@PEAU?$_Tree_node@U?$pair@$$CBHV?$function@$$A6AXHH@Z@std@@@std@@PEAX@1@PEBV?$_Tree_val@U?$_Tree_simple_types@U?$pair@$$CBHV?$function@$$A6AXHH@Z@std@@@std@@@std@@@1@@Z ; std::_Tree_const_iterator<std::_Tree_val<std::_Tree_simple_types<std::pair<int const ,std::function<void __cdecl(int,int)> > > > >::_Tree_const_iterator<std::_Tree_val<std::_Tree_simple_types<std::pair<int const ,std::function<void __cdecl(int,int)> > > > >
PUBLIC	??1?$_Tree_const_iterator@V?$_Tree_val@U?$_Tree_simple_types@U?$pair@$$CBHV?$function@$$A6AXHH@Z@std@@@std@@@std@@@std@@@std@@QEAA@XZ ; std::_Tree_const_iterator<std::_Tree_val<std::_Tree_simple_types<std::pair<int const ,std::function<void __cdecl(int,int)> > > > >::~_Tree_const_iterator<std::_Tree_val<std::_Tree_simple_types<std::pair<int const ,std::function<void __cdecl(int,int)> > > > >
PUBLIC	??0?$_Tree_const_iterator@V?$_Tree_val@U?$_Tree_simple_types@U?$pair@$$CBHV?$function@$$A6AXHH@Z@std@@@std@@@std@@@std@@@std@@QEAA@$$QEAV01@@Z ; std::_Tree_const_iterator<std::_Tree_val<std::_Tree_simple_types<std::pair<int const ,std::function<void __cdecl(int,int)> > > > >::_Tree_const_iterator<std::_Tree_val<std::_Tree_simple_types<std::pair<int const ,std::function<void __cdecl(int,int)> > > > >
PUBLIC	??0?$_Tree_iterator@V?$_Tree_val@U?$_Tree_simple_types@U?$pair@$$CBHV?$function@$$A6AXHH@Z@std@@@std@@@std@@@std@@@std@@QEAA@PEAU?$_Tree_node@U?$pair@$$CBHV?$function@$$A6AXHH@Z@std@@@std@@PEAX@1@PEBV?$_Tree_val@U?$_Tree_simple_types@U?$pair@$$CBHV?$function@$$A6AXHH@Z@std@@@std@@@std@@@1@@Z ; std::_Tree_iterator<std::_Tree_val<std::_Tree_simple_types<std::pair<int const ,std::function<void __cdecl(int,int)> > > > >::_Tree_iterator<std::_Tree_val<std::_Tree_simple_types<std::pair<int const ,std::function<void __cdecl(int,int)> > > > >
PUBLIC	??1?$_Tree_iterator@V?$_Tree_val@U?$_Tree_simple_types@U?$pair@$$CBHV?$function@$$A6AXHH@Z@std@@@std@@@std@@@std@@@std@@QEAA@XZ ; std::_Tree_iterator<std::_Tree_val<std::_Tree_simple_types<std::pair<int const ,std::function<void __cdecl(int,int)> > > > >::~_Tree_iterator<std::_Tree_val<std::_Tree_simple_types<std::pair<int const ,std::function<void __cdecl(int,int)> > > > >
PUBLIC	??0?$_Tree_iterator@V?$_Tree_val@U?$_Tree_simple_types@U?$pair@$$CBHV?$function@$$A6AXHH@Z@std@@@std@@@std@@@std@@@std@@QEAA@$$QEAV01@@Z ; std::_Tree_iterator<std::_Tree_val<std::_Tree_simple_types<std::pair<int const ,std::function<void __cdecl(int,int)> > > > >::_Tree_iterator<std::_Tree_val<std::_Tree_simple_types<std::pair<int const ,std::function<void __cdecl(int,int)> > > > >
PUBLIC	??1?$pair@V?$_Tree_iterator@V?$_Tree_val@U?$_Tree_simple_types@U?$pair@$$CBHV?$function@$$A6AXHH@Z@std@@@std@@@std@@@std@@@std@@_N@std@@QEAA@XZ ; std::pair<std::_Tree_iterator<std::_Tree_val<std::_Tree_simple_types<std::pair<int const ,std::function<void __cdecl(int,int)> > > > >,bool>::~pair<std::_Tree_iterator<std::_Tree_val<std::_Tree_simple_types<std::pair<int const ,std::function<void __cdecl(int,int)> > > > >,bool>
PUBLIC	??$emplace@AEAHV?$function@$$A6AXHH@Z@std@@@?$_Tree@V?$_Tmap_traits@HV?$function@$$A6AXHH@Z@std@@U?$less@H@2@V?$allocator@U?$pair@$$CBHV?$function@$$A6AXHH@Z@std@@@std@@@2@$0A@@std@@@std@@QEAA?AU?$pair@V?$_Tree_iterator@V?$_Tree_val@U?$_Tree_simple_types@U?$pair@$$CBHV?$function@$$A6AXHH@Z@std@@@std@@@std@@@std@@@std@@_N@1@AEAH$$QEAV?$function@$$A6AXHH@Z@1@@Z ; std::_Tree<std::_Tmap_traits<int,std::function<void __cdecl(int,int)>,std::less<int>,std::allocator<std::pair<int const ,std::function<void __cdecl(int,int)> > >,0> >::emplace<int &,std::function<void __cdecl(int,int)> >
PUBLIC	??$_Deallocate_plain@V?$allocator@U_Container_proxy@std@@@std@@@std@@YAXAEAV?$allocator@U_Container_proxy@std@@@0@QEAU_Container_proxy@0@@Z ; std::_Deallocate_plain<std::allocator<std::_Container_proxy> >
PUBLIC	??$_Erase_tree@V?$allocator@U?$_Tree_node@U?$pair@$$CBHV?$function@$$A6AXHH@Z@std@@@std@@PEAX@std@@@std@@@?$_Tree_val@U?$_Tree_simple_types@U?$pair@$$CBHV?$function@$$A6AXHH@Z@std@@@std@@@std@@@std@@QEAAXAEAV?$allocator@U?$_Tree_node@U?$pair@$$CBHV?$function@$$A6AXHH@Z@std@@@std@@PEAX@std@@@1@PEAU?$_Tree_node@U?$pair@$$CBHV?$function@$$A6AXHH@Z@std@@@std@@PEAX@1@@Z ; std::_Tree_val<std::_Tree_simple_types<std::pair<int const ,std::function<void __cdecl(int,int)> > > >::_Erase_tree<std::allocator<std::_Tree_node<std::pair<int const ,std::function<void __cdecl(int,int)> >,void *> > >
PUBLIC	??$_Freenode0@V?$allocator@U?$_Tree_node@U?$pair@$$CBHV?$function@$$A6AXHH@Z@std@@@std@@PEAX@std@@@std@@@?$_Tree_node@U?$pair@$$CBHV?$function@$$A6AXHH@Z@std@@@std@@PEAX@std@@SAXAEAV?$allocator@U?$_Tree_node@U?$pair@$$CBHV?$function@$$A6AXHH@Z@std@@@std@@PEAX@std@@@1@PEAU01@@Z ; std::_Tree_node<std::pair<int const ,std::function<void __cdecl(int,int)> >,void *>::_Freenode0<std::allocator<std::_Tree_node<std::pair<int const ,std::function<void __cdecl(int,int)> >,void *> > >
PUBLIC	??$_Allocate_manually_vector_aligned@U_Default_allocate_traits@std@@@std@@YAPEAX_K@Z ; std::_Allocate_manually_vector_aligned<std::_Default_allocate_traits>
PUBLIC	??$forward@AEBU?$less@H@std@@@std@@YAAEBU?$less@H@0@AEBU10@@Z ; std::forward<std::less<int> const &>
PUBLIC	??$forward@U_Zero_then_variadic_args_t@std@@@std@@YA$$QEAU_Zero_then_variadic_args_t@0@AEAU10@@Z ; std::forward<std::_Zero_then_variadic_args_t>
PUBLIC	??$_Construct_in_place@PEAU?$_Tree_node@U?$pair@$$CBHV?$function@$$A6AXHH@Z@std@@@std@@PEAX@std@@AEBQEAU12@@std@@YAXAEAPEAU?$_Tree_node@U?$pair@$$CBHV?$function@$$A6AXHH@Z@std@@@std@@PEAX@0@AEBQEAU10@@Z ; std::_Construct_in_place<std::_Tree_node<std::pair<int const ,std::function<void __cdecl(int,int)> >,void *> *,std::_Tree_node<std::pair<int const ,std::function<void __cdecl(int,int)> >,void *> * const &>
PUBLIC	??$_Get_size_of_n@$0GI@@std@@YA_K_K@Z		; std::_Get_size_of_n<104>
PUBLIC	??$_Test_callable@P6AXHH@Z@std@@YA_NAEBQ6AXHH@Z@Z ; std::_Test_callable<void (__cdecl*)(int,int)>
PUBLIC	?_Copy@?$_Func_impl_no_alloc@P6AXHH@ZXHH@std@@EEBAPEAV?$_Func_base@XHH@2@PEAX@Z ; std::_Func_impl_no_alloc<void (__cdecl*)(int,int),void,int,int>::_Copy
PUBLIC	?_Move@?$_Func_impl_no_alloc@P6AXHH@ZXHH@std@@EEAAPEAV?$_Func_base@XHH@2@PEAX@Z ; std::_Func_impl_no_alloc<void (__cdecl*)(int,int),void,int,int>::_Move
PUBLIC	?_Do_call@?$_Func_impl_no_alloc@P6AXHH@ZXHH@std@@EEAAX$$QEAH0@Z ; std::_Func_impl_no_alloc<void (__cdecl*)(int,int),void,int,int>::_Do_call
PUBLIC	?_Target_type@?$_Func_impl_no_alloc@P6AXHH@ZXHH@std@@EEBAAEBVtype_info@@XZ ; std::_Func_impl_no_alloc<void (__cdecl*)(int,int),void,int,int>::_Target_type
PUBLIC	?_Get@?$_Func_impl_no_alloc@P6AXHH@ZXHH@std@@EEBAPEBXXZ ; std::_Func_impl_no_alloc<void (__cdecl*)(int,int),void,int,int>::_Get
PUBLIC	?_Delete_this@?$_Func_impl_no_alloc@P6AXHH@ZXHH@std@@EEAAX_N@Z ; std::_Func_impl_no_alloc<void (__cdecl*)(int,int),void,int,int>::_Delete_this
PUBLIC	??$forward@P6AXHH@Z@std@@YA$$QEAP6AXHH@ZAEAP6AXHH@Z@Z ; std::forward<void (__cdecl*)(int,int)>
PUBLIC	??$?0P6AXHH@ZX@?$_Func_impl_no_alloc@P6AXHH@ZXHH@std@@QEAA@$$QEAP6AXHH@Z@Z ; std::_Func_impl_no_alloc<void (__cdecl*)(int,int),void,int,int>::_Func_impl_no_alloc<void (__cdecl*)(int,int),void,int,int><void (__cdecl*)(int,int),void>
PUBLIC	??$_Emplace@AEAHAEBV?$function@$$A6AXHH@Z@std@@@?$_Tree@V?$_Tmap_traits@HV?$function@$$A6AXHH@Z@std@@U?$less@H@2@V?$allocator@U?$pair@$$CBHV?$function@$$A6AXHH@Z@std@@@std@@@2@$0A@@std@@@std@@IEAA?AU?$pair@PEAU?$_Tree_node@U?$pair@$$CBHV?$function@$$A6AXHH@Z@std@@@std@@PEAX@std@@_N@1@AEAHAEBV?$function@$$A6AXHH@Z@1@@Z ; std::_Tree<std::_Tmap_traits<int,std::function<void __cdecl(int,int)>,std::less<int>,std::allocator<std::pair<int const ,std::function<void __cdecl(int,int)> > >,0> >::_Emplace<int &,std::function<void __cdecl(int,int)> const &>
PUBLIC	??$?0V?$_Tree_iterator@V?$_Tree_val@U?$_Tree_simple_types@U?$pair@$$CBHV?$function@$$A6AXHH@Z@std@@@std@@@std@@@std@@@std@@AEB_N$0A@@?$pair@V?$_Tree_iterator@V?$_Tree_val@U?$_Tree_simple_types@U?$pair@$$CBHV?$function@$$A6AXHH@Z@std@@@std@@@std@@@std@@@std@@_N@std@@QEAA@$$QEAV?$_Tree_iterator@V?$_Tree_val@U?$_Tree_simple_types@U?$pair@$$CBHV?$function@$$A6AXHH@Z@std@@@std@@@std@@@std@@@1@AEB_N@Z ; std::pair<std::_Tree_iterator<std::_Tree_val<std::_Tree_simple_types<std::pair<int const ,std::function<void __cdecl(int,int)> > > > >,bool>::pair<std::_Tree_iterator<std::_Tree_val<std::_Tree_simple_types<std::pair<int const ,std::function<void __cdecl(int,int)> > > > >,bool><std::_Tree_iterator<std::_Tree_val<std::_Tree_simple_types<std::pair<int const ,std::function<void __cdecl(int,int)> > > > >,bool const &,0>
PUBLIC	??$_Emplace@AEAHV?$function@$$A6AXHH@Z@std@@@?$_Tree@V?$_Tmap_traits@HV?$function@$$A6AXHH@Z@std@@U?$less@H@2@V?$allocator@U?$pair@$$CBHV?$function@$$A6AXHH@Z@std@@@std@@@2@$0A@@std@@@std@@IEAA?AU?$pair@PEAU?$_Tree_node@U?$pair@$$CBHV?$function@$$A6AXHH@Z@std@@@std@@PEAX@std@@_N@1@AEAH$$QEAV?$function@$$A6AXHH@Z@1@@Z ; std::_Tree<std::_Tmap_traits<int,std::function<void __cdecl(int,int)>,std::less<int>,std::allocator<std::pair<int const ,std::function<void __cdecl(int,int)> > >,0> >::_Emplace<int &,std::function<void __cdecl(int,int)> >
PUBLIC	?deallocate@?$_Default_allocator_traits@V?$allocator@U_Container_proxy@std@@@std@@@std@@SAXAEAV?$allocator@U_Container_proxy@std@@@2@QEAU_Container_proxy@2@_K@Z ; std::_Default_allocator_traits<std::allocator<std::_Container_proxy> >::deallocate
PUBLIC	??$exchange@PEAU?$_Tree_node@U?$pair@$$CBHV?$function@$$A6AXHH@Z@std@@@std@@PEAX@std@@AEAPEAU12@@std@@YAPEAU?$_Tree_node@U?$pair@$$CBHV?$function@$$A6AXHH@Z@std@@@std@@PEAX@0@AEAPEAU10@0@Z ; std::exchange<std::_Tree_node<std::pair<int const ,std::function<void __cdecl(int,int)> >,void *> *,std::_Tree_node<std::pair<int const ,std::function<void __cdecl(int,int)> >,void *> * &>
PUBLIC	??$_Freenode@V?$allocator@U?$_Tree_node@U?$pair@$$CBHV?$function@$$A6AXHH@Z@std@@@std@@PEAX@std@@@std@@@?$_Tree_node@U?$pair@$$CBHV?$function@$$A6AXHH@Z@std@@@std@@PEAX@std@@SAXAEAV?$allocator@U?$_Tree_node@U?$pair@$$CBHV?$function@$$A6AXHH@Z@std@@@std@@PEAX@std@@@1@PEAU01@@Z ; std::_Tree_node<std::pair<int const ,std::function<void __cdecl(int,int)> >,void *>::_Freenode<std::allocator<std::_Tree_node<std::pair<int const ,std::function<void __cdecl(int,int)> >,void *> > >
PUBLIC	??$_Destroy_in_place@PEAU?$_Tree_node@U?$pair@$$CBHV?$function@$$A6AXHH@Z@std@@@std@@PEAX@std@@@std@@YAXAEAPEAU?$_Tree_node@U?$pair@$$CBHV?$function@$$A6AXHH@Z@std@@@std@@PEAX@0@@Z ; std::_Destroy_in_place<std::_Tree_node<std::pair<int const ,std::function<void __cdecl(int,int)> >,void *> *>
PUBLIC	??$addressof@PEAU?$_Tree_node@U?$pair@$$CBHV?$function@$$A6AXHH@Z@std@@@std@@PEAX@std@@@std@@YAPEAPEAU?$_Tree_node@U?$pair@$$CBHV?$function@$$A6AXHH@Z@std@@@std@@PEAX@0@AEAPEAU10@@Z ; std::addressof<std::_Tree_node<std::pair<int const ,std::function<void __cdecl(int,int)> >,void *> *>
PUBLIC	??$forward@AEBQEAU?$_Tree_node@U?$pair@$$CBHV?$function@$$A6AXHH@Z@std@@@std@@PEAX@std@@@std@@YAAEBQEAU?$_Tree_node@U?$pair@$$CBHV?$function@$$A6AXHH@Z@std@@@std@@PEAX@0@AEBQEAU10@@Z ; std::forward<std::_Tree_node<std::pair<int const ,std::function<void __cdecl(int,int)> >,void *> * const &>
PUBLIC	??$_Deallocate@$07$0A@@std@@YAXPEAX_K@Z		; std::_Deallocate<8,0>
PUBLIC	??$addressof@Q6AXHH@Z@std@@YAPEBQ6AXHH@ZAEBQ6AXHH@Z@Z ; std::addressof<void (__cdecl*const)(int,int)>
PUBLIC	??$_Call@AEAP6AXHH@ZHH@?$_Invoker_ret@X$00@std@@SAXAEAP6AXHH@Z$$QEAH1@Z ; std::_Invoker_ret<void,1>::_Call<void (__cdecl*&)(int,int),int,int>
PUBLIC	??$?0AEBQ6AXHH@ZX@?$_Func_impl_no_alloc@P6AXHH@ZXHH@std@@QEAA@AEBQ6AXHH@Z@Z ; std::_Func_impl_no_alloc<void (__cdecl*)(int,int),void,int,int>::_Func_impl_no_alloc<void (__cdecl*)(int,int),void,int,int><void (__cdecl*const &)(int,int),void>
PUBLIC	??0?$_Alloc_construct_ptr@V?$allocator@U?$_Tree_node@U?$pair@$$CBHV?$function@$$A6AXHH@Z@std@@@std@@PEAX@std@@@std@@@std@@QEAA@AEAV?$allocator@U?$_Tree_node@U?$pair@$$CBHV?$function@$$A6AXHH@Z@std@@@std@@PEAX@std@@@1@@Z ; std::_Alloc_construct_ptr<std::allocator<std::_Tree_node<std::pair<int const ,std::function<void __cdecl(int,int)> >,void *> > >::_Alloc_construct_ptr<std::allocator<std::_Tree_node<std::pair<int const ,std::function<void __cdecl(int,int)> >,void *> > >
PUBLIC	?_Release@?$_Alloc_construct_ptr@V?$allocator@U?$_Tree_node@U?$pair@$$CBHV?$function@$$A6AXHH@Z@std@@@std@@PEAX@std@@@std@@@std@@QEAAPEAU?$_Tree_node@U?$pair@$$CBHV?$function@$$A6AXHH@Z@std@@@std@@PEAX@2@XZ ; std::_Alloc_construct_ptr<std::allocator<std::_Tree_node<std::pair<int const ,std::function<void __cdecl(int,int)> >,void *> > >::_Release
PUBLIC	?_Allocate@?$_Alloc_construct_ptr@V?$allocator@U?$_Tree_node@U?$pair@$$CBHV?$function@$$A6AXHH@Z@std@@@std@@PEAX@std@@@std@@@std@@QEAAXXZ ; std::_Alloc_construct_ptr<std::allocator<std::_Tree_node<std::pair<int const ,std::function<void __cdecl(int,int)> >,void *> > >::_Allocate
PUBLIC	??1?$_Alloc_construct_ptr@V?$allocator@U?$_Tree_node@U?$pair@$$CBHV?$function@$$A6AXHH@Z@std@@@std@@PEAX@std@@@std@@@std@@QEAA@XZ ; std::_Alloc_construct_ptr<std::allocator<std::_Tree_node<std::pair<int const ,std::function<void __cdecl(int,int)> >,void *> > >::~_Alloc_construct_ptr<std::allocator<std::_Tree_node<std::pair<int const ,std::function<void __cdecl(int,int)> >,void *> > >
PUBLIC	??0?$_Tree_temp_node_alloc@V?$allocator@U?$_Tree_node@U?$pair@$$CBHV?$function@$$A6AXHH@Z@std@@@std@@PEAX@std@@@std@@@std@@QEAA@AEAV?$allocator@U?$_Tree_node@U?$pair@$$CBHV?$function@$$A6AXHH@Z@std@@@std@@PEAX@std@@@1@@Z ; std::_Tree_temp_node_alloc<std::allocator<std::_Tree_node<std::pair<int const ,std::function<void __cdecl(int,int)> >,void *> > >::_Tree_temp_node_alloc<std::allocator<std::_Tree_node<std::pair<int const ,std::function<void __cdecl(int,int)> >,void *> > >
PUBLIC	??1?$_Tree_temp_node_alloc@V?$allocator@U?$_Tree_node@U?$pair@$$CBHV?$function@$$A6AXHH@Z@std@@@std@@PEAX@std@@@std@@@std@@QEAA@XZ ; std::_Tree_temp_node_alloc<std::allocator<std::_Tree_node<std::pair<int const ,std::function<void __cdecl(int,int)> >,void *> > >::~_Tree_temp_node_alloc<std::allocator<std::_Tree_node<std::pair<int const ,std::function<void __cdecl(int,int)> >,void *> > >
PUBLIC	??1?$_Tree_temp_node@V?$allocator@U?$_Tree_node@U?$pair@$$CBHV?$function@$$A6AXHH@Z@std@@@std@@PEAX@std@@@std@@@std@@QEAA@XZ ; std::_Tree_temp_node<std::allocator<std::_Tree_node<std::pair<int const ,std::function<void __cdecl(int,int)> >,void *> > >::~_Tree_temp_node<std::allocator<std::_Tree_node<std::pair<int const ,std::function<void __cdecl(int,int)> >,void *> > >
PUBLIC	?_Extract@?$_In_place_key_extract_map@HHV?$function@$$A6AXHH@Z@std@@@std@@SAAEBHAEBHAEBV?$function@$$A6AXHH@Z@2@@Z ; std::_In_place_key_extract_map<int,int,std::function<void __cdecl(int,int)> >::_Extract
PUBLIC	??$_Find_lower_bound@H@?$_Tree@V?$_Tmap_traits@HV?$function@$$A6AXHH@Z@std@@U?$less@H@2@V?$allocator@U?$pair@$$CBHV?$function@$$A6AXHH@Z@std@@@std@@@2@$0A@@std@@@std@@IEBA?AU?$_Tree_find_result@PEAU?$_Tree_node@U?$pair@$$CBHV?$function@$$A6AXHH@Z@std@@@std@@PEAX@std@@@1@AEBH@Z ; std::_Tree<std::_Tmap_traits<int,std::function<void __cdecl(int,int)>,std::less<int>,std::allocator<std::pair<int const ,std::function<void __cdecl(int,int)> > >,0> >::_Find_lower_bound<int>
PUBLIC	??$_Lower_bound_duplicate@H@?$_Tree@V?$_Tmap_traits@HV?$function@$$A6AXHH@Z@std@@U?$less@H@2@V?$allocator@U?$pair@$$CBHV?$function@$$A6AXHH@Z@std@@@std@@@2@$0A@@std@@@std@@IEBA_NQEAU?$_Tree_node@U?$pair@$$CBHV?$function@$$A6AXHH@Z@std@@@std@@PEAX@1@AEBH@Z ; std::_Tree<std::_Tmap_traits<int,std::function<void __cdecl(int,int)>,std::less<int>,std::allocator<std::pair<int const ,std::function<void __cdecl(int,int)> > >,0> >::_Lower_bound_duplicate<int>
PUBLIC	??$?0AEAHAEBV?$function@$$A6AXHH@Z@std@@@?$_Tree_temp_node@V?$allocator@U?$_Tree_node@U?$pair@$$CBHV?$function@$$A6AXHH@Z@std@@@std@@PEAX@std@@@std@@@std@@QEAA@AEAV?$allocator@U?$_Tree_node@U?$pair@$$CBHV?$function@$$A6AXHH@Z@std@@@std@@PEAX@std@@@1@PEAU?$_Tree_node@U?$pair@$$CBHV?$function@$$A6AXHH@Z@std@@@std@@PEAX@1@AEAHAEBV?$function@$$A6AXHH@Z@1@@Z ; std::_Tree_temp_node<std::allocator<std::_Tree_node<std::pair<int const ,std::function<void __cdecl(int,int)> >,void *> > >::_Tree_temp_node<std::allocator<std::_Tree_node<std::pair<int const ,std::function<void __cdecl(int,int)> >,void *> > ><int &,std::function<void __cdecl(int,int)> const &>
PUBLIC	??$?0AEAPEAU?$_Tree_node@U?$pair@$$CBHV?$function@$$A6AXHH@Z@std@@@std@@PEAX@std@@_N$0A@@?$pair@PEAU?$_Tree_node@U?$pair@$$CBHV?$function@$$A6AXHH@Z@std@@@std@@PEAX@std@@_N@std@@QEAA@AEAPEAU?$_Tree_node@U?$pair@$$CBHV?$function@$$A6AXHH@Z@std@@@std@@PEAX@1@$$QEA_N@Z ; std::pair<std::_Tree_node<std::pair<int const ,std::function<void __cdecl(int,int)> >,void *> *,bool>::pair<std::_Tree_node<std::pair<int const ,std::function<void __cdecl(int,int)> >,void *> *,bool><std::_Tree_node<std::pair<int const ,std::function<void __cdecl(int,int)> >,void *> * &,bool,0>
PUBLIC	??$?0PEAU?$_Tree_node@U?$pair@$$CBHV?$function@$$A6AXHH@Z@std@@@std@@PEAX@std@@_N$0A@@?$pair@PEAU?$_Tree_node@U?$pair@$$CBHV?$function@$$A6AXHH@Z@std@@@std@@PEAX@std@@_N@std@@QEAA@$$QEAPEAU?$_Tree_node@U?$pair@$$CBHV?$function@$$A6AXHH@Z@std@@@std@@PEAX@1@$$QEA_N@Z ; std::pair<std::_Tree_node<std::pair<int const ,std::function<void __cdecl(int,int)> >,void *> *,bool>::pair<std::_Tree_node<std::pair<int const ,std::function<void __cdecl(int,int)> >,void *> *,bool><std::_Tree_node<std::pair<int const ,std::function<void __cdecl(int,int)> >,void *> *,bool,0>
PUBLIC	??$forward@V?$_Tree_iterator@V?$_Tree_val@U?$_Tree_simple_types@U?$pair@$$CBHV?$function@$$A6AXHH@Z@std@@@std@@@std@@@std@@@std@@@std@@YA$$QEAV?$_Tree_iterator@V?$_Tree_val@U?$_Tree_simple_types@U?$pair@$$CBHV?$function@$$A6AXHH@Z@std@@@std@@@std@@@std@@@0@AEAV10@@Z ; std::forward<std::_Tree_iterator<std::_Tree_val<std::_Tree_simple_types<std::pair<int const ,std::function<void __cdecl(int,int)> > > > > >
PUBLIC	??$forward@AEB_N@std@@YAAEB_NAEB_N@Z		; std::forward<bool const &>
PUBLIC	??$?0AEAHV?$function@$$A6AXHH@Z@std@@@?$_Tree_temp_node@V?$allocator@U?$_Tree_node@U?$pair@$$CBHV?$function@$$A6AXHH@Z@std@@@std@@PEAX@std@@@std@@@std@@QEAA@AEAV?$allocator@U?$_Tree_node@U?$pair@$$CBHV?$function@$$A6AXHH@Z@std@@@std@@PEAX@std@@@1@PEAU?$_Tree_node@U?$pair@$$CBHV?$function@$$A6AXHH@Z@std@@@std@@PEAX@1@AEAH$$QEAV?$function@$$A6AXHH@Z@1@@Z ; std::_Tree_temp_node<std::allocator<std::_Tree_node<std::pair<int const ,std::function<void __cdecl(int,int)> >,void *> > >::_Tree_temp_node<std::allocator<std::_Tree_node<std::pair<int const ,std::function<void __cdecl(int,int)> >,void *> > ><int &,std::function<void __cdecl(int,int)> >
PUBLIC	??$addressof@U?$pair@$$CBHV?$function@$$A6AXHH@Z@std@@@std@@@std@@YAPEAU?$pair@$$CBHV?$function@$$A6AXHH@Z@std@@@0@AEAU10@@Z ; std::addressof<std::pair<int const ,std::function<void __cdecl(int,int)> > >
PUBLIC	??$destroy@U?$pair@$$CBHV?$function@$$A6AXHH@Z@std@@@std@@@?$_Default_allocator_traits@V?$allocator@U?$_Tree_node@U?$pair@$$CBHV?$function@$$A6AXHH@Z@std@@@std@@PEAX@std@@@std@@@std@@SAXAEAV?$allocator@U?$_Tree_node@U?$pair@$$CBHV?$function@$$A6AXHH@Z@std@@@std@@PEAX@std@@@1@QEAU?$pair@$$CBHV?$function@$$A6AXHH@Z@std@@@1@@Z ; std::_Default_allocator_traits<std::allocator<std::_Tree_node<std::pair<int const ,std::function<void __cdecl(int,int)> >,void *> > >::destroy<std::pair<int const ,std::function<void __cdecl(int,int)> > >
PUBLIC	??$forward@AEBQ6AXHH@Z@std@@YAAEBQ6AXHH@ZAEBQ6AXHH@Z@Z ; std::forward<void (__cdecl*const &)(int,int)>
PUBLIC	??$exchange@PEAU?$_Tree_node@U?$pair@$$CBHV?$function@$$A6AXHH@Z@std@@@std@@PEAX@std@@$$T@std@@YAPEAU?$_Tree_node@U?$pair@$$CBHV?$function@$$A6AXHH@Z@std@@@std@@PEAX@0@AEAPEAU10@$$QEA$$T@Z ; std::exchange<std::_Tree_node<std::pair<int const ,std::function<void __cdecl(int,int)> >,void *> *,std::nullptr_t>
PUBLIC	??$_Kfn@$$CBHV?$function@$$A6AXHH@Z@std@@@?$_Tmap_traits@HV?$function@$$A6AXHH@Z@std@@U?$less@H@2@V?$allocator@U?$pair@$$CBHV?$function@$$A6AXHH@Z@std@@@std@@@2@$0A@@std@@SAAEBHAEBU?$pair@$$CBHV?$function@$$A6AXHH@Z@std@@@1@@Z ; std::_Tmap_traits<int,std::function<void __cdecl(int,int)>,std::less<int>,std::allocator<std::pair<int const ,std::function<void __cdecl(int,int)> > >,0>::_Kfn<int const ,std::function<void __cdecl(int,int)> >
PUBLIC	??$_Debug_lt_pred@AEBU?$less@H@std@@AEBHAEBH$0A@@std@@YA_NAEBU?$less@H@0@AEBH1@Z ; std::_Debug_lt_pred<std::less<int> const &,int const &,int const &,0>
PUBLIC	??$construct@U?$pair@$$CBHV?$function@$$A6AXHH@Z@std@@@std@@AEAHAEBV?$function@$$A6AXHH@Z@2@@?$_Default_allocator_traits@V?$allocator@U?$_Tree_node@U?$pair@$$CBHV?$function@$$A6AXHH@Z@std@@@std@@PEAX@std@@@std@@@std@@SAXAEAV?$allocator@U?$_Tree_node@U?$pair@$$CBHV?$function@$$A6AXHH@Z@std@@@std@@PEAX@std@@@1@QEAU?$pair@$$CBHV?$function@$$A6AXHH@Z@std@@@1@AEAHAEBV?$function@$$A6AXHH@Z@1@@Z ; std::_Default_allocator_traits<std::allocator<std::_Tree_node<std::pair<int const ,std::function<void __cdecl(int,int)> >,void *> > >::construct<std::pair<int const ,std::function<void __cdecl(int,int)> >,int &,std::function<void __cdecl(int,int)> const &>
PUBLIC	??$_Construct_in_place@PEAU?$_Tree_node@U?$pair@$$CBHV?$function@$$A6AXHH@Z@std@@@std@@PEAX@std@@AEAPEAU12@@std@@YAXAEAPEAU?$_Tree_node@U?$pair@$$CBHV?$function@$$A6AXHH@Z@std@@@std@@PEAX@0@0@Z ; std::_Construct_in_place<std::_Tree_node<std::pair<int const ,std::function<void __cdecl(int,int)> >,void *> *,std::_Tree_node<std::pair<int const ,std::function<void __cdecl(int,int)> >,void *> * &>
PUBLIC	??$forward@AEAPEAU?$_Tree_node@U?$pair@$$CBHV?$function@$$A6AXHH@Z@std@@@std@@PEAX@std@@@std@@YAAEAPEAU?$_Tree_node@U?$pair@$$CBHV?$function@$$A6AXHH@Z@std@@@std@@PEAX@0@AEAPEAU10@@Z ; std::forward<std::_Tree_node<std::pair<int const ,std::function<void __cdecl(int,int)> >,void *> * &>
PUBLIC	??$forward@_N@std@@YA$$QEA_NAEA_N@Z		; std::forward<bool>
PUBLIC	??$forward@PEAU?$_Tree_node@U?$pair@$$CBHV?$function@$$A6AXHH@Z@std@@@std@@PEAX@std@@@std@@YA$$QEAPEAU?$_Tree_node@U?$pair@$$CBHV?$function@$$A6AXHH@Z@std@@@std@@PEAX@0@AEAPEAU10@@Z ; std::forward<std::_Tree_node<std::pair<int const ,std::function<void __cdecl(int,int)> >,void *> *>
PUBLIC	??$construct@U?$pair@$$CBHV?$function@$$A6AXHH@Z@std@@@std@@AEAHV?$function@$$A6AXHH@Z@2@@?$_Default_allocator_traits@V?$allocator@U?$_Tree_node@U?$pair@$$CBHV?$function@$$A6AXHH@Z@std@@@std@@PEAX@std@@@std@@@std@@SAXAEAV?$allocator@U?$_Tree_node@U?$pair@$$CBHV?$function@$$A6AXHH@Z@std@@@std@@PEAX@std@@@1@QEAU?$pair@$$CBHV?$function@$$A6AXHH@Z@std@@@1@AEAH$$QEAV?$function@$$A6AXHH@Z@1@@Z ; std::_Default_allocator_traits<std::allocator<std::_Tree_node<std::pair<int const ,std::function<void __cdecl(int,int)> >,void *> > >::construct<std::pair<int const ,std::function<void __cdecl(int,int)> >,int &,std::function<void __cdecl(int,int)> >
PUBLIC	??$?0U_Exact_args_t@std@@AEBU?$_Ph@$00@1@AEBU?$_Ph@$01@1@$0A@@?$tuple@U?$_Ph@$00@std@@U?$_Ph@$01@2@@std@@QEAA@U_Exact_args_t@1@AEBU?$_Ph@$00@1@AEBU?$_Ph@$01@1@@Z ; std::tuple<std::_Ph<1>,std::_Ph<2> >::tuple<std::_Ph<1>,std::_Ph<2> ><std::_Exact_args_t,std::_Ph<1> const &,std::_Ph<2> const &,0>
PUBLIC	??$addressof@$$CBV?$_Tree_val@U?$_Tree_simple_types@U?$pair@$$CBHV?$function@$$A6AXHH@Z@std@@@std@@@std@@@std@@@std@@YAPEBV?$_Tree_val@U?$_Tree_simple_types@U?$pair@$$CBHV?$function@$$A6AXHH@Z@std@@@std@@@std@@@0@AEBV10@@Z ; std::addressof<std::_Tree_val<std::_Tree_simple_types<std::pair<int const ,std::function<void __cdecl(int,int)> > > > const >
PUBLIC	??$?0AEAHAEBV?$function@$$A6AXHH@Z@std@@$0A@@?$pair@$$CBHV?$function@$$A6AXHH@Z@std@@@std@@QEAA@AEAHAEBV?$function@$$A6AXHH@Z@1@@Z ; std::pair<int const ,std::function<void __cdecl(int,int)> >::pair<int const ,std::function<void __cdecl(int,int)> ><int &,std::function<void __cdecl(int,int)> const &,0>
PUBLIC	??$?0AEAHV?$function@$$A6AXHH@Z@std@@$0A@@?$pair@$$CBHV?$function@$$A6AXHH@Z@std@@@std@@QEAA@AEAH$$QEAV?$function@$$A6AXHH@Z@1@@Z ; std::pair<int const ,std::function<void __cdecl(int,int)> >::pair<int const ,std::function<void __cdecl(int,int)> ><int &,std::function<void __cdecl(int,int)>,0>
PUBLIC	??$?0U_Exact_args_t@std@@AEBU?$_Ph@$01@1@$$V$0A@@?$tuple@U?$_Ph@$01@std@@@std@@QEAA@U_Exact_args_t@1@AEBU?$_Ph@$01@1@@Z ; std::tuple<std::_Ph<2> >::tuple<std::_Ph<2> ><std::_Exact_args_t,std::_Ph<2> const &,0>
PUBLIC	??$?0AEBU?$_Ph@$00@std@@@?$_Tuple_val@U?$_Ph@$00@std@@@std@@QEAA@AEBU?$_Ph@$00@1@@Z ; std::_Tuple_val<std::_Ph<1> >::_Tuple_val<std::_Ph<1> ><std::_Ph<1> const &>
PUBLIC	??$?0U_Exact_args_t@std@@$0A@@?$tuple@$$V@std@@QEAA@U_Exact_args_t@1@@Z ; std::tuple<>::tuple<><std::_Exact_args_t,0>
PUBLIC	??$?0AEBU?$_Ph@$01@std@@@?$_Tuple_val@U?$_Ph@$01@std@@@std@@QEAA@AEBU?$_Ph@$01@1@@Z ; std::_Tuple_val<std::_Ph<2> >::_Tuple_val<std::_Ph<2> ><std::_Ph<2> const &>
PUBLIC	??$move@AEAV?$function@$$A6AXHH@Z@std@@@std@@YA$$QEAV?$function@$$A6AXHH@Z@0@AEAV10@@Z ; std::move<std::function<void __cdecl(int,int)> &>
PUBLIC	??$?0HH$0A@@?$tuple@$$QEAH$$QEAH@std@@QEAA@$$QEAH0@Z ; std::tuple<int &&,int &&>::tuple<int &&,int &&><int,int,0>
PUBLIC	??$?0U_Exact_args_t@std@@HH$0A@@?$tuple@$$QEAH$$QEAH@std@@QEAA@U_Exact_args_t@1@$$QEAH1@Z ; std::tuple<int &&,int &&>::tuple<int &&,int &&><std::_Exact_args_t,int,int,0>
PUBLIC	??$?0U_Exact_args_t@std@@H$$V$0A@@?$tuple@$$QEAH@std@@QEAA@U_Exact_args_t@1@$$QEAH@Z ; std::tuple<int &&>::tuple<int &&><std::_Exact_args_t,int,0>
PUBLIC	??$?0H@?$_Tuple_val@$$QEAH@std@@QEAA@$$QEAH@Z	; std::_Tuple_val<int &&>::_Tuple_val<int &&><int>
PUBLIC	__JustMyCode_Default
PUBLIC	??_7exception@std@@6B@				; std::exception::`vftable'
PUBLIC	??_C@_0BC@EOODALEL@Unknown?5exception@		; `string'
PUBLIC	??_7bad_alloc@std@@6B@				; std::bad_alloc::`vftable'
PUBLIC	??_7bad_array_new_length@std@@6B@		; std::bad_array_new_length::`vftable'
PUBLIC	??_C@_0BF@KINCDENJ@bad?5array?5new?5length@	; `string'
PUBLIC	_TI3?AVbad_array_new_length@std@@
PUBLIC	_CTA3?AVbad_array_new_length@std@@
PUBLIC	??_R0?AVbad_array_new_length@std@@@8		; std::bad_array_new_length `RTTI Type Descriptor'
PUBLIC	_CT??_R0?AVbad_array_new_length@std@@@8??0bad_array_new_length@std@@QEAA@AEBV01@@Z24
PUBLIC	??_R0?AVbad_alloc@std@@@8			; std::bad_alloc `RTTI Type Descriptor'
PUBLIC	_CT??_R0?AVbad_alloc@std@@@8??0bad_alloc@std@@QEAA@AEBV01@@Z24
PUBLIC	??_R0?AVexception@std@@@8			; std::exception `RTTI Type Descriptor'
PUBLIC	_CT??_R0?AVexception@std@@@8??0exception@std@@QEAA@AEBV01@@Z24
PUBLIC	?__LINE__Var@?0??_Adjust_manually_vector_aligned@std@@YAXAEAPEAXAEA_K@Z@4JA ; `std::_Adjust_manually_vector_aligned'::`1'::__LINE__Var
PUBLIC	??_C@_0BB@FCMFBGOM@invalid?5argument@		; `string'
PUBLIC	??_C@_02DKCKIIND@?$CFs@				; `string'
PUBLIC	??_C@_0GJ@ICFCEKIN@C?3?2Program?5Files?5?$CIx86?$CJ?2Microsof@ ; `string'
PUBLIC	??_C@_1NC@MGDJFDEK@?$AAC?$AA?3?$AA?2?$AAP?$AAr?$AAo?$AAg?$AAr?$AAa?$AAm?$AA?5?$AAF?$AAi?$AAl?$AAe@ ; `string'
PUBLIC	??_C@_1EK@NIFDJFDG@?$AAs?$AAt?$AAd?$AA?3?$AA?3?$AA_?$AAA?$AAd?$AAj?$AAu?$AAs?$AAt?$AA_?$AAm?$AAa@ ; `string'
PUBLIC	??_C@_1CG@JNLFBNGN@?$AA?$CC?$AAi?$AAn?$AAv?$AAa?$AAl?$AAi?$AAd?$AA?5?$AAa?$AAr?$AAg?$AAu?$AAm?$AAe@ ; `string'
PUBLIC	??_C@_0BJ@LFDBABJJ@ITERATOR?5LIST?5CORRUPTED?$CB@ ; `string'
PUBLIC	??_C@_1EE@KLDMFDFL@?$AAs?$AAt?$AAd?$AA?3?$AA?3?$AA_?$AAI?$AAt?$AAe?$AAr?$AAa?$AAt?$AAo?$AAr?$AA_@ ; `string'
PUBLIC	??_C@_1DG@PLBPCAEM@?$AA?$CC?$AAI?$AAT?$AAE?$AAR?$AAA?$AAT?$AAO?$AAR?$AA?5?$AAL?$AAI?$AAS?$AAT?$AA?5@ ; `string'
PUBLIC	??_C@_0BB@GCADKGJO@map?1set?5too?5long@		; `string'
PUBLIC	?_1@placeholders@std@@3U?$_Ph@$00@2@B		; std::placeholders::_1
PUBLIC	?_2@placeholders@std@@3U?$_Ph@$01@2@B		; std::placeholders::_2
PUBLIC	??_C@_02KEGNLNML@?0?5@				; `string'
PUBLIC	??_C@_08KENNBKDJ@a?5?$CL?5b?3?$DN?5@		; `string'
PUBLIC	??_C@_0GK@FAHAKJIH@C?3?2Program?5Files?5?$CIx86?$CJ?2Microsof@ ; `string'
PUBLIC	??_C@_1NE@PFDEEMPK@?$AAC?$AA?3?$AA?2?$AAP?$AAr?$AAo?$AAg?$AAr?$AAa?$AAm?$AA?5?$AAF?$AAi?$AAl?$AAe@ ; `string'
PUBLIC	??_7?$_Func_impl_no_alloc@P6AXHH@ZXHH@std@@6B@	; std::_Func_impl_no_alloc<void (__cdecl*)(int,int),void,int,int>::`vftable'
PUBLIC	??_C@_1EO@GFNCMDLA@?$AAs?$AAt?$AAd?$AA?3?$AA?3?$AA_?$AAA?$AAl?$AAl?$AAo?$AAc?$AAa?$AAt?$AAe?$AA_@ ; `string'
PUBLIC	??_R0P6AXHH@Z@8					; void (__cdecl*)(int,int) `RTTI Type Descriptor'
PUBLIC	??_C@_0BD@FEEMDEPI@invalid?5comparator@		; `string'
PUBLIC	??_C@_1CI@JONCLBEJ@?$AAs?$AAt?$AAd?$AA?3?$AA?3?$AA_?$AAD?$AAe?$AAb?$AAu?$AAg?$AA_?$AAl?$AAt?$AA_@ ; `string'
PUBLIC	??_C@_1CK@NDNHPKPI@?$AA?$CC?$AAi?$AAn?$AAv?$AAa?$AAl?$AAi?$AAd?$AA?5?$AAc?$AAo?$AAm?$AAp?$AAa?$AAr@ ; `string'
PUBLIC	??_R4exception@std@@6B@				; std::exception::`RTTI Complete Object Locator'
PUBLIC	??_R3exception@std@@8				; std::exception::`RTTI Class Hierarchy Descriptor'
PUBLIC	??_R2exception@std@@8				; std::exception::`RTTI Base Class Array'
PUBLIC	??_R1A@?0A@EA@exception@std@@8			; std::exception::`RTTI Base Class Descriptor at (0,-1,0,64)'
PUBLIC	??_R4bad_alloc@std@@6B@				; std::bad_alloc::`RTTI Complete Object Locator'
PUBLIC	??_R3bad_alloc@std@@8				; std::bad_alloc::`RTTI Class Hierarchy Descriptor'
PUBLIC	??_R2bad_alloc@std@@8				; std::bad_alloc::`RTTI Base Class Array'
PUBLIC	??_R1A@?0A@EA@bad_alloc@std@@8			; std::bad_alloc::`RTTI Base Class Descriptor at (0,-1,0,64)'
PUBLIC	??_R4bad_array_new_length@std@@6B@		; std::bad_array_new_length::`RTTI Complete Object Locator'
PUBLIC	??_R3bad_array_new_length@std@@8		; std::bad_array_new_length::`RTTI Class Hierarchy Descriptor'
PUBLIC	??_R2bad_array_new_length@std@@8		; std::bad_array_new_length::`RTTI Base Class Array'
PUBLIC	??_R1A@?0A@EA@bad_array_new_length@std@@8	; std::bad_array_new_length::`RTTI Base Class Descriptor at (0,-1,0,64)'
PUBLIC	??_R0?AV?$_Func_base@XHH@std@@@8		; std::_Func_base<void,int,int> `RTTI Type Descriptor'
PUBLIC	??_R3?$_Func_base@XHH@std@@8			; std::_Func_base<void,int,int>::`RTTI Class Hierarchy Descriptor'
PUBLIC	??_R2?$_Func_base@XHH@std@@8			; std::_Func_base<void,int,int>::`RTTI Base Class Array'
PUBLIC	??_R1A@?0A@EA@?$_Func_base@XHH@std@@8		; std::_Func_base<void,int,int>::`RTTI Base Class Descriptor at (0,-1,0,64)'
PUBLIC	??_R4?$_Func_impl_no_alloc@P6AXHH@ZXHH@std@@6B@	; std::_Func_impl_no_alloc<void (__cdecl*)(int,int),void,int,int>::`RTTI Complete Object Locator'
PUBLIC	??_R0?AV?$_Func_impl_no_alloc@P6AXHH@ZXHH@std@@@8 ; std::_Func_impl_no_alloc<void (__cdecl*)(int,int),void,int,int> `RTTI Type Descriptor'
PUBLIC	??_R3?$_Func_impl_no_alloc@P6AXHH@ZXHH@std@@8	; std::_Func_impl_no_alloc<void (__cdecl*)(int,int),void,int,int>::`RTTI Class Hierarchy Descriptor'
PUBLIC	??_R2?$_Func_impl_no_alloc@P6AXHH@ZXHH@std@@8	; std::_Func_impl_no_alloc<void (__cdecl*)(int,int),void,int,int>::`RTTI Base Class Array'
PUBLIC	??_R1A@?0A@EA@?$_Func_impl_no_alloc@P6AXHH@ZXHH@std@@8 ; std::_Func_impl_no_alloc<void (__cdecl*)(int,int),void,int,int>::`RTTI Base Class Descriptor at (0,-1,0,64)'
EXTRN	??2@YAPEAX_K@Z:PROC				; operator new
EXTRN	??3@YAXPEAX_K@Z:PROC				; operator delete
EXTRN	__imp__invalid_parameter:PROC
EXTRN	__imp__CrtDbgReport:PROC
EXTRN	__imp_??0_Lockit@std@@QEAA@H@Z:PROC
EXTRN	__imp_??1_Lockit@std@@QEAA@XZ:PROC
EXTRN	?uncaught_exception@std@@YA_NXZ:PROC		; std::uncaught_exception
EXTRN	__std_exception_copy:PROC
EXTRN	__std_exception_destroy:PROC
EXTRN	??_Eexception@std@@UEAAPEAXI@Z:PROC		; std::exception::`vector deleting destructor'
EXTRN	??_Ebad_alloc@std@@UEAAPEAXI@Z:PROC		; std::bad_alloc::`vector deleting destructor'
EXTRN	??_Ebad_array_new_length@std@@UEAAPEAXI@Z:PROC	; std::bad_array_new_length::`vector deleting destructor'
EXTRN	?_Xlength_error@std@@YAXPEBD@Z:PROC		; std::_Xlength_error
EXTRN	__imp_?good@ios_base@std@@QEBA_NXZ:PROC
EXTRN	__imp_?flags@ios_base@std@@QEBAHXZ:PROC
EXTRN	__imp_?width@ios_base@std@@QEBA_JXZ:PROC
EXTRN	__imp_?width@ios_base@std@@QEAA_J_J@Z:PROC
EXTRN	__imp_?sputc@?$basic_streambuf@DU?$char_traits@D@std@@@std@@QEAAHD@Z:PROC
EXTRN	__imp_?sputn@?$basic_streambuf@DU?$char_traits@D@std@@@std@@QEAA_JPEBD_J@Z:PROC
EXTRN	__imp_?setstate@?$basic_ios@DU?$char_traits@D@std@@@std@@QEAAXH_N@Z:PROC
EXTRN	__imp_?tie@?$basic_ios@DU?$char_traits@D@std@@@std@@QEBAPEAV?$basic_ostream@DU?$char_traits@D@std@@@2@XZ:PROC
EXTRN	__imp_?rdbuf@?$basic_ios@DU?$char_traits@D@std@@@std@@QEBAPEAV?$basic_streambuf@DU?$char_traits@D@std@@@2@XZ:PROC
EXTRN	__imp_?fill@?$basic_ios@DU?$char_traits@D@std@@@std@@QEBADXZ:PROC
EXTRN	__imp_?widen@?$basic_ios@DU?$char_traits@D@std@@@std@@QEBADD@Z:PROC
EXTRN	__imp_?_Osfx@?$basic_ostream@DU?$char_traits@D@std@@@std@@QEAAXXZ:PROC
EXTRN	__imp_??6?$basic_ostream@DU?$char_traits@D@std@@@std@@QEAAAEAV01@P6AAEAV01@AEAV01@@Z@Z:PROC
EXTRN	__imp_??6?$basic_ostream@DU?$char_traits@D@std@@@std@@QEAAAEAV01@H@Z:PROC
EXTRN	__imp_?put@?$basic_ostream@DU?$char_traits@D@std@@@std@@QEAAAEAV12@D@Z:PROC
EXTRN	__imp_?flush@?$basic_ostream@DU?$char_traits@D@std@@@std@@QEAAAEAV12@XZ:PROC
EXTRN	?_Xbad_function_call@std@@YAXXZ:PROC		; std::_Xbad_function_call
EXTRN	_CxxThrowException:PROC
EXTRN	_RTC_CheckStackVars:PROC
EXTRN	_RTC_InitBase:PROC
EXTRN	_RTC_Shutdown:PROC
EXTRN	__CheckForDebuggerJustMyCode:PROC
EXTRN	__CxxFrameHandler4:PROC
EXTRN	__GSHandlerCheck:PROC
EXTRN	__GSHandlerCheck_EH4:PROC
EXTRN	__security_check_cookie:PROC
EXTRN	??_7type_info@@6B@:BYTE				; type_info::`vftable'
EXTRN	__imp_?cout@std@@3V?$basic_ostream@DU?$char_traits@D@std@@@1@A:BYTE
EXTRN	__security_cookie:QWORD
;	COMDAT pdata
pdata	SEGMENT
$pdata$?__empty_global_delete@@YAXPEAX@Z DD imagerel $LN3
	DD	imagerel $LN3+65
	DD	imagerel $unwind$?__empty_global_delete@@YAXPEAX@Z
pdata	ENDS
;	COMDAT pdata
pdata	SEGMENT
$pdata$?__empty_global_delete@@YAXPEAX_K@Z DD imagerel $LN3
	DD	imagerel $LN3+70
	DD	imagerel $unwind$?__empty_global_delete@@YAXPEAX_K@Z
pdata	ENDS
;	COMDAT pdata
pdata	SEGMENT
$pdata$?__empty_global_delete@@YAXPEAXW4align_val_t@std@@@Z DD imagerel $LN3
	DD	imagerel $LN3+70
	DD	imagerel $unwind$?__empty_global_delete@@YAXPEAXW4align_val_t@std@@@Z
pdata	ENDS
;	COMDAT pdata
pdata	SEGMENT
$pdata$?__empty_global_delete@@YAXPEAX_KW4align_val_t@std@@@Z DD imagerel $LN3
	DD	imagerel $LN3+75
	DD	imagerel $unwind$?__empty_global_delete@@YAXPEAX_KW4align_val_t@std@@@Z
pdata	ENDS
;	COMDAT pdata
pdata	SEGMENT
$pdata$??2@YAPEAX_KPEAX@Z DD imagerel $LN3
	DD	imagerel $LN3+77
	DD	imagerel $unwind$??2@YAPEAX_KPEAX@Z
pdata	ENDS
;	COMDAT pdata
pdata	SEGMENT
$pdata$??0exception@std@@QEAA@QEBDH@Z DD imagerel $LN3
	DD	imagerel $LN3+140
	DD	imagerel $unwind$??0exception@std@@QEAA@QEBDH@Z
pdata	ENDS
;	COMDAT pdata
pdata	SEGMENT
$pdata$??0exception@std@@QEAA@AEBV01@@Z DD imagerel $LN3
	DD	imagerel $LN3+148
	DD	imagerel $unwind$??0exception@std@@QEAA@AEBV01@@Z
pdata	ENDS
;	COMDAT pdata
pdata	SEGMENT
$pdata$??1exception@std@@UEAA@XZ DD imagerel $LN3
	DD	imagerel $LN3+102
	DD	imagerel $unwind$??1exception@std@@UEAA@XZ
pdata	ENDS
;	COMDAT pdata
pdata	SEGMENT
$pdata$?what@exception@std@@UEBAPEBDXZ DD imagerel $LN5
	DD	imagerel $LN5+119
	DD	imagerel $unwind$?what@exception@std@@UEBAPEBDXZ
pdata	ENDS
;	COMDAT pdata
pdata	SEGMENT
$pdata$??_Gexception@std@@UEAAPEAXI@Z DD imagerel $LN4
	DD	imagerel $LN4+105
	DD	imagerel $unwind$??_Gexception@std@@UEAAPEAXI@Z
pdata	ENDS
;	COMDAT pdata
pdata	SEGMENT
$pdata$??0bad_alloc@std@@AEAA@QEBD@Z DD imagerel $LN3
	DD	imagerel $LN3+120
	DD	imagerel $unwind$??0bad_alloc@std@@AEAA@QEBD@Z
pdata	ENDS
;	COMDAT pdata
pdata	SEGMENT
$pdata$??1bad_alloc@std@@UEAA@XZ DD imagerel $LN3
	DD	imagerel $LN3+64
	DD	imagerel $unwind$??1bad_alloc@std@@UEAA@XZ
pdata	ENDS
;	COMDAT pdata
pdata	SEGMENT
$pdata$??0bad_alloc@std@@QEAA@AEBV01@@Z DD imagerel $LN3
	DD	imagerel $LN3+100
	DD	imagerel $unwind$??0bad_alloc@std@@QEAA@AEBV01@@Z
pdata	ENDS
;	COMDAT pdata
pdata	SEGMENT
$pdata$??_Gbad_alloc@std@@UEAAPEAXI@Z DD imagerel $LN4
	DD	imagerel $LN4+105
	DD	imagerel $unwind$??_Gbad_alloc@std@@UEAAPEAXI@Z
pdata	ENDS
;	COMDAT pdata
pdata	SEGMENT
$pdata$??0bad_array_new_length@std@@QEAA@XZ DD imagerel $LN3
	DD	imagerel $LN3+109
	DD	imagerel $unwind$??0bad_array_new_length@std@@QEAA@XZ
pdata	ENDS
;	COMDAT pdata
pdata	SEGMENT
$pdata$??1bad_array_new_length@std@@UEAA@XZ DD imagerel $LN3
	DD	imagerel $LN3+64
	DD	imagerel $unwind$??1bad_array_new_length@std@@UEAA@XZ
pdata	ENDS
;	COMDAT pdata
pdata	SEGMENT
$pdata$??0bad_array_new_length@std@@QEAA@AEBV01@@Z DD imagerel $LN3
	DD	imagerel $LN3+100
	DD	imagerel $unwind$??0bad_array_new_length@std@@QEAA@AEBV01@@Z
pdata	ENDS
;	COMDAT pdata
pdata	SEGMENT
$pdata$??_Gbad_array_new_length@std@@UEAAPEAXI@Z DD imagerel $LN4
	DD	imagerel $LN4+105
	DD	imagerel $unwind$??_Gbad_array_new_length@std@@UEAAPEAXI@Z
pdata	ENDS
;	COMDAT pdata
pdata	SEGMENT
$pdata$?_Throw_bad_array_new_length@std@@YAXXZ DD imagerel $LN3
	DD	imagerel $LN3+83
	DD	imagerel $unwind$?_Throw_bad_array_new_length@std@@YAXXZ
pdata	ENDS
;	COMDAT pdata
pdata	SEGMENT
$pdata$??0?$tuple@$$V@std@@QEAA@AEBV01@@Z DD imagerel $LN3
	DD	imagerel $LN3+77
	DD	imagerel $unwind$??0?$tuple@$$V@std@@QEAA@AEBV01@@Z
pdata	ENDS
;	COMDAT pdata
pdata	SEGMENT
$pdata$?max@?$numeric_limits@_J@std@@SA_JXZ DD imagerel $LN3
	DD	imagerel $LN3+63
	DD	imagerel $unwind$?max@?$numeric_limits@_J@std@@SA_JXZ
pdata	ENDS
;	COMDAT pdata
pdata	SEGMENT
$pdata$?_Allocate@_Default_allocate_traits@std@@SAPEAX_K@Z DD imagerel $LN3
	DD	imagerel $LN3+76
	DD	imagerel $unwind$?_Allocate@_Default_allocate_traits@std@@SAPEAX_K@Z
pdata	ENDS
;	COMDAT pdata
pdata	SEGMENT
$pdata$?_Adjust_manually_vector_aligned@std@@YAXAEAPEAXAEA_K@Z DD imagerel $LN21
	DD	imagerel $LN21+476
	DD	imagerel $unwind$?_Adjust_manually_vector_aligned@std@@YAXAEAPEAXAEA_K@Z
pdata	ENDS
;	COMDAT pdata
pdata	SEGMENT
$pdata$?_Adopt@_Iterator_base0@std@@QEAAXPEBX@Z DD imagerel $LN3
	DD	imagerel $LN3+70
	DD	imagerel $unwind$?_Adopt@_Iterator_base0@std@@QEAAXPEBX@Z
pdata	ENDS
;	COMDAT pdata
pdata	SEGMENT
$pdata$??0_Container_proxy@std@@QEAA@PEAU_Container_base12@1@@Z DD imagerel $LN3
	DD	imagerel $LN3+109
	DD	imagerel $unwind$??0_Container_proxy@std@@QEAA@PEAU_Container_base12@1@@Z
pdata	ENDS
;	COMDAT pdata
pdata	SEGMENT
$pdata$??0_Container_base12@std@@QEAA@XZ DD imagerel $LN3
	DD	imagerel $LN3+85
	DD	imagerel $unwind$??0_Container_base12@std@@QEAA@XZ
pdata	ENDS
;	COMDAT pdata
pdata	SEGMENT
$pdata$?_Orphan_all@_Container_base12@std@@QEAAXXZ DD imagerel $LN7
	DD	imagerel $LN7+237
	DD	imagerel $unwind$?_Orphan_all@_Container_base12@std@@QEAAXXZ
pdata	ENDS
;	COMDAT pdata
pdata	SEGMENT
$pdata$??$_Construct_in_place@U_Container_proxy@std@@PEAU_Container_base12@2@@std@@YAXAEAU_Container_proxy@0@$$QEAPEAU_Container_base12@0@@Z DD imagerel $LN3
	DD	imagerel $LN3+147
	DD	imagerel $unwind$??$_Construct_in_place@U_Container_proxy@std@@PEAU_Container_base12@2@@std@@YAXAEAU_Container_proxy@0@$$QEAPEAU_Container_base12@0@@Z
pdata	ENDS
;	COMDAT pdata
pdata	SEGMENT
$pdata$??0_Iterator_base12@std@@QEAA@XZ DD imagerel $LN3
	DD	imagerel $LN3+101
	DD	imagerel $unwind$??0_Iterator_base12@std@@QEAA@XZ
pdata	ENDS
;	COMDAT pdata
pdata	SEGMENT
$pdata$??0_Iterator_base12@std@@QEAA@AEBU01@@Z DD imagerel $LN3
	DD	imagerel $LN3+126
	DD	imagerel $unwind$??0_Iterator_base12@std@@QEAA@AEBU01@@Z
pdata	ENDS
;	COMDAT pdata
pdata	SEGMENT
$pdata$??4_Iterator_base12@std@@QEAAAEAU01@AEBU01@@Z DD imagerel $LN6
	DD	imagerel $LN6+236
	DD	imagerel $unwind$??4_Iterator_base12@std@@QEAAAEAU01@AEBU01@@Z
pdata	ENDS
;	COMDAT pdata
pdata	SEGMENT
$pdata$??1_Iterator_base12@std@@QEAA@XZ DD imagerel $LN3
	DD	imagerel $LN3+155
	DD	imagerel $unwind$??1_Iterator_base12@std@@QEAA@XZ
pdata	ENDS
;	COMDAT pdata
pdata	SEGMENT
$pdata$?_Adopt@_Iterator_base12@std@@QEAAXPEBU_Container_base12@2@@Z DD imagerel $LN6
	DD	imagerel $LN6+290
	DD	imagerel $unwind$?_Adopt@_Iterator_base12@std@@QEAAXPEBU_Container_base12@2@@Z
pdata	ENDS
;	COMDAT pdata
pdata	SEGMENT
$pdata$?_Orphan_me@_Iterator_base12@std@@QEAAXXZ DD imagerel $LN15
	DD	imagerel $LN15+302
	DD	imagerel $unwind$?_Orphan_me@_Iterator_base12@std@@QEAAXXZ
pdata	ENDS
;	COMDAT pdata
pdata	SEGMENT
$pdata$?_Release@_Basic_container_proxy_ptr12@std@@QEAAXXZ DD imagerel $LN3
	DD	imagerel $LN3+79
	DD	imagerel $unwind$?_Release@_Basic_container_proxy_ptr12@std@@QEAAXXZ
pdata	ENDS
;	COMDAT pdata
pdata	SEGMENT
$pdata$??$addressof@U_Container_base12@std@@@std@@YAPEAU_Container_base12@0@AEAU10@@Z DD imagerel $LN3
	DD	imagerel $LN3+72
	DD	imagerel $unwind$??$addressof@U_Container_base12@std@@@std@@YAPEAU_Container_base12@0@AEAU10@@Z
pdata	ENDS
;	COMDAT pdata
pdata	SEGMENT
$pdata$?_Throw_tree_length_error@std@@YAXXZ DD imagerel $LN3
	DD	imagerel $LN3+64
	DD	imagerel $unwind$?_Throw_tree_length_error@std@@YAXXZ
pdata	ENDS
;	COMDAT pdata
pdata	SEGMENT
$pdata$?length@?$_Narrow_char_traits@DH@std@@SA_KQEBD@Z DD imagerel $LN4
	DD	imagerel $LN4+124
	DD	imagerel $unwind$?length@?$_Narrow_char_traits@DH@std@@SA_KQEBD@Z
pdata	ENDS
;	COMDAT pdata
pdata	SEGMENT
$pdata$?eq_int_type@?$_Narrow_char_traits@DH@std@@SA_NAEBH0@Z DD imagerel $LN5
	DD	imagerel $LN5+119
	DD	imagerel $unwind$?eq_int_type@?$_Narrow_char_traits@DH@std@@SA_NAEBH0@Z
pdata	ENDS
;	COMDAT pdata
pdata	SEGMENT
$pdata$?eof@?$_Narrow_char_traits@DH@std@@SAHXZ DD imagerel $LN3
	DD	imagerel $LN3+58
	DD	imagerel $unwind$?eof@?$_Narrow_char_traits@DH@std@@SAHXZ
pdata	ENDS
;	COMDAT pdata
pdata	SEGMENT
$pdata$??$_Min_value@_K@std@@YAAEB_KAEB_K0@Z DD imagerel $LN5
	DD	imagerel $LN5+143
	DD	imagerel $unwind$??$_Min_value@_K@std@@YAAEB_KAEB_K0@Z
pdata	ENDS
;	COMDAT pdata
pdata	SEGMENT
$pdata$?event_foo@@YAXXZ DD imagerel $LN7
	DD	imagerel $LN7+411
	DD	imagerel $unwind$?event_foo@@YAXXZ
pdata	ENDS
;	COMDAT pdata
pdata	SEGMENT
$pdata$?dtor$0@?0??event_foo@@YAXXZ@4HA DD imagerel ?dtor$0@?0??event_foo@@YAXXZ@4HA
	DD	imagerel ?dtor$0@?0??event_foo@@YAXXZ@4HA+36
	DD	imagerel $unwind$?dtor$0@?0??event_foo@@YAXXZ@4HA
pdata	ENDS
;	COMDAT pdata
pdata	SEGMENT
$pdata$?dtor$1@?0??event_foo@@YAXXZ@4HA DD imagerel ?dtor$1@?0??event_foo@@YAXXZ@4HA
	DD	imagerel ?dtor$1@?0??event_foo@@YAXXZ@4HA+39
	DD	imagerel $unwind$?dtor$1@?0??event_foo@@YAXXZ@4HA
pdata	ENDS
;	COMDAT pdata
pdata	SEGMENT
$pdata$?dtor$2@?0??event_foo@@YAXXZ@4HA DD imagerel ?dtor$2@?0??event_foo@@YAXXZ@4HA
	DD	imagerel ?dtor$2@?0??event_foo@@YAXXZ@4HA+39
	DD	imagerel $unwind$?dtor$2@?0??event_foo@@YAXXZ@4HA
pdata	ENDS
;	COMDAT pdata
pdata	SEGMENT
$pdata$?dtor$3@?0??event_foo@@YAXXZ@4HA DD imagerel ?dtor$3@?0??event_foo@@YAXXZ@4HA
	DD	imagerel ?dtor$3@?0??event_foo@@YAXXZ@4HA+39
	DD	imagerel $unwind$?dtor$3@?0??event_foo@@YAXXZ@4HA
pdata	ENDS
;	COMDAT pdata
pdata	SEGMENT
$pdata$?print@stA@?A0x4e02d121@@QEAAXHH@Z DD imagerel ?print@stA@?A0x4e02d121@@QEAAXHH@Z
	DD	imagerel ?print@stA@?A0x4e02d121@@QEAAXHH@Z+160
	DD	imagerel $unwind$?print@stA@?A0x4e02d121@@QEAAXHH@Z
pdata	ENDS
;	COMDAT pdata
pdata	SEGMENT
$pdata$??$?6U?$char_traits@D@std@@@std@@YAAEAV?$basic_ostream@DU?$char_traits@D@std@@@0@AEAV10@PEBD@Z DD imagerel $LN25
	DD	imagerel $LN25+1124
	DD	imagerel $unwind$??$?6U?$char_traits@D@std@@@std@@YAAEAV?$basic_ostream@DU?$char_traits@D@std@@@0@AEAV10@PEBD@Z
pdata	ENDS
;	COMDAT pdata
pdata	SEGMENT
$pdata$?dtor$0@?0???$?6U?$char_traits@D@std@@@std@@YAAEAV?$basic_ostream@DU?$char_traits@D@std@@@0@AEAV10@PEBD@Z@4HA DD imagerel ?dtor$0@?0???$?6U?$char_traits@D@std@@@std@@YAAEAV?$basic_ostream@DU?$char_traits@D@std@@@0@AEAV10@PEBD@Z@4HA
	DD	imagerel ?dtor$0@?0???$?6U?$char_traits@D@std@@@std@@YAAEAV?$basic_ostream@DU?$char_traits@D@std@@@0@AEAV10@PEBD@Z@4HA+36
	DD	imagerel $unwind$?dtor$0@?0???$?6U?$char_traits@D@std@@@std@@YAAEAV?$basic_ostream@DU?$char_traits@D@std@@@0@AEAV10@PEBD@Z@4HA
pdata	ENDS
;	COMDAT pdata
pdata	SEGMENT
$pdata$?catch$1@?0???$?6U?$char_traits@D@std@@@std@@YAAEAV?$basic_ostream@DU?$char_traits@D@std@@@0@AEAV10@PEBD@Z@4HA DD imagerel ?catch$1@?0???$?6U?$char_traits@D@std@@@std@@YAAEAV?$basic_ostream@DU?$char_traits@D@std@@@0@AEAV10@PEBD@Z@4HA
	DD	imagerel ?catch$1@?0???$?6U?$char_traits@D@std@@@std@@YAAEAV?$basic_ostream@DU?$char_traits@D@std@@@0@AEAV10@PEBD@Z@4HA+91
	DD	imagerel $unwind$?catch$1@?0???$?6U?$char_traits@D@std@@@std@@YAAEAV?$basic_ostream@DU?$char_traits@D@std@@@0@AEAV10@PEBD@Z@4HA
pdata	ENDS
;	COMDAT pdata
pdata	SEGMENT
$pdata$??$endl@DU?$char_traits@D@std@@@std@@YAAEAV?$basic_ostream@DU?$char_traits@D@std@@@0@AEAV10@@Z DD imagerel $LN3
	DD	imagerel $LN3+149
	DD	imagerel $unwind$??$endl@DU?$char_traits@D@std@@@std@@YAAEAV?$basic_ostream@DU?$char_traits@D@std@@@0@AEAV10@@Z
pdata	ENDS
;	COMDAT pdata
pdata	SEGMENT
$pdata$?print@?A0x4e02d121@@YAXHH@Z DD imagerel ?print@?A0x4e02d121@@YAXHH@Z
	DD	imagerel ?print@?A0x4e02d121@@YAXHH@Z+153
	DD	imagerel $unwind$?print@?A0x4e02d121@@YAXHH@Z
pdata	ENDS
;	COMDAT pdata
pdata	SEGMENT
$pdata$??0?$Events@V?$function@$$A6AXHH@Z@std@@@@QEAA@XZ DD imagerel $LN4
	DD	imagerel $LN4+103
	DD	imagerel $unwind$??0?$Events@V?$function@$$A6AXHH@Z@std@@@@QEAA@XZ
pdata	ENDS
;	COMDAT pdata
pdata	SEGMENT
$pdata$??1?$Events@V?$function@$$A6AXHH@Z@std@@@@QEAA@XZ DD imagerel $LN3
	DD	imagerel $LN3+85
	DD	imagerel $unwind$??1?$Events@V?$function@$$A6AXHH@Z@std@@@@QEAA@XZ
pdata	ENDS
;	COMDAT pdata
pdata	SEGMENT
$pdata$?Connector@?$Events@V?$function@$$A6AXHH@Z@std@@@@QEAAH$$QEAV?$function@$$A6AXHH@Z@std@@@Z DD imagerel $LN3
	DD	imagerel $LN3+96
	DD	imagerel $unwind$?Connector@?$Events@V?$function@$$A6AXHH@Z@std@@@@QEAAH$$QEAV?$function@$$A6AXHH@Z@std@@@Z
pdata	ENDS
;	COMDAT pdata
pdata	SEGMENT
$pdata$?Connector@?$Events@V?$function@$$A6AXHH@Z@std@@@@QEAAHAEBV?$function@$$A6AXHH@Z@std@@@Z DD imagerel $LN3
	DD	imagerel $LN3+88
	DD	imagerel $unwind$?Connector@?$Events@V?$function@$$A6AXHH@Z@std@@@@QEAAHAEBV?$function@$$A6AXHH@Z@std@@@Z
pdata	ENDS
;	COMDAT pdata
pdata	SEGMENT
$pdata$??0?$allocator@U?$_Tree_node@U?$pair@$$CBHV?$function@$$A6AXHH@Z@std@@@std@@PEAX@std@@@std@@QEAA@XZ DD imagerel $LN3
	DD	imagerel $LN3+72
	DD	imagerel $unwind$??0?$allocator@U?$_Tree_node@U?$pair@$$CBHV?$function@$$A6AXHH@Z@std@@@std@@PEAX@std@@@std@@QEAA@XZ
pdata	ENDS
;	COMDAT pdata
pdata	SEGMENT
$pdata$?deallocate@?$allocator@U?$_Tree_node@U?$pair@$$CBHV?$function@$$A6AXHH@Z@std@@@std@@PEAX@std@@@std@@QEAAXQEAU?$_Tree_node@U?$pair@$$CBHV?$function@$$A6AXHH@Z@std@@@std@@PEAX@2@_K@Z DD imagerel $LN3
	DD	imagerel $LN3+97
	DD	imagerel $unwind$?deallocate@?$allocator@U?$_Tree_node@U?$pair@$$CBHV?$function@$$A6AXHH@Z@std@@@std@@PEAX@std@@@std@@QEAAXQEAU?$_Tree_node@U?$pair@$$CBHV?$function@$$A6AXHH@Z@std@@@std@@PEAX@2@_K@Z
pdata	ENDS
;	COMDAT pdata
pdata	SEGMENT
$pdata$?allocate@?$allocator@U?$_Tree_node@U?$pair@$$CBHV?$function@$$A6AXHH@Z@std@@@std@@PEAX@std@@@std@@QEAAPEAU?$_Tree_node@U?$pair@$$CBHV?$function@$$A6AXHH@Z@std@@@std@@PEAX@2@_K@Z DD imagerel $LN3
	DD	imagerel $LN3+89
	DD	imagerel $unwind$?allocate@?$allocator@U?$_Tree_node@U?$pair@$$CBHV?$function@$$A6AXHH@Z@std@@@std@@PEAX@std@@@std@@QEAAPEAU?$_Tree_node@U?$pair@$$CBHV?$function@$$A6AXHH@Z@std@@@std@@PEAX@2@_K@Z
pdata	ENDS
;	COMDAT pdata
pdata	SEGMENT
$pdata$?deallocate@?$_Default_allocator_traits@V?$allocator@U?$_Tree_node@U?$pair@$$CBHV?$function@$$A6AXHH@Z@std@@@std@@PEAX@std@@@std@@@std@@SAXAEAV?$allocator@U?$_Tree_node@U?$pair@$$CBHV?$function@$$A6AXHH@Z@std@@@std@@PEAX@std@@@2@QEAU?$_Tree_node@U?$pair@$$CBHV?$function@$$A6AXHH@Z@std@@@std@@PEAX@2@_K@Z DD imagerel $LN3
	DD	imagerel $LN3+97
	DD	imagerel $unwind$?deallocate@?$_Default_allocator_traits@V?$allocator@U?$_Tree_node@U?$pair@$$CBHV?$function@$$A6AXHH@Z@std@@@std@@PEAX@std@@@std@@@std@@SAXAEAV?$allocator@U?$_Tree_node@U?$pair@$$CBHV?$function@$$A6AXHH@Z@std@@@std@@PEAX@std@@@2@QEAU?$_Tree_node@U?$pair@$$CBHV?$function@$$A6AXHH@Z@std@@@std@@PEAX@2@_K@Z
pdata	ENDS
;	COMDAT pdata
pdata	SEGMENT
$pdata$?max_size@?$_Default_allocator_traits@V?$allocator@U?$_Tree_node@U?$pair@$$CBHV?$function@$$A6AXHH@Z@std@@@std@@PEAX@std@@@std@@@std@@SA_KAEBV?$allocator@U?$_Tree_node@U?$pair@$$CBHV?$function@$$A6AXHH@Z@std@@@std@@PEAX@std@@@2@@Z DD imagerel $LN3
	DD	imagerel $LN3+75
	DD	imagerel $unwind$?max_size@?$_Default_allocator_traits@V?$allocator@U?$_Tree_node@U?$pair@$$CBHV?$function@$$A6AXHH@Z@std@@@std@@PEAX@std@@@std@@@std@@SA_KAEBV?$allocator@U?$_Tree_node@U?$pair@$$CBHV?$function@$$A6AXHH@Z@std@@@std@@PEAX@std@@@2@@Z
pdata	ENDS
;	COMDAT pdata
pdata	SEGMENT
$pdata$??0?$_Tree@V?$_Tmap_traits@HV?$function@$$A6AXHH@Z@std@@U?$less@H@2@V?$allocator@U?$pair@$$CBHV?$function@$$A6AXHH@Z@std@@@std@@@2@$0A@@std@@@std@@QEAA@AEBU?$less@H@1@@Z DD imagerel $LN3
	DD	imagerel $LN3+135
	DD	imagerel $unwind$??0?$_Tree@V?$_Tmap_traits@HV?$function@$$A6AXHH@Z@std@@U?$less@H@2@V?$allocator@U?$pair@$$CBHV?$function@$$A6AXHH@Z@std@@@std@@@2@$0A@@std@@@std@@QEAA@AEBU?$less@H@1@@Z
pdata	ENDS
;	COMDAT pdata
pdata	SEGMENT
$pdata$??1?$_Tree@V?$_Tmap_traits@HV?$function@$$A6AXHH@Z@std@@U?$less@H@2@V?$allocator@U?$pair@$$CBHV?$function@$$A6AXHH@Z@std@@@std@@@2@$0A@@std@@@std@@QEAA@XZ DD imagerel $LN3
	DD	imagerel $LN3+209
	DD	imagerel $unwind$??1?$_Tree@V?$_Tmap_traits@HV?$function@$$A6AXHH@Z@std@@U?$less@H@2@V?$allocator@U?$pair@$$CBHV?$function@$$A6AXHH@Z@std@@@std@@@2@$0A@@std@@@std@@QEAA@XZ
pdata	ENDS
;	COMDAT pdata
pdata	SEGMENT
$pdata$?_Unchecked_begin@?$_Tree@V?$_Tmap_traits@HV?$function@$$A6AXHH@Z@std@@U?$less@H@2@V?$allocator@U?$pair@$$CBHV?$function@$$A6AXHH@Z@std@@@std@@@2@$0A@@std@@@std@@QEAA?AV?$_Tree_unchecked_iterator@V?$_Tree_val@U?$_Tree_simple_types@U?$pair@$$CBHV?$function@$$A6AXHH@Z@std@@@std@@@std@@@std@@@2@XZ DD imagerel $LN3
	DD	imagerel $LN3+113
	DD	imagerel $unwind$?_Unchecked_begin@?$_Tree@V?$_Tmap_traits@HV?$function@$$A6AXHH@Z@std@@U?$less@H@2@V?$allocator@U?$pair@$$CBHV?$function@$$A6AXHH@Z@std@@@std@@@2@$0A@@std@@@std@@QEAA?AV?$_Tree_unchecked_iterator@V?$_Tree_val@U?$_Tree_simple_types@U?$pair@$$CBHV?$function@$$A6AXHH@Z@std@@@std@@@std@@@std@@@2@XZ
pdata	ENDS
;	COMDAT pdata
pdata	SEGMENT
$pdata$?_Unchecked_end@?$_Tree@V?$_Tmap_traits@HV?$function@$$A6AXHH@Z@std@@U?$less@H@2@V?$allocator@U?$pair@$$CBHV?$function@$$A6AXHH@Z@std@@@std@@@2@$0A@@std@@@std@@QEBA?AU_Default_sentinel@2@XZ DD imagerel $LN3
	DD	imagerel $LN3+100
	DD	imagerel $unwind$?_Unchecked_end@?$_Tree@V?$_Tmap_traits@HV?$function@$$A6AXHH@Z@std@@U?$less@H@2@V?$allocator@U?$pair@$$CBHV?$function@$$A6AXHH@Z@std@@@std@@@2@$0A@@std@@@std@@QEBA?AU_Default_sentinel@2@XZ
pdata	ENDS
;	COMDAT pdata
pdata	SEGMENT
$pdata$?max_size@?$_Tree@V?$_Tmap_traits@HV?$function@$$A6AXHH@Z@std@@U?$less@H@2@V?$allocator@U?$pair@$$CBHV?$function@$$A6AXHH@Z@std@@@std@@@2@$0A@@std@@@std@@QEBA_KXZ DD imagerel $LN3
	DD	imagerel $LN3+130
	DD	imagerel $unwind$?max_size@?$_Tree@V?$_Tmap_traits@HV?$function@$$A6AXHH@Z@std@@U?$less@H@2@V?$allocator@U?$pair@$$CBHV?$function@$$A6AXHH@Z@std@@@std@@@2@$0A@@std@@@std@@QEBA_KXZ
pdata	ENDS
;	COMDAT pdata
pdata	SEGMENT
$pdata$?_Check_grow_by_1@?$_Tree@V?$_Tmap_traits@HV?$function@$$A6AXHH@Z@std@@U?$less@H@2@V?$allocator@U?$pair@$$CBHV?$function@$$A6AXHH@Z@std@@@std@@@2@$0A@@std@@@std@@IEAAXXZ DD imagerel $LN4
	DD	imagerel $LN4+113
	DD	imagerel $unwind$?_Check_grow_by_1@?$_Tree@V?$_Tmap_traits@HV?$function@$$A6AXHH@Z@std@@U?$less@H@2@V?$allocator@U?$pair@$$CBHV?$function@$$A6AXHH@Z@std@@@std@@@2@$0A@@std@@@std@@IEAAXXZ
pdata	ENDS
;	COMDAT pdata
pdata	SEGMENT
$pdata$?_Alloc_sentinel_and_proxy@?$_Tree@V?$_Tmap_traits@HV?$function@$$A6AXHH@Z@std@@U?$less@H@2@V?$allocator@U?$pair@$$CBHV?$function@$$A6AXHH@Z@std@@@std@@@2@$0A@@std@@@std@@IEAAXXZ DD imagerel $LN4
	DD	imagerel $LN4+225
	DD	imagerel $unwind$?_Alloc_sentinel_and_proxy@?$_Tree@V?$_Tmap_traits@HV?$function@$$A6AXHH@Z@std@@U?$less@H@2@V?$allocator@U?$pair@$$CBHV?$function@$$A6AXHH@Z@std@@@std@@@2@$0A@@std@@@std@@IEAAXXZ
pdata	ENDS
;	COMDAT pdata
pdata	SEGMENT
$pdata$?dtor$0@?0??_Alloc_sentinel_and_proxy@?$_Tree@V?$_Tmap_traits@HV?$function@$$A6AXHH@Z@std@@U?$less@H@2@V?$allocator@U?$pair@$$CBHV?$function@$$A6AXHH@Z@std@@@std@@@2@$0A@@std@@@std@@IEAAXXZ@4HA DD imagerel ?dtor$0@?0??_Alloc_sentinel_and_proxy@?$_Tree@V?$_Tmap_traits@HV?$function@$$A6AXHH@Z@std@@U?$less@H@2@V?$allocator@U?$pair@$$CBHV?$function@$$A6AXHH@Z@std@@@std@@@2@$0A@@std@@@std@@IEAAXXZ@4HA
	DD	imagerel ?dtor$0@?0??_Alloc_sentinel_and_proxy@?$_Tree@V?$_Tmap_traits@HV?$function@$$A6AXHH@Z@std@@U?$less@H@2@V?$allocator@U?$pair@$$CBHV?$function@$$A6AXHH@Z@std@@@std@@@2@$0A@@std@@@std@@IEAAXXZ@4HA+36
	DD	imagerel $unwind$?dtor$0@?0??_Alloc_sentinel_and_proxy@?$_Tree@V?$_Tmap_traits@HV?$function@$$A6AXHH@Z@std@@U?$less@H@2@V?$allocator@U?$pair@$$CBHV?$function@$$A6AXHH@Z@std@@@std@@@2@$0A@@std@@@std@@IEAAXXZ@4HA
pdata	ENDS
;	COMDAT pdata
pdata	SEGMENT
$pdata$?_Getcomp@?$_Tree@V?$_Tmap_traits@HV?$function@$$A6AXHH@Z@std@@U?$less@H@2@V?$allocator@U?$pair@$$CBHV?$function@$$A6AXHH@Z@std@@@std@@@2@$0A@@std@@@std@@IEBAAEBU?$less@H@2@XZ DD imagerel $LN3
	DD	imagerel $LN3+81
	DD	imagerel $unwind$?_Getcomp@?$_Tree@V?$_Tmap_traits@HV?$function@$$A6AXHH@Z@std@@U?$less@H@2@V?$allocator@U?$pair@$$CBHV?$function@$$A6AXHH@Z@std@@@std@@@2@$0A@@std@@@std@@IEBAAEBU?$less@H@2@XZ
pdata	ENDS
;	COMDAT pdata
pdata	SEGMENT
$pdata$?_Getal@?$_Tree@V?$_Tmap_traits@HV?$function@$$A6AXHH@Z@std@@U?$less@H@2@V?$allocator@U?$pair@$$CBHV?$function@$$A6AXHH@Z@std@@@std@@@2@$0A@@std@@@std@@IEAAAEAV?$allocator@U?$_Tree_node@U?$pair@$$CBHV?$function@$$A6AXHH@Z@std@@@std@@PEAX@std@@@2@XZ DD imagerel $LN3
	DD	imagerel $LN3+81
	DD	imagerel $unwind$?_Getal@?$_Tree@V?$_Tmap_traits@HV?$function@$$A6AXHH@Z@std@@U?$less@H@2@V?$allocator@U?$pair@$$CBHV?$function@$$A6AXHH@Z@std@@@std@@@2@$0A@@std@@@std@@IEAAAEAV?$allocator@U?$_Tree_node@U?$pair@$$CBHV?$function@$$A6AXHH@Z@std@@@std@@PEAX@std@@@2@XZ
pdata	ENDS
;	COMDAT pdata
pdata	SEGMENT
$pdata$?_Getal@?$_Tree@V?$_Tmap_traits@HV?$function@$$A6AXHH@Z@std@@U?$less@H@2@V?$allocator@U?$pair@$$CBHV?$function@$$A6AXHH@Z@std@@@std@@@2@$0A@@std@@@std@@IEBAAEBV?$allocator@U?$_Tree_node@U?$pair@$$CBHV?$function@$$A6AXHH@Z@std@@@std@@PEAX@std@@@2@XZ DD imagerel $LN3
	DD	imagerel $LN3+81
	DD	imagerel $unwind$?_Getal@?$_Tree@V?$_Tmap_traits@HV?$function@$$A6AXHH@Z@std@@U?$less@H@2@V?$allocator@U?$pair@$$CBHV?$function@$$A6AXHH@Z@std@@@std@@@2@$0A@@std@@@std@@IEBAAEBV?$allocator@U?$_Tree_node@U?$pair@$$CBHV?$function@$$A6AXHH@Z@std@@@std@@PEAX@std@@@2@XZ
pdata	ENDS
;	COMDAT pdata
pdata	SEGMENT
$pdata$?_Get_scary@?$_Tree@V?$_Tmap_traits@HV?$function@$$A6AXHH@Z@std@@U?$less@H@2@V?$allocator@U?$pair@$$CBHV?$function@$$A6AXHH@Z@std@@@std@@@2@$0A@@std@@@std@@IEAAPEAV?$_Tree_val@U?$_Tree_simple_types@U?$pair@$$CBHV?$function@$$A6AXHH@Z@std@@@std@@@std@@@2@XZ DD imagerel $LN3
	DD	imagerel $LN3+81
	DD	imagerel $unwind$?_Get_scary@?$_Tree@V?$_Tmap_traits@HV?$function@$$A6AXHH@Z@std@@U?$less@H@2@V?$allocator@U?$pair@$$CBHV?$function@$$A6AXHH@Z@std@@@std@@@2@$0A@@std@@@std@@IEAAPEAV?$_Tree_val@U?$_Tree_simple_types@U?$pair@$$CBHV?$function@$$A6AXHH@Z@std@@@std@@@std@@@2@XZ
pdata	ENDS
;	COMDAT pdata
pdata	SEGMENT
$pdata$?_Get_scary@?$_Tree@V?$_Tmap_traits@HV?$function@$$A6AXHH@Z@std@@U?$less@H@2@V?$allocator@U?$pair@$$CBHV?$function@$$A6AXHH@Z@std@@@std@@@2@$0A@@std@@@std@@IEBAPEBV?$_Tree_val@U?$_Tree_simple_types@U?$pair@$$CBHV?$function@$$A6AXHH@Z@std@@@std@@@std@@@2@XZ DD imagerel $LN3
	DD	imagerel $LN3+81
	DD	imagerel $unwind$?_Get_scary@?$_Tree@V?$_Tmap_traits@HV?$function@$$A6AXHH@Z@std@@U?$less@H@2@V?$allocator@U?$pair@$$CBHV?$function@$$A6AXHH@Z@std@@@std@@@2@$0A@@std@@@std@@IEBAPEBV?$_Tree_val@U?$_Tree_simple_types@U?$pair@$$CBHV?$function@$$A6AXHH@Z@std@@@std@@@std@@@2@XZ
pdata	ENDS
;	COMDAT pdata
pdata	SEGMENT
$pdata$??R?$less@H@std@@QEBA_NAEBH0@Z DD imagerel $LN5
	DD	imagerel $LN5+123
	DD	imagerel $unwind$??R?$less@H@std@@QEBA_NAEBH0@Z
pdata	ENDS
;	COMDAT pdata
pdata	SEGMENT
$pdata$??0?$_Tree_val@U?$_Tree_simple_types@U?$pair@$$CBHV?$function@$$A6AXHH@Z@std@@@std@@@std@@@std@@QEAA@XZ DD imagerel $LN3
	DD	imagerel $LN3+113
	DD	imagerel $unwind$??0?$_Tree_val@U?$_Tree_simple_types@U?$pair@$$CBHV?$function@$$A6AXHH@Z@std@@@std@@@std@@@std@@QEAA@XZ
pdata	ENDS
;	COMDAT pdata
pdata	SEGMENT
$pdata$?_Min@?$_Tree_val@U?$_Tree_simple_types@U?$pair@$$CBHV?$function@$$A6AXHH@Z@std@@@std@@@std@@@std@@SAPEAU?$_Tree_node@U?$pair@$$CBHV?$function@$$A6AXHH@Z@std@@@std@@PEAX@2@PEAU32@@Z DD imagerel $LN5
	DD	imagerel $LN5+108
	DD	imagerel $unwind$?_Min@?$_Tree_val@U?$_Tree_simple_types@U?$pair@$$CBHV?$function@$$A6AXHH@Z@std@@@std@@@std@@@std@@SAPEAU?$_Tree_node@U?$pair@$$CBHV?$function@$$A6AXHH@Z@std@@@std@@PEAX@2@PEAU32@@Z
pdata	ENDS
;	COMDAT pdata
pdata	SEGMENT
$pdata$?_Lrotate@?$_Tree_val@U?$_Tree_simple_types@U?$pair@$$CBHV?$function@$$A6AXHH@Z@std@@@std@@@std@@@std@@QEAAXPEAU?$_Tree_node@U?$pair@$$CBHV?$function@$$A6AXHH@Z@std@@@std@@PEAX@2@@Z DD imagerel $LN8
	DD	imagerel $LN8+290
	DD	imagerel $unwind$?_Lrotate@?$_Tree_val@U?$_Tree_simple_types@U?$pair@$$CBHV?$function@$$A6AXHH@Z@std@@@std@@@std@@@std@@QEAAXPEAU?$_Tree_node@U?$pair@$$CBHV?$function@$$A6AXHH@Z@std@@@std@@PEAX@2@@Z
pdata	ENDS
;	COMDAT pdata
pdata	SEGMENT
$pdata$?_Rrotate@?$_Tree_val@U?$_Tree_simple_types@U?$pair@$$CBHV?$function@$$A6AXHH@Z@std@@@std@@@std@@@std@@QEAAXPEAU?$_Tree_node@U?$pair@$$CBHV?$function@$$A6AXHH@Z@std@@@std@@PEAX@2@@Z DD imagerel $LN8
	DD	imagerel $LN8+293
	DD	imagerel $unwind$?_Rrotate@?$_Tree_val@U?$_Tree_simple_types@U?$pair@$$CBHV?$function@$$A6AXHH@Z@std@@@std@@@std@@@std@@QEAAXPEAU?$_Tree_node@U?$pair@$$CBHV?$function@$$A6AXHH@Z@std@@@std@@PEAX@2@@Z
pdata	ENDS
;	COMDAT pdata
pdata	SEGMENT
$pdata$?_Insert_node@?$_Tree_val@U?$_Tree_simple_types@U?$pair@$$CBHV?$function@$$A6AXHH@Z@std@@@std@@@std@@@std@@QEAAPEAU?$_Tree_node@U?$pair@$$CBHV?$function@$$A6AXHH@Z@std@@@std@@PEAX@2@U?$_Tree_id@PEAU?$_Tree_node@U?$pair@$$CBHV?$function@$$A6AXHH@Z@std@@@std@@PEAX@std@@@2@QEAU32@@Z DD imagerel $LN19
	DD	imagerel $LN19+802
	DD	imagerel $unwind$?_Insert_node@?$_Tree_val@U?$_Tree_simple_types@U?$pair@$$CBHV?$function@$$A6AXHH@Z@std@@@std@@@std@@@std@@QEAAPEAU?$_Tree_node@U?$pair@$$CBHV?$function@$$A6AXHH@Z@std@@@std@@PEAX@2@U?$_Tree_id@PEAU?$_Tree_node@U?$pair@$$CBHV?$function@$$A6AXHH@Z@std@@@std@@PEAX@std@@@2@QEAU32@@Z
pdata	ENDS
;	COMDAT pdata
pdata	SEGMENT
$pdata$?_Get_first@?$_Compressed_pair@V?$allocator@U?$_Tree_node@U?$pair@$$CBHV?$function@$$A6AXHH@Z@std@@@std@@PEAX@std@@@std@@V?$_Tree_val@U?$_Tree_simple_types@U?$pair@$$CBHV?$function@$$A6AXHH@Z@std@@@std@@@std@@@2@$00@std@@QEAAAEAV?$allocator@U?$_Tree_node@U?$pair@$$CBHV?$function@$$A6AXHH@Z@std@@@std@@PEAX@std@@@2@XZ DD imagerel $LN3
	DD	imagerel $LN3+72
	DD	imagerel $unwind$?_Get_first@?$_Compressed_pair@V?$allocator@U?$_Tree_node@U?$pair@$$CBHV?$function@$$A6AXHH@Z@std@@@std@@PEAX@std@@@std@@V?$_Tree_val@U?$_Tree_simple_types@U?$pair@$$CBHV?$function@$$A6AXHH@Z@std@@@std@@@std@@@2@$00@std@@QEAAAEAV?$allocator@U?$_Tree_node@U?$pair@$$CBHV?$function@$$A6AXHH@Z@std@@@std@@PEAX@std@@@2@XZ
pdata	ENDS
;	COMDAT pdata
pdata	SEGMENT
$pdata$?_Get_first@?$_Compressed_pair@V?$allocator@U?$_Tree_node@U?$pair@$$CBHV?$function@$$A6AXHH@Z@std@@@std@@PEAX@std@@@std@@V?$_Tree_val@U?$_Tree_simple_types@U?$pair@$$CBHV?$function@$$A6AXHH@Z@std@@@std@@@std@@@2@$00@std@@QEBAAEBV?$allocator@U?$_Tree_node@U?$pair@$$CBHV?$function@$$A6AXHH@Z@std@@@std@@PEAX@std@@@2@XZ DD imagerel $LN3
	DD	imagerel $LN3+72
	DD	imagerel $unwind$?_Get_first@?$_Compressed_pair@V?$allocator@U?$_Tree_node@U?$pair@$$CBHV?$function@$$A6AXHH@Z@std@@@std@@PEAX@std@@@std@@V?$_Tree_val@U?$_Tree_simple_types@U?$pair@$$CBHV?$function@$$A6AXHH@Z@std@@@std@@@std@@@2@$00@std@@QEBAAEBV?$allocator@U?$_Tree_node@U?$pair@$$CBHV?$function@$$A6AXHH@Z@std@@@std@@PEAX@std@@@2@XZ
pdata	ENDS
;	COMDAT pdata
pdata	SEGMENT
$pdata$?_Get_first@?$_Compressed_pair@U?$less@H@std@@V?$_Compressed_pair@V?$allocator@U?$_Tree_node@U?$pair@$$CBHV?$function@$$A6AXHH@Z@std@@@std@@PEAX@std@@@std@@V?$_Tree_val@U?$_Tree_simple_types@U?$pair@$$CBHV?$function@$$A6AXHH@Z@std@@@std@@@std@@@2@$00@2@$00@std@@QEBAAEBU?$less@H@2@XZ DD imagerel $LN3
	DD	imagerel $LN3+72
	DD	imagerel $unwind$?_Get_first@?$_Compressed_pair@U?$less@H@std@@V?$_Compressed_pair@V?$allocator@U?$_Tree_node@U?$pair@$$CBHV?$function@$$A6AXHH@Z@std@@@std@@PEAX@std@@@std@@V?$_Tree_val@U?$_Tree_simple_types@U?$pair@$$CBHV?$function@$$A6AXHH@Z@std@@@std@@@std@@@2@$00@2@$00@std@@QEBAAEBU?$less@H@2@XZ
pdata	ENDS
;	COMDAT pdata
pdata	SEGMENT
$pdata$??$?0$$V@?$_Compressed_pair@V?$allocator@U?$_Tree_node@U?$pair@$$CBHV?$function@$$A6AXHH@Z@std@@@std@@PEAX@std@@@std@@V?$_Tree_val@U?$_Tree_simple_types@U?$pair@$$CBHV?$function@$$A6AXHH@Z@std@@@std@@@std@@@2@$00@std@@QEAA@U_Zero_then_variadic_args_t@1@@Z DD imagerel $LN3
	DD	imagerel $LN3+102
	DD	imagerel $unwind$??$?0$$V@?$_Compressed_pair@V?$allocator@U?$_Tree_node@U?$pair@$$CBHV?$function@$$A6AXHH@Z@std@@@std@@PEAX@std@@@std@@V?$_Tree_val@U?$_Tree_simple_types@U?$pair@$$CBHV?$function@$$A6AXHH@Z@std@@@std@@@std@@@2@$00@std@@QEAA@U_Zero_then_variadic_args_t@1@@Z
pdata	ENDS
;	COMDAT pdata
pdata	SEGMENT
$pdata$??0?$map@HV?$function@$$A6AXHH@Z@std@@U?$less@H@2@V?$allocator@U?$pair@$$CBHV?$function@$$A6AXHH@Z@std@@@std@@@2@@std@@QEAA@XZ DD imagerel $LN4
	DD	imagerel $LN4+90
	DD	imagerel $unwind$??0?$map@HV?$function@$$A6AXHH@Z@std@@U?$less@H@2@V?$allocator@U?$pair@$$CBHV?$function@$$A6AXHH@Z@std@@@std@@@2@@std@@QEAA@XZ
pdata	ENDS
;	COMDAT pdata
pdata	SEGMENT
$pdata$??1?$map@HV?$function@$$A6AXHH@Z@std@@U?$less@H@2@V?$allocator@U?$pair@$$CBHV?$function@$$A6AXHH@Z@std@@@std@@@2@@std@@QEAA@XZ DD imagerel $LN3
	DD	imagerel $LN3+64
	DD	imagerel $unwind$??1?$map@HV?$function@$$A6AXHH@Z@std@@U?$less@H@2@V?$allocator@U?$pair@$$CBHV?$function@$$A6AXHH@Z@std@@@std@@@2@@std@@QEAA@XZ
pdata	ENDS
;	COMDAT pdata
pdata	SEGMENT
$pdata$?__autoclassinit2@?$Events@V?$function@$$A6AXHH@Z@std@@@@QEAAX_K@Z DD imagerel $LN3
	DD	imagerel $LN3+73
	DD	imagerel $unwind$?__autoclassinit2@?$Events@V?$function@$$A6AXHH@Z@std@@@@QEAAX_K@Z
pdata	ENDS
;	COMDAT pdata
pdata	SEGMENT
$pdata$??0?$_Func_class@XHH@std@@QEAA@XZ DD imagerel $LN3
	DD	imagerel $LN3+87
	DD	imagerel $unwind$??0?$_Func_class@XHH@std@@QEAA@XZ
pdata	ENDS
;	COMDAT pdata
pdata	SEGMENT
$pdata$??R?$_Func_class@XHH@std@@QEBAXHH@Z DD imagerel $LN4
	DD	imagerel $LN4+193
	DD	imagerel $unwind$??R?$_Func_class@XHH@std@@QEBAXHH@Z
pdata	ENDS
;	COMDAT pdata
pdata	SEGMENT
$pdata$??1?$_Func_class@XHH@std@@QEAA@XZ DD imagerel $LN3
	DD	imagerel $LN3+78
	DD	imagerel $unwind$??1?$_Func_class@XHH@std@@QEAA@XZ
pdata	ENDS
;	COMDAT pdata
pdata	SEGMENT
$pdata$?_Empty@?$_Func_class@XHH@std@@IEBA_NXZ DD imagerel $LN5
	DD	imagerel $LN5+112
	DD	imagerel $unwind$?_Empty@?$_Func_class@XHH@std@@IEBA_NXZ
pdata	ENDS
;	COMDAT pdata
pdata	SEGMENT
$pdata$?_Reset_copy@?$_Func_class@XHH@std@@IEAAXAEBV12@@Z DD imagerel $LN4
	DD	imagerel $LN4+165
	DD	imagerel $unwind$?_Reset_copy@?$_Func_class@XHH@std@@IEAAXAEBV12@@Z
pdata	ENDS
;	COMDAT pdata
pdata	SEGMENT
$pdata$?_Reset_move@?$_Func_class@XHH@std@@IEAAX$$QEAV12@@Z DD imagerel $LN6
	DD	imagerel $LN6+254
	DD	imagerel $unwind$?_Reset_move@?$_Func_class@XHH@std@@IEAAX$$QEAV12@@Z
pdata	ENDS
;	COMDAT pdata
pdata	SEGMENT
$pdata$?_Tidy@?$_Func_class@XHH@std@@IEAAXXZ DD imagerel $LN6
	DD	imagerel $LN6+198
	DD	imagerel $unwind$?_Tidy@?$_Func_class@XHH@std@@IEAAXXZ
pdata	ENDS
;	COMDAT pdata
pdata	SEGMENT
$pdata$?_Local@?$_Func_class@XHH@std@@AEBA_NXZ DD imagerel $LN5
	DD	imagerel $LN5+119
	DD	imagerel $unwind$?_Local@?$_Func_class@XHH@std@@AEBA_NXZ
pdata	ENDS
;	COMDAT pdata
pdata	SEGMENT
$pdata$?_Getimpl@?$_Func_class@XHH@std@@AEBAPEAV?$_Func_base@XHH@2@XZ DD imagerel $LN3
	DD	imagerel $LN3+85
	DD	imagerel $unwind$?_Getimpl@?$_Func_class@XHH@std@@AEBAPEAV?$_Func_base@XHH@2@XZ
pdata	ENDS
;	COMDAT pdata
pdata	SEGMENT
$pdata$?_Set@?$_Func_class@XHH@std@@AEAAXPEAV?$_Func_base@XHH@2@@Z DD imagerel $LN3
	DD	imagerel $LN3+97
	DD	imagerel $unwind$?_Set@?$_Func_class@XHH@std@@AEAAXPEAV?$_Func_base@XHH@2@@Z
pdata	ENDS
;	COMDAT pdata
pdata	SEGMENT
$pdata$??0?$function@$$A6AXHH@Z@std@@QEAA@AEBV01@@Z DD imagerel $LN4
	DD	imagerel $LN4+109
	DD	imagerel $unwind$??0?$function@$$A6AXHH@Z@std@@QEAA@AEBV01@@Z
pdata	ENDS
;	COMDAT pdata
pdata	SEGMENT
$pdata$?dtor$0@?0???0?$function@$$A6AXHH@Z@std@@QEAA@AEBV01@@Z@4HA DD imagerel ?dtor$0@?0???0?$function@$$A6AXHH@Z@std@@QEAA@AEBV01@@Z@4HA
	DD	imagerel ?dtor$0@?0???0?$function@$$A6AXHH@Z@std@@QEAA@AEBV01@@Z@4HA+39
	DD	imagerel $unwind$?dtor$0@?0???0?$function@$$A6AXHH@Z@std@@QEAA@AEBV01@@Z@4HA
pdata	ENDS
;	COMDAT pdata
pdata	SEGMENT
$pdata$??0?$function@$$A6AXHH@Z@std@@QEAA@$$QEAV01@@Z DD imagerel $LN3
	DD	imagerel $LN3+119
	DD	imagerel $unwind$??0?$function@$$A6AXHH@Z@std@@QEAA@$$QEAV01@@Z
pdata	ENDS
;	COMDAT pdata
pdata	SEGMENT
$pdata$??1?$function@$$A6AXHH@Z@std@@QEAA@XZ DD imagerel $LN3
	DD	imagerel $LN3+64
	DD	imagerel $unwind$??1?$function@$$A6AXHH@Z@std@@QEAA@XZ
pdata	ENDS
;	COMDAT pdata
pdata	SEGMENT
$pdata$??$forward@AEAP6AXHH@Z@std@@YAAEAP6AXHH@ZAEAP6AXHH@Z@Z DD imagerel $LN3
	DD	imagerel $LN3+72
	DD	imagerel $unwind$??$forward@AEAP6AXHH@Z@std@@YAAEAP6AXHH@ZAEAP6AXHH@Z@Z
pdata	ENDS
;	COMDAT pdata
pdata	SEGMENT
$pdata$??$forward@H@std@@YA$$QEAHAEAH@Z DD imagerel $LN3
	DD	imagerel $LN3+72
	DD	imagerel $unwind$??$forward@H@std@@YA$$QEAHAEAH@Z
pdata	ENDS
;	COMDAT pdata
pdata	SEGMENT
$pdata$??$_Call@AEAP6AXHH@ZHH@_Invoker_functor@std@@SAXAEAP6AXHH@Z$$QEAH1@Z DD imagerel $LN3
	DD	imagerel $LN3+154
	DD	imagerel $unwind$??$_Call@AEAP6AXHH@ZHH@_Invoker_functor@std@@SAXAEAP6AXHH@Z$$QEAH1@Z
pdata	ENDS
;	COMDAT pdata
pdata	SEGMENT
$pdata$??$invoke@AEAP6AXHH@ZHH@std@@YAXAEAP6AXHH@Z$$QEAH1@Z DD imagerel $LN3
	DD	imagerel $LN3+157
	DD	imagerel $unwind$??$invoke@AEAP6AXHH@ZHH@std@@YAXAEAP6AXHH@Z$$QEAH1@Z
pdata	ENDS
;	COMDAT pdata
pdata	SEGMENT
$pdata$??$?0P6AXHH@ZX@?$function@$$A6AXHH@Z@std@@QEAA@P6AXHH@Z@Z DD imagerel $LN4
	DD	imagerel $LN4+117
	DD	imagerel $unwind$??$?0P6AXHH@ZX@?$function@$$A6AXHH@Z@std@@QEAA@P6AXHH@Z@Z
pdata	ENDS
;	COMDAT pdata
pdata	SEGMENT
$pdata$?dtor$0@?0???$?0P6AXHH@ZX@?$function@$$A6AXHH@Z@std@@QEAA@P6AXHH@Z@Z@4HA DD imagerel ?dtor$0@?0???$?0P6AXHH@ZX@?$function@$$A6AXHH@Z@std@@QEAA@P6AXHH@Z@Z@4HA
	DD	imagerel ?dtor$0@?0???$?0P6AXHH@ZX@?$function@$$A6AXHH@Z@std@@QEAA@P6AXHH@Z@Z@4HA+39
	DD	imagerel $unwind$?dtor$0@?0???$?0P6AXHH@ZX@?$function@$$A6AXHH@Z@std@@QEAA@P6AXHH@Z@Z@4HA
pdata	ENDS
;	COMDAT pdata
pdata	SEGMENT
$pdata$??R<lambda_1>@?1??event_foo@@YAXXZ@QEBA@HH@Z DD imagerel ??R<lambda_1>@?1??event_foo@@YAXXZ@QEBA@HH@Z
	DD	imagerel ??R<lambda_1>@?1??event_foo@@YAXXZ@QEBA@HH@Z+157
	DD	imagerel $unwind$??R<lambda_1>@?1??event_foo@@YAXXZ@QEBA@HH@Z
pdata	ENDS
;	COMDAT pdata
pdata	SEGMENT
$pdata$??$forward@AEAV<lambda_1>@?1??event_foo@@YAXXZ@@std@@YAAEAV<lambda_1>@?1??event_foo@@YAXXZ@AEAV1?1??2@YAXXZ@@Z DD imagerel ??$forward@AEAV<lambda_1>@?1??event_foo@@YAXXZ@@std@@YAAEAV<lambda_1>@?1??event_foo@@YAXXZ@AEAV1?1??2@YAXXZ@@Z
	DD	imagerel ??$forward@AEAV<lambda_1>@?1??event_foo@@YAXXZ@@std@@YAAEAV<lambda_1>@?1??event_foo@@YAXXZ@AEAV1?1??2@YAXXZ@@Z+72
	DD	imagerel $unwind$??$forward@AEAV<lambda_1>@?1??event_foo@@YAXXZ@@std@@YAAEAV<lambda_1>@?1??event_foo@@YAXXZ@AEAV1?1??2@YAXXZ@@Z
pdata	ENDS
;	COMDAT pdata
pdata	SEGMENT
$pdata$??$_Call@AEAV<lambda_1>@?1??event_foo@@YAXXZ@HH@_Invoker_functor@std@@SAXAEAV<lambda_1>@?1??event_foo@@YAXXZ@$$QEAH1@Z DD imagerel ??$_Call@AEAV<lambda_1>@?1??event_foo@@YAXXZ@HH@_Invoker_functor@std@@SAXAEAV<lambda_1>@?1??event_foo@@YAXXZ@$$QEAH1@Z
	DD	imagerel ??$_Call@AEAV<lambda_1>@?1??event_foo@@YAXXZ@HH@_Invoker_functor@std@@SAXAEAV<lambda_1>@?1??event_foo@@YAXXZ@$$QEAH1@Z+158
	DD	imagerel $unwind$??$_Call@AEAV<lambda_1>@?1??event_foo@@YAXXZ@HH@_Invoker_functor@std@@SAXAEAV<lambda_1>@?1??event_foo@@YAXXZ@$$QEAH1@Z
pdata	ENDS
;	COMDAT pdata
pdata	SEGMENT
$pdata$??$invoke@AEAV<lambda_1>@?1??event_foo@@YAXXZ@HH@std@@YAXAEAV<lambda_1>@?1??event_foo@@YAXXZ@$$QEAH1@Z DD imagerel ??$invoke@AEAV<lambda_1>@?1??event_foo@@YAXXZ@HH@std@@YAXAEAV<lambda_1>@?1??event_foo@@YAXXZ@$$QEAH1@Z
	DD	imagerel ??$invoke@AEAV<lambda_1>@?1??event_foo@@YAXXZ@HH@std@@YAXAEAV<lambda_1>@?1??event_foo@@YAXXZ@$$QEAH1@Z+157
	DD	imagerel $unwind$??$invoke@AEAV<lambda_1>@?1??event_foo@@YAXXZ@HH@std@@YAXAEAV<lambda_1>@?1??event_foo@@YAXXZ@$$QEAH1@Z
pdata	ENDS
;	COMDAT pdata
pdata	SEGMENT
$pdata$??$?0V<lambda_1>@?1??event_foo@@YAXXZ@X@?$function@$$A6AXHH@Z@std@@QEAA@V<lambda_1>@?1??event_foo@@YAXXZ@@Z DD imagerel ??$?0V<lambda_1>@?1??event_foo@@YAXXZ@X@?$function@$$A6AXHH@Z@std@@QEAA@V<lambda_1>@?1??event_foo@@YAXXZ@@Z
	DD	imagerel ??$?0V<lambda_1>@?1??event_foo@@YAXXZ@X@?$function@$$A6AXHH@Z@std@@QEAA@V<lambda_1>@?1??event_foo@@YAXXZ@@Z+116
	DD	imagerel $unwind$??$?0V<lambda_1>@?1??event_foo@@YAXXZ@X@?$function@$$A6AXHH@Z@std@@QEAA@V<lambda_1>@?1??event_foo@@YAXXZ@@Z
pdata	ENDS
;	COMDAT pdata
pdata	SEGMENT
$pdata$?dtor$0@?0???$?0V<lambda_1>@?1??event_foo@@YAXXZ@X@?$function@$$A6AXHH@Z@std@@QEAA@V<lambda_1>@?1??event_foo@@YAXXZ@@Z@4HA DD imagerel ?dtor$0@?0???$?0V<lambda_1>@?1??event_foo@@YAXXZ@X@?$function@$$A6AXHH@Z@std@@QEAA@V<lambda_1>@?1??event_foo@@YAXXZ@@Z@4HA
	DD	imagerel ?dtor$0@?0???$?0V<lambda_1>@?1??event_foo@@YAXXZ@X@?$function@$$A6AXHH@Z@std@@QEAA@V<lambda_1>@?1??event_foo@@YAXXZ@@Z@4HA+39
	DD	imagerel $unwind$?dtor$0@?0???$?0V<lambda_1>@?1??event_foo@@YAXXZ@X@?$function@$$A6AXHH@Z@std@@QEAA@V<lambda_1>@?1??event_foo@@YAXXZ@@Z@4HA
pdata	ENDS
;	COMDAT pdata
pdata	SEGMENT
$pdata$??$bind@P8stA@?A0x4e02d121@@EAAXHH@ZPEAU12@AEBU?$_Ph@$00@std@@AEBU?$_Ph@$01@4@@std@@YA?AV?$_Binder@U_Unforced@std@@P8stA@?A0x4e02d121@@EAAXHH@ZPEAU34@AEBU?$_Ph@$00@2@AEBU?$_Ph@$01@2@@0@$$QEAP8stA@?A0x4e02d121@@EAAXHH@Z$$QEAPEAU23@AEBU?$_Ph@$00@0@AEBU?$_Ph@$01@0@@Z DD imagerel ??$bind@P8stA@?A0x4e02d121@@EAAXHH@ZPEAU12@AEBU?$_Ph@$00@std@@AEBU?$_Ph@$01@4@@std@@YA?AV?$_Binder@U_Unforced@std@@P8stA@?A0x4e02d121@@EAAXHH@ZPEAU34@AEBU?$_Ph@$00@2@AEBU?$_Ph@$01@2@@0@$$QEAP8stA@?A0x4e02d121@@EAAXHH@Z$$QEAPEAU23@AEBU?$_Ph@$00@0@AEBU?$_Ph@$01@0@@Z
	DD	imagerel ??$bind@P8stA@?A0x4e02d121@@EAAXHH@ZPEAU12@AEBU?$_Ph@$00@std@@AEBU?$_Ph@$01@4@@std@@YA?AV?$_Binder@U_Unforced@std@@P8stA@?A0x4e02d121@@EAAXHH@ZPEAU34@AEBU?$_Ph@$00@2@AEBU?$_Ph@$01@2@@0@$$QEAP8stA@?A0x4e02d121@@EAAXHH@Z$$QEAPEAU23@AEBU?$_Ph@$00@0@AEBU?$_Ph@$01@0@@Z+207
	DD	imagerel $unwind$??$bind@P8stA@?A0x4e02d121@@EAAXHH@ZPEAU12@AEBU?$_Ph@$00@std@@AEBU?$_Ph@$01@4@@std@@YA?AV?$_Binder@U_Unforced@std@@P8stA@?A0x4e02d121@@EAAXHH@ZPEAU34@AEBU?$_Ph@$00@2@AEBU?$_Ph@$01@2@@0@$$QEAP8stA@?A0x4e02d121@@EAAXHH@Z$$QEAPEAU23@AEBU?$_Ph@$00@0@AEBU?$_Ph@$01@0@@Z
pdata	ENDS
;	COMDAT pdata
pdata	SEGMENT
$pdata$??0?$tuple@U?$_Ph@$01@std@@@std@@QEAA@AEBV01@@Z DD imagerel $LN3
	DD	imagerel $LN3+116
	DD	imagerel $unwind$??0?$tuple@U?$_Ph@$01@std@@@std@@QEAA@AEBV01@@Z
pdata	ENDS
;	COMDAT pdata
pdata	SEGMENT
$pdata$??0?$tuple@U?$_Ph@$01@std@@@std@@QEAA@$$QEAV01@@Z DD imagerel $LN3
	DD	imagerel $LN3+116
	DD	imagerel $unwind$??0?$tuple@U?$_Ph@$01@std@@@std@@QEAA@$$QEAV01@@Z
pdata	ENDS
;	COMDAT pdata
pdata	SEGMENT
$pdata$??0?$tuple@U?$_Ph@$00@std@@U?$_Ph@$01@2@@std@@QEAA@AEBV01@@Z DD imagerel $LN3
	DD	imagerel $LN3+118
	DD	imagerel $unwind$??0?$tuple@U?$_Ph@$00@std@@U?$_Ph@$01@2@@std@@QEAA@AEBV01@@Z
pdata	ENDS
;	COMDAT pdata
pdata	SEGMENT
$pdata$??0?$tuple@U?$_Ph@$00@std@@U?$_Ph@$01@2@@std@@QEAA@$$QEAV01@@Z DD imagerel $LN3
	DD	imagerel $LN3+118
	DD	imagerel $unwind$??0?$tuple@U?$_Ph@$00@std@@U?$_Ph@$01@2@@std@@QEAA@$$QEAV01@@Z
pdata	ENDS
;	COMDAT pdata
pdata	SEGMENT
$pdata$??0?$tuple@PEAUstA@?A0x4e02d121@@U?$_Ph@$00@std@@U?$_Ph@$01@4@@std@@QEAA@AEBV01@@Z DD imagerel ??0?$tuple@PEAUstA@?A0x4e02d121@@U?$_Ph@$00@std@@U?$_Ph@$01@4@@std@@QEAA@AEBV01@@Z
	DD	imagerel ??0?$tuple@PEAUstA@?A0x4e02d121@@U?$_Ph@$00@std@@U?$_Ph@$01@4@@std@@QEAA@AEBV01@@Z+119
	DD	imagerel $unwind$??0?$tuple@PEAUstA@?A0x4e02d121@@U?$_Ph@$00@std@@U?$_Ph@$01@4@@std@@QEAA@AEBV01@@Z
pdata	ENDS
;	COMDAT pdata
pdata	SEGMENT
$pdata$??0?$tuple@PEAUstA@?A0x4e02d121@@U?$_Ph@$00@std@@U?$_Ph@$01@4@@std@@QEAA@$$QEAV01@@Z DD imagerel ??0?$tuple@PEAUstA@?A0x4e02d121@@U?$_Ph@$00@std@@U?$_Ph@$01@4@@std@@QEAA@$$QEAV01@@Z
	DD	imagerel ??0?$tuple@PEAUstA@?A0x4e02d121@@U?$_Ph@$00@std@@U?$_Ph@$01@4@@std@@QEAA@$$QEAV01@@Z+119
	DD	imagerel $unwind$??0?$tuple@PEAUstA@?A0x4e02d121@@U?$_Ph@$00@std@@U?$_Ph@$01@4@@std@@QEAA@$$QEAV01@@Z
pdata	ENDS
;	COMDAT pdata
pdata	SEGMENT
$pdata$?_Get_first@?$_Compressed_pair@P8stA@?A0x4e02d121@@EAAXHH@ZV?$tuple@PEAUstA@?A0x4e02d121@@U?$_Ph@$00@std@@U?$_Ph@$01@4@@std@@$0A@@std@@QEAAAEAP8stA@?A0x4e02d121@@EAAXHH@ZXZ DD imagerel ?_Get_first@?$_Compressed_pair@P8stA@?A0x4e02d121@@EAAXHH@ZV?$tuple@PEAUstA@?A0x4e02d121@@U?$_Ph@$00@std@@U?$_Ph@$01@4@@std@@$0A@@std@@QEAAAEAP8stA@?A0x4e02d121@@EAAXHH@ZXZ
	DD	imagerel ?_Get_first@?$_Compressed_pair@P8stA@?A0x4e02d121@@EAAXHH@ZV?$tuple@PEAUstA@?A0x4e02d121@@U?$_Ph@$00@std@@U?$_Ph@$01@4@@std@@$0A@@std@@QEAAAEAP8stA@?A0x4e02d121@@EAAXHH@ZXZ+72
	DD	imagerel $unwind$?_Get_first@?$_Compressed_pair@P8stA@?A0x4e02d121@@EAAXHH@ZV?$tuple@PEAUstA@?A0x4e02d121@@U?$_Ph@$00@std@@U?$_Ph@$01@4@@std@@$0A@@std@@QEAAAEAP8stA@?A0x4e02d121@@EAAXHH@ZXZ
pdata	ENDS
;	COMDAT pdata
pdata	SEGMENT
$pdata$??0?$_Compressed_pair@P8stA@?A0x4e02d121@@EAAXHH@ZV?$tuple@PEAUstA@?A0x4e02d121@@U?$_Ph@$00@std@@U?$_Ph@$01@4@@std@@$0A@@std@@QEAA@AEBV01@@Z DD imagerel ??0?$_Compressed_pair@P8stA@?A0x4e02d121@@EAAXHH@ZV?$tuple@PEAUstA@?A0x4e02d121@@U?$_Ph@$00@std@@U?$_Ph@$01@4@@std@@$0A@@std@@QEAA@AEBV01@@Z
	DD	imagerel ??0?$_Compressed_pair@P8stA@?A0x4e02d121@@EAAXHH@ZV?$tuple@PEAUstA@?A0x4e02d121@@U?$_Ph@$00@std@@U?$_Ph@$01@4@@std@@$0A@@std@@QEAA@AEBV01@@Z+128
	DD	imagerel $unwind$??0?$_Compressed_pair@P8stA@?A0x4e02d121@@EAAXHH@ZV?$tuple@PEAUstA@?A0x4e02d121@@U?$_Ph@$00@std@@U?$_Ph@$01@4@@std@@$0A@@std@@QEAA@AEBV01@@Z
pdata	ENDS
;	COMDAT pdata
pdata	SEGMENT
$pdata$??0?$_Compressed_pair@P8stA@?A0x4e02d121@@EAAXHH@ZV?$tuple@PEAUstA@?A0x4e02d121@@U?$_Ph@$00@std@@U?$_Ph@$01@4@@std@@$0A@@std@@QEAA@$$QEAV01@@Z DD imagerel ??0?$_Compressed_pair@P8stA@?A0x4e02d121@@EAAXHH@ZV?$tuple@PEAUstA@?A0x4e02d121@@U?$_Ph@$00@std@@U?$_Ph@$01@4@@std@@$0A@@std@@QEAA@$$QEAV01@@Z
	DD	imagerel ??0?$_Compressed_pair@P8stA@?A0x4e02d121@@EAAXHH@ZV?$tuple@PEAUstA@?A0x4e02d121@@U?$_Ph@$00@std@@U?$_Ph@$01@4@@std@@$0A@@std@@QEAA@$$QEAV01@@Z+128
	DD	imagerel $unwind$??0?$_Compressed_pair@P8stA@?A0x4e02d121@@EAAXHH@ZV?$tuple@PEAUstA@?A0x4e02d121@@U?$_Ph@$00@std@@U?$_Ph@$01@4@@std@@$0A@@std@@QEAA@$$QEAV01@@Z
pdata	ENDS
;	COMDAT pdata
pdata	SEGMENT
$pdata$??0?$_Binder@U_Unforced@std@@P8stA@?A0x4e02d121@@EAAXHH@ZPEAU34@AEBU?$_Ph@$00@2@AEBU?$_Ph@$01@2@@std@@QEAA@$$QEAP8stA@?A0x4e02d121@@EAAXHH@Z$$QEAPEAU23@AEBU?$_Ph@$00@1@AEBU?$_Ph@$01@1@@Z DD imagerel ??0?$_Binder@U_Unforced@std@@P8stA@?A0x4e02d121@@EAAXHH@ZPEAU34@AEBU?$_Ph@$00@2@AEBU?$_Ph@$01@2@@std@@QEAA@$$QEAP8stA@?A0x4e02d121@@EAAXHH@Z$$QEAPEAU23@AEBU?$_Ph@$00@1@AEBU?$_Ph@$01@1@@Z
	DD	imagerel ??0?$_Binder@U_Unforced@std@@P8stA@?A0x4e02d121@@EAAXHH@ZPEAU34@AEBU?$_Ph@$00@2@AEBU?$_Ph@$01@2@@std@@QEAA@$$QEAP8stA@?A0x4e02d121@@EAAXHH@Z$$QEAPEAU23@AEBU?$_Ph@$00@1@AEBU?$_Ph@$01@1@@Z+285
	DD	imagerel $unwind$??0?$_Binder@U_Unforced@std@@P8stA@?A0x4e02d121@@EAAXHH@ZPEAU34@AEBU?$_Ph@$00@2@AEBU?$_Ph@$01@2@@std@@QEAA@$$QEAP8stA@?A0x4e02d121@@EAAXHH@Z$$QEAPEAU23@AEBU?$_Ph@$00@1@AEBU?$_Ph@$01@1@@Z
pdata	ENDS
;	COMDAT pdata
pdata	SEGMENT
$pdata$??0?$_Binder@U_Unforced@std@@P8stA@?A0x4e02d121@@EAAXHH@ZPEAU34@AEBU?$_Ph@$00@2@AEBU?$_Ph@$01@2@@std@@QEAA@AEBV01@@Z DD imagerel ??0?$_Binder@U_Unforced@std@@P8stA@?A0x4e02d121@@EAAXHH@ZPEAU34@AEBU?$_Ph@$00@2@AEBU?$_Ph@$01@2@@std@@QEAA@AEBV01@@Z
	DD	imagerel ??0?$_Binder@U_Unforced@std@@P8stA@?A0x4e02d121@@EAAXHH@ZPEAU34@AEBU?$_Ph@$00@2@AEBU?$_Ph@$01@2@@std@@QEAA@AEBV01@@Z+100
	DD	imagerel $unwind$??0?$_Binder@U_Unforced@std@@P8stA@?A0x4e02d121@@EAAXHH@ZPEAU34@AEBU?$_Ph@$00@2@AEBU?$_Ph@$01@2@@std@@QEAA@AEBV01@@Z
pdata	ENDS
;	COMDAT pdata
pdata	SEGMENT
$pdata$??0?$_Binder@U_Unforced@std@@P8stA@?A0x4e02d121@@EAAXHH@ZPEAU34@AEBU?$_Ph@$00@2@AEBU?$_Ph@$01@2@@std@@QEAA@$$QEAV01@@Z DD imagerel ??0?$_Binder@U_Unforced@std@@P8stA@?A0x4e02d121@@EAAXHH@ZPEAU34@AEBU?$_Ph@$00@2@AEBU?$_Ph@$01@2@@std@@QEAA@$$QEAV01@@Z
	DD	imagerel ??0?$_Binder@U_Unforced@std@@P8stA@?A0x4e02d121@@EAAXHH@ZPEAU34@AEBU?$_Ph@$00@2@AEBU?$_Ph@$01@2@@std@@QEAA@$$QEAV01@@Z+100
	DD	imagerel $unwind$??0?$_Binder@U_Unforced@std@@P8stA@?A0x4e02d121@@EAAXHH@ZPEAU34@AEBU?$_Ph@$00@2@AEBU?$_Ph@$01@2@@std@@QEAA@$$QEAV01@@Z
pdata	ENDS
;	COMDAT pdata
pdata	SEGMENT
$pdata$??$forward@AEAV?$_Binder@U_Unforced@std@@P8stA@?A0x4e02d121@@EAAXHH@ZPEAU34@AEBU?$_Ph@$00@2@AEBU?$_Ph@$01@2@@std@@@std@@YAAEAV?$_Binder@U_Unforced@std@@P8stA@?A0x4e02d121@@EAAXHH@ZPEAU34@AEBU?$_Ph@$00@2@AEBU?$_Ph@$01@2@@0@AEAV10@@Z DD imagerel ??$forward@AEAV?$_Binder@U_Unforced@std@@P8stA@?A0x4e02d121@@EAAXHH@ZPEAU34@AEBU?$_Ph@$00@2@AEBU?$_Ph@$01@2@@std@@@std@@YAAEAV?$_Binder@U_Unforced@std@@P8stA@?A0x4e02d121@@EAAXHH@ZPEAU34@AEBU?$_Ph@$00@2@AEBU?$_Ph@$01@2@@0@AEAV10@@Z
	DD	imagerel ??$forward@AEAV?$_Binder@U_Unforced@std@@P8stA@?A0x4e02d121@@EAAXHH@ZPEAU34@AEBU?$_Ph@$00@2@AEBU?$_Ph@$01@2@@std@@@std@@YAAEAV?$_Binder@U_Unforced@std@@P8stA@?A0x4e02d121@@EAAXHH@ZPEAU34@AEBU?$_Ph@$00@2@AEBU?$_Ph@$01@2@@0@AEAV10@@Z+72
	DD	imagerel $unwind$??$forward@AEAV?$_Binder@U_Unforced@std@@P8stA@?A0x4e02d121@@EAAXHH@ZPEAU34@AEBU?$_Ph@$00@2@AEBU?$_Ph@$01@2@@std@@@std@@YAAEAV?$_Binder@U_Unforced@std@@P8stA@?A0x4e02d121@@EAAXHH@ZPEAU34@AEBU?$_Ph@$00@2@AEBU?$_Ph@$01@2@@0@AEAV10@@Z
pdata	ENDS
;	COMDAT pdata
pdata	SEGMENT
$pdata$??$forward_as_tuple@HH@std@@YA?AV?$tuple@$$QEAH$$QEAH@0@$$QEAH0@Z DD imagerel $LN3
	DD	imagerel $LN3+149
	DD	imagerel $unwind$??$forward_as_tuple@HH@std@@YA?AV?$tuple@$$QEAH$$QEAH@0@$$QEAH0@Z
pdata	ENDS
;	COMDAT pdata
pdata	SEGMENT
$pdata$??$get@$0A@PEAUstA@?A0x4e02d121@@U?$_Ph@$00@std@@U?$_Ph@$01@4@@std@@YAAEAPEAUstA@?A0x4e02d121@@AEAV?$tuple@PEAUstA@?A0x4e02d121@@U?$_Ph@$00@std@@U?$_Ph@$01@4@@0@@Z DD imagerel ??$get@$0A@PEAUstA@?A0x4e02d121@@U?$_Ph@$00@std@@U?$_Ph@$01@4@@std@@YAAEAPEAUstA@?A0x4e02d121@@AEAV?$tuple@PEAUstA@?A0x4e02d121@@U?$_Ph@$00@std@@U?$_Ph@$01@4@@0@@Z
	DD	imagerel ??$get@$0A@PEAUstA@?A0x4e02d121@@U?$_Ph@$00@std@@U?$_Ph@$01@4@@std@@YAAEAPEAUstA@?A0x4e02d121@@AEAV?$tuple@PEAUstA@?A0x4e02d121@@U?$_Ph@$00@std@@U?$_Ph@$01@4@@0@@Z+76
	DD	imagerel $unwind$??$get@$0A@PEAUstA@?A0x4e02d121@@U?$_Ph@$00@std@@U?$_Ph@$01@4@@std@@YAAEAPEAUstA@?A0x4e02d121@@AEAV?$tuple@PEAUstA@?A0x4e02d121@@U?$_Ph@$00@std@@U?$_Ph@$01@4@@0@@Z
pdata	ENDS
;	COMDAT pdata
pdata	SEGMENT
$pdata$??$move@AEAV?$tuple@$$QEAH$$QEAH@std@@@std@@YA$$QEAV?$tuple@$$QEAH$$QEAH@0@AEAV10@@Z DD imagerel $LN3
	DD	imagerel $LN3+72
	DD	imagerel $unwind$??$move@AEAV?$tuple@$$QEAH$$QEAH@std@@@std@@YA$$QEAV?$tuple@$$QEAH$$QEAH@0@AEAV10@@Z
pdata	ENDS
;	COMDAT pdata
pdata	SEGMENT
$pdata$??$_Fix@V?$tuple@$$QEAH$$QEAH@std@@@?$_Select_fixer@PEAUstA@?A0x4e02d121@@$0A@$0A@$0A@@std@@SAAEAPEAUstA@?A0x4e02d121@@AEAPEAU23@$$QEAV?$tuple@$$QEAH$$QEAH@1@@Z DD imagerel ??$_Fix@V?$tuple@$$QEAH$$QEAH@std@@@?$_Select_fixer@PEAUstA@?A0x4e02d121@@$0A@$0A@$0A@@std@@SAAEAPEAUstA@?A0x4e02d121@@AEAPEAU23@$$QEAV?$tuple@$$QEAH$$QEAH@1@@Z
	DD	imagerel ??$_Fix@V?$tuple@$$QEAH$$QEAH@std@@@?$_Select_fixer@PEAUstA@?A0x4e02d121@@$0A@$0A@$0A@@std@@SAAEAPEAUstA@?A0x4e02d121@@AEAPEAU23@$$QEAV?$tuple@$$QEAH$$QEAH@1@@Z+76
	DD	imagerel $unwind$??$_Fix@V?$tuple@$$QEAH$$QEAH@std@@@?$_Select_fixer@PEAUstA@?A0x4e02d121@@$0A@$0A@$0A@@std@@SAAEAPEAUstA@?A0x4e02d121@@AEAPEAU23@$$QEAV?$tuple@$$QEAH$$QEAH@1@@Z
pdata	ENDS
;	COMDAT pdata
pdata	SEGMENT
$pdata$??$_Fix_arg@PEAUstA@?A0x4e02d121@@V?$tuple@$$QEAH$$QEAH@std@@@std@@YAAEAPEAUstA@?A0x4e02d121@@AEAPEAU12@$$QEAV?$tuple@$$QEAH$$QEAH@0@@Z DD imagerel ??$_Fix_arg@PEAUstA@?A0x4e02d121@@V?$tuple@$$QEAH$$QEAH@std@@@std@@YAAEAPEAUstA@?A0x4e02d121@@AEAPEAU12@$$QEAV?$tuple@$$QEAH$$QEAH@0@@Z
	DD	imagerel ??$_Fix_arg@PEAUstA@?A0x4e02d121@@V?$tuple@$$QEAH$$QEAH@std@@@std@@YAAEAPEAUstA@?A0x4e02d121@@AEAPEAU12@$$QEAV?$tuple@$$QEAH$$QEAH@0@@Z+96
	DD	imagerel $unwind$??$_Fix_arg@PEAUstA@?A0x4e02d121@@V?$tuple@$$QEAH$$QEAH@std@@@std@@YAAEAPEAUstA@?A0x4e02d121@@AEAPEAU12@$$QEAV?$tuple@$$QEAH$$QEAH@0@@Z
pdata	ENDS
;	COMDAT pdata
pdata	SEGMENT
$pdata$??$get@$00PEAUstA@?A0x4e02d121@@U?$_Ph@$00@std@@U?$_Ph@$01@4@@std@@YAAEAU?$_Ph@$00@0@AEAV?$tuple@PEAUstA@?A0x4e02d121@@U?$_Ph@$00@std@@U?$_Ph@$01@4@@0@@Z DD imagerel ??$get@$00PEAUstA@?A0x4e02d121@@U?$_Ph@$00@std@@U?$_Ph@$01@4@@std@@YAAEAU?$_Ph@$00@0@AEAV?$tuple@PEAUstA@?A0x4e02d121@@U?$_Ph@$00@std@@U?$_Ph@$01@4@@0@@Z
	DD	imagerel ??$get@$00PEAUstA@?A0x4e02d121@@U?$_Ph@$00@std@@U?$_Ph@$01@4@@std@@YAAEAU?$_Ph@$00@0@AEAV?$tuple@PEAUstA@?A0x4e02d121@@U?$_Ph@$00@std@@U?$_Ph@$01@4@@0@@Z+75
	DD	imagerel $unwind$??$get@$00PEAUstA@?A0x4e02d121@@U?$_Ph@$00@std@@U?$_Ph@$01@4@@std@@YAAEAU?$_Ph@$00@0@AEAV?$tuple@PEAUstA@?A0x4e02d121@@U?$_Ph@$00@std@@U?$_Ph@$01@4@@0@@Z
pdata	ENDS
;	COMDAT pdata
pdata	SEGMENT
$pdata$??$get@$0A@$$QEAH$$QEAH@std@@YA$$QEAH$$QEAV?$tuple@$$QEAH$$QEAH@0@@Z DD imagerel $LN3
	DD	imagerel $LN3+76
	DD	imagerel $unwind$??$get@$0A@$$QEAH$$QEAH@std@@YA$$QEAH$$QEAV?$tuple@$$QEAH$$QEAH@0@@Z
pdata	ENDS
;	COMDAT pdata
pdata	SEGMENT
$pdata$??$_Fix@V?$tuple@$$QEAH$$QEAH@std@@@?$_Select_fixer@U?$_Ph@$00@std@@$0A@$0A@$00@std@@SA$$QEAHAEAU?$_Ph@$00@1@$$QEAV?$tuple@$$QEAH$$QEAH@1@@Z DD imagerel $LN3
	DD	imagerel $LN3+89
	DD	imagerel $unwind$??$_Fix@V?$tuple@$$QEAH$$QEAH@std@@@?$_Select_fixer@U?$_Ph@$00@std@@$0A@$0A@$00@std@@SA$$QEAHAEAU?$_Ph@$00@1@$$QEAV?$tuple@$$QEAH$$QEAH@1@@Z
pdata	ENDS
;	COMDAT pdata
pdata	SEGMENT
$pdata$??$_Fix_arg@U?$_Ph@$00@std@@V?$tuple@$$QEAH$$QEAH@2@@std@@YA$$QEAHAEAU?$_Ph@$00@0@$$QEAV?$tuple@$$QEAH$$QEAH@0@@Z DD imagerel $LN3
	DD	imagerel $LN3+96
	DD	imagerel $unwind$??$_Fix_arg@U?$_Ph@$00@std@@V?$tuple@$$QEAH$$QEAH@2@@std@@YA$$QEAHAEAU?$_Ph@$00@0@$$QEAV?$tuple@$$QEAH$$QEAH@0@@Z
pdata	ENDS
;	COMDAT pdata
pdata	SEGMENT
$pdata$??$get@$01PEAUstA@?A0x4e02d121@@U?$_Ph@$00@std@@U?$_Ph@$01@4@@std@@YAAEAU?$_Ph@$01@0@AEAV?$tuple@PEAUstA@?A0x4e02d121@@U?$_Ph@$00@std@@U?$_Ph@$01@4@@0@@Z DD imagerel ??$get@$01PEAUstA@?A0x4e02d121@@U?$_Ph@$00@std@@U?$_Ph@$01@4@@std@@YAAEAU?$_Ph@$01@0@AEAV?$tuple@PEAUstA@?A0x4e02d121@@U?$_Ph@$00@std@@U?$_Ph@$01@4@@0@@Z
	DD	imagerel ??$get@$01PEAUstA@?A0x4e02d121@@U?$_Ph@$00@std@@U?$_Ph@$01@4@@std@@YAAEAU?$_Ph@$01@0@AEAV?$tuple@PEAUstA@?A0x4e02d121@@U?$_Ph@$00@std@@U?$_Ph@$01@4@@0@@Z+72
	DD	imagerel $unwind$??$get@$01PEAUstA@?A0x4e02d121@@U?$_Ph@$00@std@@U?$_Ph@$01@4@@std@@YAAEAU?$_Ph@$01@0@AEAV?$tuple@PEAUstA@?A0x4e02d121@@U?$_Ph@$00@std@@U?$_Ph@$01@4@@0@@Z
pdata	ENDS
;	COMDAT pdata
pdata	SEGMENT
$pdata$??$get@$00$$QEAH$$QEAH@std@@YA$$QEAH$$QEAV?$tuple@$$QEAH$$QEAH@0@@Z DD imagerel $LN3
	DD	imagerel $LN3+75
	DD	imagerel $unwind$??$get@$00$$QEAH$$QEAH@std@@YA$$QEAH$$QEAV?$tuple@$$QEAH$$QEAH@0@@Z
pdata	ENDS
;	COMDAT pdata
pdata	SEGMENT
$pdata$??$_Fix@V?$tuple@$$QEAH$$QEAH@std@@@?$_Select_fixer@U?$_Ph@$01@std@@$0A@$0A@$01@std@@SA$$QEAHAEAU?$_Ph@$01@1@$$QEAV?$tuple@$$QEAH$$QEAH@1@@Z DD imagerel $LN3
	DD	imagerel $LN3+89
	DD	imagerel $unwind$??$_Fix@V?$tuple@$$QEAH$$QEAH@std@@@?$_Select_fixer@U?$_Ph@$01@std@@$0A@$0A@$01@std@@SA$$QEAHAEAU?$_Ph@$01@1@$$QEAV?$tuple@$$QEAH$$QEAH@1@@Z
pdata	ENDS
;	COMDAT pdata
pdata	SEGMENT
$pdata$??$_Fix_arg@U?$_Ph@$01@std@@V?$tuple@$$QEAH$$QEAH@2@@std@@YA$$QEAHAEAU?$_Ph@$01@0@$$QEAV?$tuple@$$QEAH$$QEAH@0@@Z DD imagerel $LN3
	DD	imagerel $LN3+96
	DD	imagerel $unwind$??$_Fix_arg@U?$_Ph@$01@std@@V?$tuple@$$QEAH$$QEAH@2@@std@@YA$$QEAHAEAU?$_Ph@$01@0@$$QEAV?$tuple@$$QEAH$$QEAH@0@@Z
pdata	ENDS
;	COMDAT pdata
pdata	SEGMENT
$pdata$??$forward@AEAP8stA@?A0x4e02d121@@EAAXHH@Z@std@@YAAEAP8stA@?A0x4e02d121@@EAAXHH@ZAEAP812@EAAXHH@Z@Z DD imagerel ??$forward@AEAP8stA@?A0x4e02d121@@EAAXHH@Z@std@@YAAEAP8stA@?A0x4e02d121@@EAAXHH@ZAEAP812@EAAXHH@Z@Z
	DD	imagerel ??$forward@AEAP8stA@?A0x4e02d121@@EAAXHH@Z@std@@YAAEAP8stA@?A0x4e02d121@@EAAXHH@ZAEAP812@EAAXHH@Z@Z+72
	DD	imagerel $unwind$??$forward@AEAP8stA@?A0x4e02d121@@EAAXHH@Z@std@@YAAEAP8stA@?A0x4e02d121@@EAAXHH@ZAEAP812@EAAXHH@Z@Z
pdata	ENDS
;	COMDAT pdata
pdata	SEGMENT
$pdata$??$forward@AEAPEAUstA@?A0x4e02d121@@@std@@YAAEAPEAUstA@?A0x4e02d121@@AEAPEAU12@@Z DD imagerel ??$forward@AEAPEAUstA@?A0x4e02d121@@@std@@YAAEAPEAUstA@?A0x4e02d121@@AEAPEAU12@@Z
	DD	imagerel ??$forward@AEAPEAUstA@?A0x4e02d121@@@std@@YAAEAPEAUstA@?A0x4e02d121@@AEAPEAU12@@Z+72
	DD	imagerel $unwind$??$forward@AEAPEAUstA@?A0x4e02d121@@@std@@YAAEAPEAUstA@?A0x4e02d121@@AEAPEAU12@@Z
pdata	ENDS
;	COMDAT pdata
pdata	SEGMENT
$pdata$??$_Call@P8stA@?A0x4e02d121@@EAAXHH@ZAEAPEAU12@HH@_Invoker_pmf_pointer@std@@SAXP8stA@?A0x4e02d121@@EAAXHH@ZAEAPEAU23@$$QEAH2@Z DD imagerel ??$_Call@P8stA@?A0x4e02d121@@EAAXHH@ZAEAPEAU12@HH@_Invoker_pmf_pointer@std@@SAXP8stA@?A0x4e02d121@@EAAXHH@ZAEAPEAU23@$$QEAH2@Z
	DD	imagerel ??$_Call@P8stA@?A0x4e02d121@@EAAXHH@ZAEAPEAU12@HH@_Invoker_pmf_pointer@std@@SAXP8stA@?A0x4e02d121@@EAAXHH@ZAEAPEAU23@$$QEAH2@Z+181
	DD	imagerel $unwind$??$_Call@P8stA@?A0x4e02d121@@EAAXHH@ZAEAPEAU12@HH@_Invoker_pmf_pointer@std@@SAXP8stA@?A0x4e02d121@@EAAXHH@ZAEAPEAU23@$$QEAH2@Z
pdata	ENDS
;	COMDAT pdata
pdata	SEGMENT
$pdata$??$invoke@AEAP8stA@?A0x4e02d121@@EAAXHH@ZAEAPEAU12@HH@std@@YAXAEAP8stA@?A0x4e02d121@@EAAXHH@ZAEAPEAU12@$$QEAH2@Z DD imagerel ??$invoke@AEAP8stA@?A0x4e02d121@@EAAXHH@ZAEAPEAU12@HH@std@@YAXAEAP8stA@?A0x4e02d121@@EAAXHH@ZAEAPEAU12@$$QEAH2@Z
	DD	imagerel ??$invoke@AEAP8stA@?A0x4e02d121@@EAAXHH@ZAEAPEAU12@HH@std@@YAXAEAP8stA@?A0x4e02d121@@EAAXHH@ZAEAPEAU12@$$QEAH2@Z+191
	DD	imagerel $unwind$??$invoke@AEAP8stA@?A0x4e02d121@@EAAXHH@ZAEAPEAU12@HH@std@@YAXAEAP8stA@?A0x4e02d121@@EAAXHH@ZAEAPEAU12@$$QEAH2@Z
pdata	ENDS
;	COMDAT pdata
pdata	SEGMENT
$pdata$??$_Call@AEAP8stA@?A0x4e02d121@@EAAXHH@ZAEAPEAU12@HH@?$_Invoker_ret@U_Unforced@std@@$0A@@std@@SAXAEAP8stA@?A0x4e02d121@@EAAXHH@ZAEAPEAU23@$$QEAH2@Z DD imagerel ??$_Call@AEAP8stA@?A0x4e02d121@@EAAXHH@ZAEAPEAU12@HH@?$_Invoker_ret@U_Unforced@std@@$0A@@std@@SAXAEAP8stA@?A0x4e02d121@@EAAXHH@ZAEAPEAU23@$$QEAH2@Z
	DD	imagerel ??$_Call@AEAP8stA@?A0x4e02d121@@EAAXHH@ZAEAPEAU12@HH@?$_Invoker_ret@U_Unforced@std@@$0A@@std@@SAXAEAP8stA@?A0x4e02d121@@EAAXHH@ZAEAPEAU23@$$QEAH2@Z+188
	DD	imagerel $unwind$??$_Call@AEAP8stA@?A0x4e02d121@@EAAXHH@ZAEAPEAU12@HH@?$_Invoker_ret@U_Unforced@std@@$0A@@std@@SAXAEAP8stA@?A0x4e02d121@@EAAXHH@ZAEAPEAU23@$$QEAH2@Z
pdata	ENDS
;	COMDAT pdata
pdata	SEGMENT
$pdata$??$_Call_binder@U_Unforced@std@@$0A@$00$01P8stA@?A0x4e02d121@@EAAXHH@ZV?$tuple@PEAUstA@?A0x4e02d121@@U?$_Ph@$00@std@@U?$_Ph@$01@4@@2@V?$tuple@$$QEAH$$QEAH@2@@std@@YAXU?$_Invoker_ret@U_Unforced@std@@$0A@@0@U?$integer_sequence@_K$0A@$00$01@0@AEAP8stA@?A0x4e02d121@@EAAXHH@ZAEAV?$tuple@PEAUstA@?A0x4e02d121@@U?$_Ph@$00@std@@U?$_Ph@$01@4@@0@$$QEAV?$tuple@$$QEAH$$QEAH@0@@Z DD imagerel ??$_Call_binder@U_Unforced@std@@$0A@$00$01P8stA@?A0x4e02d121@@EAAXHH@ZV?$tuple@PEAUstA@?A0x4e02d121@@U?$_Ph@$00@std@@U?$_Ph@$01@4@@2@V?$tuple@$$QEAH$$QEAH@2@@std@@YAXU?$_Invoker_ret@U_Unforced@std@@$0A@@0@U?$integer_sequence@_K$0A@$00$01@0@AEAP8stA@?A0x4e02d121@@EAAXHH@ZAEAV?$tuple@PEAUstA@?A0x4e02d121@@U?$_Ph@$00@std@@U?$_Ph@$01@4@@0@$$QEAV?$tuple@$$QEAH$$QEAH@0@@Z
	DD	imagerel ??$_Call_binder@U_Unforced@std@@$0A@$00$01P8stA@?A0x4e02d121@@EAAXHH@ZV?$tuple@PEAUstA@?A0x4e02d121@@U?$_Ph@$00@std@@U?$_Ph@$01@4@@2@V?$tuple@$$QEAH$$QEAH@2@@std@@YAXU?$_Invoker_ret@U_Unforced@std@@$0A@@0@U?$integer_sequence@_K$0A@$00$01@0@AEAP8stA@?A0x4e02d121@@EAAXHH@ZAEAV?$tuple@PEAUstA@?A0x4e02d121@@U?$_Ph@$00@std@@U?$_Ph@$01@4@@0@$$QEAV?$tuple@$$QEAH$$QEAH@0@@Z+302
	DD	imagerel $unwind$??$_Call_binder@U_Unforced@std@@$0A@$00$01P8stA@?A0x4e02d121@@EAAXHH@ZV?$tuple@PEAUstA@?A0x4e02d121@@U?$_Ph@$00@std@@U?$_Ph@$01@4@@2@V?$tuple@$$QEAH$$QEAH@2@@std@@YAXU?$_Invoker_ret@U_Unforced@std@@$0A@@0@U?$integer_sequence@_K$0A@$00$01@0@AEAP8stA@?A0x4e02d121@@EAAXHH@ZAEAV?$tuple@PEAUstA@?A0x4e02d121@@U?$_Ph@$00@std@@U?$_Ph@$01@4@@0@$$QEAV?$tuple@$$QEAH$$QEAH@0@@Z
pdata	ENDS
;	COMDAT pdata
pdata	SEGMENT
$pdata$??$?RHH@?$_Binder@U_Unforced@std@@P8stA@?A0x4e02d121@@EAAXHH@ZPEAU34@AEBU?$_Ph@$00@2@AEBU?$_Ph@$01@2@@std@@QEAAX$$QEAH0@Z DD imagerel ??$?RHH@?$_Binder@U_Unforced@std@@P8stA@?A0x4e02d121@@EAAXHH@ZPEAU34@AEBU?$_Ph@$00@2@AEBU?$_Ph@$01@2@@std@@QEAAX$$QEAH0@Z
	DD	imagerel ??$?RHH@?$_Binder@U_Unforced@std@@P8stA@?A0x4e02d121@@EAAXHH@ZPEAU34@AEBU?$_Ph@$00@2@AEBU?$_Ph@$01@2@@std@@QEAAX$$QEAH0@Z+271
	DD	imagerel $unwind$??$?RHH@?$_Binder@U_Unforced@std@@P8stA@?A0x4e02d121@@EAAXHH@ZPEAU34@AEBU?$_Ph@$00@2@AEBU?$_Ph@$01@2@@std@@QEAAX$$QEAH0@Z
pdata	ENDS
;	COMDAT pdata
pdata	SEGMENT
$pdata$??$_Call@AEAV?$_Binder@U_Unforced@std@@P8stA@?A0x4e02d121@@EAAXHH@ZPEAU34@AEBU?$_Ph@$00@2@AEBU?$_Ph@$01@2@@std@@HH@_Invoker_functor@std@@SAXAEAV?$_Binder@U_Unforced@std@@P8stA@?A0x4e02d121@@EAAXHH@ZPEAU34@AEBU?$_Ph@$00@2@AEBU?$_Ph@$01@2@@1@$$QEAH1@Z DD imagerel ??$_Call@AEAV?$_Binder@U_Unforced@std@@P8stA@?A0x4e02d121@@EAAXHH@ZPEAU34@AEBU?$_Ph@$00@2@AEBU?$_Ph@$01@2@@std@@HH@_Invoker_functor@std@@SAXAEAV?$_Binder@U_Unforced@std@@P8stA@?A0x4e02d121@@EAAXHH@ZPEAU34@AEBU?$_Ph@$00@2@AEBU?$_Ph@$01@2@@1@$$QEAH1@Z
	DD	imagerel ??$_Call@AEAV?$_Binder@U_Unforced@std@@P8stA@?A0x4e02d121@@EAAXHH@ZPEAU34@AEBU?$_Ph@$00@2@AEBU?$_Ph@$01@2@@std@@HH@_Invoker_functor@std@@SAXAEAV?$_Binder@U_Unforced@std@@P8stA@?A0x4e02d121@@EAAXHH@ZPEAU34@AEBU?$_Ph@$00@2@AEBU?$_Ph@$01@2@@1@$$QEAH1@Z+157
	DD	imagerel $unwind$??$_Call@AEAV?$_Binder@U_Unforced@std@@P8stA@?A0x4e02d121@@EAAXHH@ZPEAU34@AEBU?$_Ph@$00@2@AEBU?$_Ph@$01@2@@std@@HH@_Invoker_functor@std@@SAXAEAV?$_Binder@U_Unforced@std@@P8stA@?A0x4e02d121@@EAAXHH@ZPEAU34@AEBU?$_Ph@$00@2@AEBU?$_Ph@$01@2@@1@$$QEAH1@Z
pdata	ENDS
;	COMDAT pdata
pdata	SEGMENT
$pdata$??$invoke@AEAV?$_Binder@U_Unforced@std@@P8stA@?A0x4e02d121@@EAAXHH@ZPEAU34@AEBU?$_Ph@$00@2@AEBU?$_Ph@$01@2@@std@@HH@std@@YAXAEAV?$_Binder@U_Unforced@std@@P8stA@?A0x4e02d121@@EAAXHH@ZPEAU34@AEBU?$_Ph@$00@2@AEBU?$_Ph@$01@2@@0@$$QEAH1@Z DD imagerel ??$invoke@AEAV?$_Binder@U_Unforced@std@@P8stA@?A0x4e02d121@@EAAXHH@ZPEAU34@AEBU?$_Ph@$00@2@AEBU?$_Ph@$01@2@@std@@HH@std@@YAXAEAV?$_Binder@U_Unforced@std@@P8stA@?A0x4e02d121@@EAAXHH@ZPEAU34@AEBU?$_Ph@$00@2@AEBU?$_Ph@$01@2@@0@$$QEAH1@Z
	DD	imagerel ??$invoke@AEAV?$_Binder@U_Unforced@std@@P8stA@?A0x4e02d121@@EAAXHH@ZPEAU34@AEBU?$_Ph@$00@2@AEBU?$_Ph@$01@2@@std@@HH@std@@YAXAEAV?$_Binder@U_Unforced@std@@P8stA@?A0x4e02d121@@EAAXHH@ZPEAU34@AEBU?$_Ph@$00@2@AEBU?$_Ph@$01@2@@0@$$QEAH1@Z+157
	DD	imagerel $unwind$??$invoke@AEAV?$_Binder@U_Unforced@std@@P8stA@?A0x4e02d121@@EAAXHH@ZPEAU34@AEBU?$_Ph@$00@2@AEBU?$_Ph@$01@2@@std@@HH@std@@YAXAEAV?$_Binder@U_Unforced@std@@P8stA@?A0x4e02d121@@EAAXHH@ZPEAU34@AEBU?$_Ph@$00@2@AEBU?$_Ph@$01@2@@0@$$QEAH1@Z
pdata	ENDS
;	COMDAT pdata
pdata	SEGMENT
$pdata$??$?0V?$_Binder@U_Unforced@std@@P8stA@?A0x4e02d121@@EAAXHH@ZPEAU34@AEBU?$_Ph@$00@2@AEBU?$_Ph@$01@2@@std@@X@?$function@$$A6AXHH@Z@std@@QEAA@V?$_Binder@U_Unforced@std@@P8stA@?A0x4e02d121@@EAAXHH@ZPEAU34@AEBU?$_Ph@$00@2@AEBU?$_Ph@$01@2@@1@@Z DD imagerel ??$?0V?$_Binder@U_Unforced@std@@P8stA@?A0x4e02d121@@EAAXHH@ZPEAU34@AEBU?$_Ph@$00@2@AEBU?$_Ph@$01@2@@std@@X@?$function@$$A6AXHH@Z@std@@QEAA@V?$_Binder@U_Unforced@std@@P8stA@?A0x4e02d121@@EAAXHH@ZPEAU34@AEBU?$_Ph@$00@2@AEBU?$_Ph@$01@2@@1@@Z
	DD	imagerel ??$?0V?$_Binder@U_Unforced@std@@P8stA@?A0x4e02d121@@EAAXHH@ZPEAU34@AEBU?$_Ph@$00@2@AEBU?$_Ph@$01@2@@std@@X@?$function@$$A6AXHH@Z@std@@QEAA@V?$_Binder@U_Unforced@std@@P8stA@?A0x4e02d121@@EAAXHH@ZPEAU34@AEBU?$_Ph@$00@2@AEBU?$_Ph@$01@2@@1@@Z+117
	DD	imagerel $unwind$??$?0V?$_Binder@U_Unforced@std@@P8stA@?A0x4e02d121@@EAAXHH@ZPEAU34@AEBU?$_Ph@$00@2@AEBU?$_Ph@$01@2@@std@@X@?$function@$$A6AXHH@Z@std@@QEAA@V?$_Binder@U_Unforced@std@@P8stA@?A0x4e02d121@@EAAXHH@ZPEAU34@AEBU?$_Ph@$00@2@AEBU?$_Ph@$01@2@@1@@Z
pdata	ENDS
;	COMDAT pdata
pdata	SEGMENT
$pdata$?dtor$0@?0???$?0V?$_Binder@U_Unforced@std@@P8stA@?A0x4e02d121@@EAAXHH@ZPEAU34@AEBU?$_Ph@$00@2@AEBU?$_Ph@$01@2@@std@@X@?$function@$$A6AXHH@Z@std@@QEAA@V?$_Binder@U_Unforced@std@@P8stA@?A0x4e02d121@@EAAXHH@ZPEAU34@AEBU?$_Ph@$00@2@AEBU?$_Ph@$01@2@@1@@Z@4HA DD imagerel ?dtor$0@?0???$?0V?$_Binder@U_Unforced@std@@P8stA@?A0x4e02d121@@EAAXHH@ZPEAU34@AEBU?$_Ph@$00@2@AEBU?$_Ph@$01@2@@std@@X@?$function@$$A6AXHH@Z@std@@QEAA@V?$_Binder@U_Unforced@std@@P8stA@?A0x4e02d121@@EAAXHH@ZPEAU34@AEBU?$_Ph@$00@2@AEBU?$_Ph@$01@2@@1@@Z@4HA
	DD	imagerel ?dtor$0@?0???$?0V?$_Binder@U_Unforced@std@@P8stA@?A0x4e02d121@@EAAXHH@ZPEAU34@AEBU?$_Ph@$00@2@AEBU?$_Ph@$01@2@@std@@X@?$function@$$A6AXHH@Z@std@@QEAA@V?$_Binder@U_Unforced@std@@P8stA@?A0x4e02d121@@EAAXHH@ZPEAU34@AEBU?$_Ph@$00@2@AEBU?$_Ph@$01@2@@1@@Z@4HA+39
	DD	imagerel $unwind$?dtor$0@?0???$?0V?$_Binder@U_Unforced@std@@P8stA@?A0x4e02d121@@EAAXHH@ZPEAU34@AEBU?$_Ph@$00@2@AEBU?$_Ph@$01@2@@std@@X@?$function@$$A6AXHH@Z@std@@QEAA@V?$_Binder@U_Unforced@std@@P8stA@?A0x4e02d121@@EAAXHH@ZPEAU34@AEBU?$_Ph@$00@2@AEBU?$_Ph@$01@2@@1@@Z@4HA
pdata	ENDS
;	COMDAT pdata
pdata	SEGMENT
$pdata$??$Notify@AEAHAEAH@?$Events@V?$function@$$A6AXHH@Z@std@@@@QEAAXAEAH0@Z DD imagerel $LN6
	DD	imagerel $LN6+303
	DD	imagerel $unwind$??$Notify@AEAHAEAH@?$Events@V?$function@$$A6AXHH@Z@std@@@@QEAAXAEAH0@Z
pdata	ENDS
;	COMDAT pdata
pdata	SEGMENT
$pdata$??$Assign@AEBV?$function@$$A6AXHH@Z@std@@@?$Events@V?$function@$$A6AXHH@Z@std@@@@AEAAHAEBV?$function@$$A6AXHH@Z@std@@@Z DD imagerel $LN4
	DD	imagerel $LN4+184
	DD	imagerel $unwind$??$Assign@AEBV?$function@$$A6AXHH@Z@std@@@?$Events@V?$function@$$A6AXHH@Z@std@@@@AEAAHAEBV?$function@$$A6AXHH@Z@std@@@Z
pdata	ENDS
;	COMDAT pdata
pdata	SEGMENT
$pdata$??$forward@V?$function@$$A6AXHH@Z@std@@@std@@YA$$QEAV?$function@$$A6AXHH@Z@0@AEAV10@@Z DD imagerel $LN3
	DD	imagerel $LN3+72
	DD	imagerel $unwind$??$forward@V?$function@$$A6AXHH@Z@std@@@std@@YA$$QEAV?$function@$$A6AXHH@Z@0@AEAV10@@Z
pdata	ENDS
;	COMDAT pdata
pdata	SEGMENT
$pdata$??$Assign@V?$function@$$A6AXHH@Z@std@@@?$Events@V?$function@$$A6AXHH@Z@std@@@@AEAAH$$QEAV?$function@$$A6AXHH@Z@std@@@Z DD imagerel $LN4
	DD	imagerel $LN4+184
	DD	imagerel $unwind$??$Assign@V?$function@$$A6AXHH@Z@std@@@?$Events@V?$function@$$A6AXHH@Z@std@@@@AEAAH$$QEAV?$function@$$A6AXHH@Z@std@@@Z
pdata	ENDS
;	COMDAT pdata
pdata	SEGMENT
$pdata$??0_Sentry_base@?$basic_ostream@DU?$char_traits@D@std@@@std@@QEAA@AEAV12@@Z DD imagerel $LN4
	DD	imagerel $LN4+171
	DD	imagerel $unwind$??0_Sentry_base@?$basic_ostream@DU?$char_traits@D@std@@@std@@QEAA@AEAV12@@Z
pdata	ENDS
;	COMDAT pdata
pdata	SEGMENT
$pdata$??1_Sentry_base@?$basic_ostream@DU?$char_traits@D@std@@@std@@QEAA@XZ DD imagerel $LN4
	DD	imagerel $LN4+145
	DD	imagerel $unwind$??1_Sentry_base@?$basic_ostream@DU?$char_traits@D@std@@@std@@QEAA@XZ
pdata	ENDS
;	COMDAT pdata
pdata	SEGMENT
$pdata$??0sentry@?$basic_ostream@DU?$char_traits@D@std@@@std@@QEAA@AEAV12@@Z DD imagerel $LN7
	DD	imagerel $LN7+284
	DD	imagerel $unwind$??0sentry@?$basic_ostream@DU?$char_traits@D@std@@@std@@QEAA@AEAV12@@Z
pdata	ENDS
;	COMDAT pdata
pdata	SEGMENT
$pdata$?dtor$0@?0???0sentry@?$basic_ostream@DU?$char_traits@D@std@@@std@@QEAA@AEAV12@@Z@4HA DD imagerel ?dtor$0@?0???0sentry@?$basic_ostream@DU?$char_traits@D@std@@@std@@QEAA@AEAV12@@Z@4HA
	DD	imagerel ?dtor$0@?0???0sentry@?$basic_ostream@DU?$char_traits@D@std@@@std@@QEAA@AEAV12@@Z@4HA+39
	DD	imagerel $unwind$?dtor$0@?0???0sentry@?$basic_ostream@DU?$char_traits@D@std@@@std@@QEAA@AEAV12@@Z@4HA
pdata	ENDS
;	COMDAT pdata
pdata	SEGMENT
$pdata$??1sentry@?$basic_ostream@DU?$char_traits@D@std@@@std@@QEAA@XZ DD imagerel $LN4
	DD	imagerel $LN4+108
	DD	imagerel $unwind$??1sentry@?$basic_ostream@DU?$char_traits@D@std@@@std@@QEAA@XZ
pdata	ENDS
;	COMDAT pdata
pdata	SEGMENT
$pdata$??Bsentry@?$basic_ostream@DU?$char_traits@D@std@@@std@@QEBA_NXZ DD imagerel $LN3
	DD	imagerel $LN3+75
	DD	imagerel $unwind$??Bsentry@?$basic_ostream@DU?$char_traits@D@std@@@std@@QEBA_NXZ
pdata	ENDS
;	COMDAT pdata
pdata	SEGMENT
$pdata$?allocate@?$allocator@U_Container_proxy@std@@@std@@QEAAPEAU_Container_proxy@2@_K@Z DD imagerel $LN3
	DD	imagerel $LN3+89
	DD	imagerel $unwind$?allocate@?$allocator@U_Container_proxy@std@@@std@@QEAAPEAU_Container_proxy@2@_K@Z
pdata	ENDS
;	COMDAT pdata
pdata	SEGMENT
$pdata$??$_Delete_plain_internal@V?$allocator@U_Container_proxy@std@@@std@@@std@@YAXAEAV?$allocator@U_Container_proxy@std@@@0@QEAU_Container_proxy@0@@Z DD imagerel $LN3
	DD	imagerel $LN3+90
	DD	imagerel $unwind$??$_Delete_plain_internal@V?$allocator@U_Container_proxy@std@@@std@@@std@@YAXAEAV?$allocator@U_Container_proxy@std@@@0@QEAU_Container_proxy@0@@Z
pdata	ENDS
;	COMDAT pdata
pdata	SEGMENT
$pdata$??0?$_Container_proxy_ptr12@V?$allocator@U_Container_proxy@std@@@std@@@std@@QEAA@AEAV?$allocator@U_Container_proxy@std@@@1@AEAU_Container_base12@1@@Z DD imagerel $LN3
	DD	imagerel $LN3+195
	DD	imagerel $unwind$??0?$_Container_proxy_ptr12@V?$allocator@U_Container_proxy@std@@@std@@@std@@QEAA@AEAV?$allocator@U_Container_proxy@std@@@1@AEAU_Container_base12@1@@Z
pdata	ENDS
;	COMDAT pdata
pdata	SEGMENT
$pdata$??1?$_Container_proxy_ptr12@V?$allocator@U_Container_proxy@std@@@std@@@std@@QEAA@XZ DD imagerel $LN4
	DD	imagerel $LN4+105
	DD	imagerel $unwind$??1?$_Container_proxy_ptr12@V?$allocator@U_Container_proxy@std@@@std@@@std@@QEAA@XZ
pdata	ENDS
;	COMDAT pdata
pdata	SEGMENT
$pdata$??$_Unfancy@U_Container_proxy@std@@@std@@YAPEAU_Container_proxy@0@PEAU10@@Z DD imagerel $LN3
	DD	imagerel $LN3+71
	DD	imagerel $unwind$??$_Unfancy@U_Container_proxy@std@@@std@@YAPEAU_Container_proxy@0@PEAU10@@Z
pdata	ENDS
;	COMDAT pdata
pdata	SEGMENT
$pdata$??0?$_Func_base@XHH@std@@QEAA@XZ DD imagerel $LN3
	DD	imagerel $LN3+72
	DD	imagerel $unwind$??0?$_Func_base@XHH@std@@QEAA@XZ
pdata	ENDS
;	COMDAT pdata
pdata	SEGMENT
$pdata$??$_Erase_head@V?$allocator@U?$_Tree_node@U?$pair@$$CBHV?$function@$$A6AXHH@Z@std@@@std@@PEAX@std@@@std@@@?$_Tree_val@U?$_Tree_simple_types@U?$pair@$$CBHV?$function@$$A6AXHH@Z@std@@@std@@@std@@@std@@QEAAXAEAV?$allocator@U?$_Tree_node@U?$pair@$$CBHV?$function@$$A6AXHH@Z@std@@@std@@PEAX@std@@@1@@Z DD imagerel $LN3
	DD	imagerel $LN3+142
	DD	imagerel $unwind$??$_Erase_head@V?$allocator@U?$_Tree_node@U?$pair@$$CBHV?$function@$$A6AXHH@Z@std@@@std@@PEAX@std@@@std@@@?$_Tree_val@U?$_Tree_simple_types@U?$pair@$$CBHV?$function@$$A6AXHH@Z@std@@@std@@@std@@@std@@QEAAXAEAV?$allocator@U?$_Tree_node@U?$pair@$$CBHV?$function@$$A6AXHH@Z@std@@@std@@PEAX@std@@@1@@Z
pdata	ENDS
;	COMDAT pdata
pdata	SEGMENT
$pdata$??$?0U?$_Tree_node@U?$pair@$$CBHV?$function@$$A6AXHH@Z@std@@@std@@PEAX@std@@@?$allocator@U_Container_proxy@std@@@std@@QEAA@AEBV?$allocator@U?$_Tree_node@U?$pair@$$CBHV?$function@$$A6AXHH@Z@std@@@std@@PEAX@std@@@1@@Z DD imagerel $LN3
	DD	imagerel $LN3+77
	DD	imagerel $unwind$??$?0U?$_Tree_node@U?$pair@$$CBHV?$function@$$A6AXHH@Z@std@@@std@@PEAX@std@@@?$allocator@U_Container_proxy@std@@@std@@QEAA@AEBV?$allocator@U?$_Tree_node@U?$pair@$$CBHV?$function@$$A6AXHH@Z@std@@@std@@PEAX@std@@@1@@Z
pdata	ENDS
;	COMDAT pdata
pdata	SEGMENT
$pdata$??$_Allocate@$0BA@U_Default_allocate_traits@std@@$0A@@std@@YAPEAX_K@Z DD imagerel $LN5
	DD	imagerel $LN5+117
	DD	imagerel $unwind$??$_Allocate@$0BA@U_Default_allocate_traits@std@@$0A@@std@@YAPEAX_K@Z
pdata	ENDS
;	COMDAT pdata
pdata	SEGMENT
$pdata$??$_Deallocate@$0BA@$0A@@std@@YAXPEAX_K@Z DD imagerel $LN4
	DD	imagerel $LN4+123
	DD	imagerel $unwind$??$_Deallocate@$0BA@$0A@@std@@YAXPEAX_K@Z
pdata	ENDS
;	COMDAT pdata
pdata	SEGMENT
$pdata$??$_Get_size_of_n@$0BA@@std@@YA_K_K@Z DD imagerel $LN4
	DD	imagerel $LN4+114
	DD	imagerel $unwind$??$_Get_size_of_n@$0BA@@std@@YA_K_K@Z
pdata	ENDS
;	COMDAT pdata
pdata	SEGMENT
$pdata$??$addressof@V?$_Tree_val@U?$_Tree_simple_types@U?$pair@$$CBHV?$function@$$A6AXHH@Z@std@@@std@@@std@@@std@@@std@@YAPEAV?$_Tree_val@U?$_Tree_simple_types@U?$pair@$$CBHV?$function@$$A6AXHH@Z@std@@@std@@@std@@@0@AEAV10@@Z DD imagerel $LN3
	DD	imagerel $LN3+72
	DD	imagerel $unwind$??$addressof@V?$_Tree_val@U?$_Tree_simple_types@U?$pair@$$CBHV?$function@$$A6AXHH@Z@std@@@std@@@std@@@std@@@std@@YAPEAV?$_Tree_val@U?$_Tree_simple_types@U?$pair@$$CBHV?$function@$$A6AXHH@Z@std@@@std@@@std@@@0@AEAV10@@Z
pdata	ENDS
;	COMDAT pdata
pdata	SEGMENT
$pdata$??$?0AEBU?$less@H@std@@U_Zero_then_variadic_args_t@1@@?$_Compressed_pair@U?$less@H@std@@V?$_Compressed_pair@V?$allocator@U?$_Tree_node@U?$pair@$$CBHV?$function@$$A6AXHH@Z@std@@@std@@PEAX@std@@@std@@V?$_Tree_val@U?$_Tree_simple_types@U?$pair@$$CBHV?$function@$$A6AXHH@Z@std@@@std@@@std@@@2@$00@2@$00@std@@QEAA@U_One_then_variadic_args_t@1@AEBU?$less@H@1@$$QEAU_Zero_then_variadic_args_t@1@@Z DD imagerel $LN3
	DD	imagerel $LN3+138
	DD	imagerel $unwind$??$?0AEBU?$less@H@std@@U_Zero_then_variadic_args_t@1@@?$_Compressed_pair@U?$less@H@std@@V?$_Compressed_pair@V?$allocator@U?$_Tree_node@U?$pair@$$CBHV?$function@$$A6AXHH@Z@std@@@std@@PEAX@std@@@std@@V?$_Tree_val@U?$_Tree_simple_types@U?$pair@$$CBHV?$function@$$A6AXHH@Z@std@@@std@@@std@@@2@$00@2@$00@std@@QEAA@U_One_then_variadic_args_t@1@AEBU?$less@H@1@$$QEAU_Zero_then_variadic_args_t@1@@Z
pdata	ENDS
;	COMDAT pdata
pdata	SEGMENT
$pdata$??1?$pair@$$CBHV?$function@$$A6AXHH@Z@std@@@std@@QEAA@XZ DD imagerel $LN3
	DD	imagerel $LN3+71
	DD	imagerel $unwind$??1?$pair@$$CBHV?$function@$$A6AXHH@Z@std@@@std@@QEAA@XZ
pdata	ENDS
;	COMDAT pdata
pdata	SEGMENT
$pdata$??_G?$pair@$$CBHV?$function@$$A6AXHH@Z@std@@@std@@QEAAPEAXI@Z DD imagerel $LN4
	DD	imagerel $LN4+105
	DD	imagerel $unwind$??_G?$pair@$$CBHV?$function@$$A6AXHH@Z@std@@@std@@QEAAPEAXI@Z
pdata	ENDS
;	COMDAT pdata
pdata	SEGMENT
$pdata$??$_Buyheadnode@V?$allocator@U?$_Tree_node@U?$pair@$$CBHV?$function@$$A6AXHH@Z@std@@@std@@PEAX@std@@@std@@@?$_Tree_node@U?$pair@$$CBHV?$function@$$A6AXHH@Z@std@@@std@@PEAX@std@@SAPEAU01@AEAV?$allocator@U?$_Tree_node@U?$pair@$$CBHV?$function@$$A6AXHH@Z@std@@@std@@PEAX@std@@@1@@Z DD imagerel $LN3
	DD	imagerel $LN3+215
	DD	imagerel $unwind$??$_Buyheadnode@V?$allocator@U?$_Tree_node@U?$pair@$$CBHV?$function@$$A6AXHH@Z@std@@@std@@PEAX@std@@@std@@@?$_Tree_node@U?$pair@$$CBHV?$function@$$A6AXHH@Z@std@@@std@@PEAX@std@@SAPEAU01@AEAV?$allocator@U?$_Tree_node@U?$pair@$$CBHV?$function@$$A6AXHH@Z@std@@@std@@PEAX@std@@@1@@Z
pdata	ENDS
;	COMDAT pdata
pdata	SEGMENT
$pdata$??$addressof@U_Container_proxy@std@@@std@@YAPEAU_Container_proxy@0@AEAU10@@Z DD imagerel $LN3
	DD	imagerel $LN3+72
	DD	imagerel $unwind$??$addressof@U_Container_proxy@std@@@std@@YAPEAU_Container_proxy@0@AEAU10@@Z
pdata	ENDS
;	COMDAT pdata
pdata	SEGMENT
$pdata$??$forward@PEAU_Container_base12@std@@@std@@YA$$QEAPEAU_Container_base12@0@AEAPEAU10@@Z DD imagerel $LN3
	DD	imagerel $LN3+72
	DD	imagerel $unwind$??$forward@PEAU_Container_base12@std@@@std@@YA$$QEAPEAU_Container_base12@0@AEAPEAU10@@Z
pdata	ENDS
;	COMDAT pdata
pdata	SEGMENT
$pdata$??$move@AEAP6AXHH@Z@std@@YA$$QEAP6AXHH@ZAEAP6AXHH@Z@Z DD imagerel $LN3
	DD	imagerel $LN3+72
	DD	imagerel $unwind$??$move@AEAP6AXHH@Z@std@@YA$$QEAP6AXHH@ZAEAP6AXHH@Z@Z
pdata	ENDS
;	COMDAT pdata
pdata	SEGMENT
$pdata$??$_Reset@P6AXHH@Z@?$_Func_class@XHH@std@@IEAAX$$QEAP6AXHH@Z@Z DD imagerel $LN4
	DD	imagerel $LN4+170
	DD	imagerel $unwind$??$_Reset@P6AXHH@Z@?$_Func_class@XHH@std@@IEAAX$$QEAP6AXHH@Z@Z
pdata	ENDS
;	COMDAT pdata
pdata	SEGMENT
$pdata$??$move@AEAV<lambda_1>@?1??event_foo@@YAXXZ@@std@@YA$$QEAV<lambda_1>@?1??event_foo@@YAXXZ@AEAV1?1??2@YAXXZ@@Z DD imagerel ??$move@AEAV<lambda_1>@?1??event_foo@@YAXXZ@@std@@YA$$QEAV<lambda_1>@?1??event_foo@@YAXXZ@AEAV1?1??2@YAXXZ@@Z
	DD	imagerel ??$move@AEAV<lambda_1>@?1??event_foo@@YAXXZ@@std@@YA$$QEAV<lambda_1>@?1??event_foo@@YAXXZ@AEAV1?1??2@YAXXZ@@Z+72
	DD	imagerel $unwind$??$move@AEAV<lambda_1>@?1??event_foo@@YAXXZ@@std@@YA$$QEAV<lambda_1>@?1??event_foo@@YAXXZ@AEAV1?1??2@YAXXZ@@Z
pdata	ENDS
;	COMDAT pdata
pdata	SEGMENT
$pdata$??$_Reset@V<lambda_1>@?1??event_foo@@YAXXZ@@?$_Func_class@XHH@std@@IEAAX$$QEAV<lambda_1>@?1??event_foo@@YAXXZ@@Z DD imagerel ??$_Reset@V<lambda_1>@?1??event_foo@@YAXXZ@@?$_Func_class@XHH@std@@IEAAX$$QEAV<lambda_1>@?1??event_foo@@YAXXZ@@Z
	DD	imagerel ??$_Reset@V<lambda_1>@?1??event_foo@@YAXXZ@@?$_Func_class@XHH@std@@IEAAX$$QEAV<lambda_1>@?1??event_foo@@YAXXZ@@Z+170
	DD	imagerel $unwind$??$_Reset@V<lambda_1>@?1??event_foo@@YAXXZ@@?$_Func_class@XHH@std@@IEAAX$$QEAV<lambda_1>@?1??event_foo@@YAXXZ@@Z
pdata	ENDS
;	COMDAT pdata
pdata	SEGMENT
$pdata$??$forward@P8stA@?A0x4e02d121@@EAAXHH@Z@std@@YA$$QEAP8stA@?A0x4e02d121@@EAAXHH@ZAEAP812@EAAXHH@Z@Z DD imagerel ??$forward@P8stA@?A0x4e02d121@@EAAXHH@Z@std@@YA$$QEAP8stA@?A0x4e02d121@@EAAXHH@ZAEAP812@EAAXHH@Z@Z
	DD	imagerel ??$forward@P8stA@?A0x4e02d121@@EAAXHH@Z@std@@YA$$QEAP8stA@?A0x4e02d121@@EAAXHH@ZAEAP812@EAAXHH@Z@Z+72
	DD	imagerel $unwind$??$forward@P8stA@?A0x4e02d121@@EAAXHH@Z@std@@YA$$QEAP8stA@?A0x4e02d121@@EAAXHH@ZAEAP812@EAAXHH@Z@Z
pdata	ENDS
;	COMDAT pdata
pdata	SEGMENT
$pdata$??$forward@PEAUstA@?A0x4e02d121@@@std@@YA$$QEAPEAUstA@?A0x4e02d121@@AEAPEAU12@@Z DD imagerel ??$forward@PEAUstA@?A0x4e02d121@@@std@@YA$$QEAPEAUstA@?A0x4e02d121@@AEAPEAU12@@Z
	DD	imagerel ??$forward@PEAUstA@?A0x4e02d121@@@std@@YA$$QEAPEAUstA@?A0x4e02d121@@AEAPEAU12@@Z+72
	DD	imagerel $unwind$??$forward@PEAUstA@?A0x4e02d121@@@std@@YA$$QEAPEAUstA@?A0x4e02d121@@AEAPEAU12@@Z
pdata	ENDS
;	COMDAT pdata
pdata	SEGMENT
$pdata$??$forward@AEBU?$_Ph@$00@std@@@std@@YAAEBU?$_Ph@$00@0@AEBU10@@Z DD imagerel $LN3
	DD	imagerel $LN3+72
	DD	imagerel $unwind$??$forward@AEBU?$_Ph@$00@std@@@std@@YAAEBU?$_Ph@$00@0@AEBU10@@Z
pdata	ENDS
;	COMDAT pdata
pdata	SEGMENT
$pdata$??$forward@AEBU?$_Ph@$01@std@@@std@@YAAEBU?$_Ph@$01@0@AEBU10@@Z DD imagerel $LN3
	DD	imagerel $LN3+72
	DD	imagerel $unwind$??$forward@AEBU?$_Ph@$01@std@@@std@@YAAEBU?$_Ph@$01@0@AEBU10@@Z
pdata	ENDS
;	COMDAT pdata
pdata	SEGMENT
$pdata$??$move@AEAV?$_Binder@U_Unforced@std@@P8stA@?A0x4e02d121@@EAAXHH@ZPEAU34@AEBU?$_Ph@$00@2@AEBU?$_Ph@$01@2@@std@@@std@@YA$$QEAV?$_Binder@U_Unforced@std@@P8stA@?A0x4e02d121@@EAAXHH@ZPEAU34@AEBU?$_Ph@$00@2@AEBU?$_Ph@$01@2@@0@AEAV10@@Z DD imagerel ??$move@AEAV?$_Binder@U_Unforced@std@@P8stA@?A0x4e02d121@@EAAXHH@ZPEAU34@AEBU?$_Ph@$00@2@AEBU?$_Ph@$01@2@@std@@@std@@YA$$QEAV?$_Binder@U_Unforced@std@@P8stA@?A0x4e02d121@@EAAXHH@ZPEAU34@AEBU?$_Ph@$00@2@AEBU?$_Ph@$01@2@@0@AEAV10@@Z
	DD	imagerel ??$move@AEAV?$_Binder@U_Unforced@std@@P8stA@?A0x4e02d121@@EAAXHH@ZPEAU34@AEBU?$_Ph@$00@2@AEBU?$_Ph@$01@2@@std@@@std@@YA$$QEAV?$_Binder@U_Unforced@std@@P8stA@?A0x4e02d121@@EAAXHH@ZPEAU34@AEBU?$_Ph@$00@2@AEBU?$_Ph@$01@2@@0@AEAV10@@Z+72
	DD	imagerel $unwind$??$move@AEAV?$_Binder@U_Unforced@std@@P8stA@?A0x4e02d121@@EAAXHH@ZPEAU34@AEBU?$_Ph@$00@2@AEBU?$_Ph@$01@2@@std@@@std@@YA$$QEAV?$_Binder@U_Unforced@std@@P8stA@?A0x4e02d121@@EAAXHH@ZPEAU34@AEBU?$_Ph@$00@2@AEBU?$_Ph@$01@2@@0@AEAV10@@Z
pdata	ENDS
;	COMDAT pdata
pdata	SEGMENT
$pdata$??$_Reset@V?$_Binder@U_Unforced@std@@P8stA@?A0x4e02d121@@EAAXHH@ZPEAU34@AEBU?$_Ph@$00@2@AEBU?$_Ph@$01@2@@std@@@?$_Func_class@XHH@std@@IEAAX$$QEAV?$_Binder@U_Unforced@std@@P8stA@?A0x4e02d121@@EAAXHH@ZPEAU34@AEBU?$_Ph@$00@2@AEBU?$_Ph@$01@2@@1@@Z DD imagerel ??$_Reset@V?$_Binder@U_Unforced@std@@P8stA@?A0x4e02d121@@EAAXHH@ZPEAU34@AEBU?$_Ph@$00@2@AEBU?$_Ph@$01@2@@std@@@?$_Func_class@XHH@std@@IEAAX$$QEAV?$_Binder@U_Unforced@std@@P8stA@?A0x4e02d121@@EAAXHH@ZPEAU34@AEBU?$_Ph@$00@2@AEBU?$_Ph@$01@2@@1@@Z
	DD	imagerel ??$_Reset@V?$_Binder@U_Unforced@std@@P8stA@?A0x4e02d121@@EAAXHH@ZPEAU34@AEBU?$_Ph@$00@2@AEBU?$_Ph@$01@2@@std@@@?$_Func_class@XHH@std@@IEAAX$$QEAV?$_Binder@U_Unforced@std@@P8stA@?A0x4e02d121@@EAAXHH@ZPEAU34@AEBU?$_Ph@$00@2@AEBU?$_Ph@$01@2@@1@@Z+170
	DD	imagerel $unwind$??$_Reset@V?$_Binder@U_Unforced@std@@P8stA@?A0x4e02d121@@EAAXHH@ZPEAU34@AEBU?$_Ph@$00@2@AEBU?$_Ph@$01@2@@std@@@?$_Func_class@XHH@std@@IEAAX$$QEAV?$_Binder@U_Unforced@std@@P8stA@?A0x4e02d121@@EAAXHH@ZPEAU34@AEBU?$_Ph@$00@2@AEBU?$_Ph@$01@2@@1@@Z
pdata	ENDS
;	COMDAT pdata
pdata	SEGMENT
$pdata$??0?$_Tree_unchecked_const_iterator@V?$_Tree_val@U?$_Tree_simple_types@U?$pair@$$CBHV?$function@$$A6AXHH@Z@std@@@std@@@std@@@std@@U_Iterator_base0@2@@std@@QEAA@PEAU?$_Tree_node@U?$pair@$$CBHV?$function@$$A6AXHH@Z@std@@@std@@PEAX@1@PEBV?$_Tree_val@U?$_Tree_simple_types@U?$pair@$$CBHV?$function@$$A6AXHH@Z@std@@@std@@@std@@@1@@Z DD imagerel $LN3
	DD	imagerel $LN3+117
	DD	imagerel $unwind$??0?$_Tree_unchecked_const_iterator@V?$_Tree_val@U?$_Tree_simple_types@U?$pair@$$CBHV?$function@$$A6AXHH@Z@std@@@std@@@std@@@std@@U_Iterator_base0@2@@std@@QEAA@PEAU?$_Tree_node@U?$pair@$$CBHV?$function@$$A6AXHH@Z@std@@@std@@PEAX@1@PEBV?$_Tree_val@U?$_Tree_simple_types@U?$pair@$$CBHV?$function@$$A6AXHH@Z@std@@@std@@@std@@@1@@Z
pdata	ENDS
;	COMDAT pdata
pdata	SEGMENT
$pdata$??D?$_Tree_unchecked_const_iterator@V?$_Tree_val@U?$_Tree_simple_types@U?$pair@$$CBHV?$function@$$A6AXHH@Z@std@@@std@@@std@@@std@@U_Iterator_base0@2@@std@@QEBAAEBU?$pair@$$CBHV?$function@$$A6AXHH@Z@std@@@1@XZ DD imagerel $LN3
	DD	imagerel $LN3+78
	DD	imagerel $unwind$??D?$_Tree_unchecked_const_iterator@V?$_Tree_val@U?$_Tree_simple_types@U?$pair@$$CBHV?$function@$$A6AXHH@Z@std@@@std@@@std@@@std@@U_Iterator_base0@2@@std@@QEBAAEBU?$pair@$$CBHV?$function@$$A6AXHH@Z@std@@@1@XZ
pdata	ENDS
;	COMDAT pdata
pdata	SEGMENT
$pdata$??E?$_Tree_unchecked_const_iterator@V?$_Tree_val@U?$_Tree_simple_types@U?$pair@$$CBHV?$function@$$A6AXHH@Z@std@@@std@@@std@@@std@@U_Iterator_base0@2@@std@@QEAAAEAV01@XZ DD imagerel $LN7
	DD	imagerel $LN7+204
	DD	imagerel $unwind$??E?$_Tree_unchecked_const_iterator@V?$_Tree_val@U?$_Tree_simple_types@U?$pair@$$CBHV?$function@$$A6AXHH@Z@std@@@std@@@std@@@std@@U_Iterator_base0@2@@std@@QEAAAEAV01@XZ
pdata	ENDS
;	COMDAT pdata
pdata	SEGMENT
$pdata$??9?$_Tree_unchecked_const_iterator@V?$_Tree_val@U?$_Tree_simple_types@U?$pair@$$CBHV?$function@$$A6AXHH@Z@std@@@std@@@std@@@std@@U_Iterator_base0@2@@std@@QEBA_NU_Default_sentinel@1@@Z DD imagerel $LN5
	DD	imagerel $LN5+116
	DD	imagerel $unwind$??9?$_Tree_unchecked_const_iterator@V?$_Tree_val@U?$_Tree_simple_types@U?$pair@$$CBHV?$function@$$A6AXHH@Z@std@@@std@@@std@@@std@@U_Iterator_base0@2@@std@@QEBA_NU_Default_sentinel@1@@Z
pdata	ENDS
;	COMDAT pdata
pdata	SEGMENT
$pdata$??0?$_Tree_unchecked_iterator@V?$_Tree_val@U?$_Tree_simple_types@U?$pair@$$CBHV?$function@$$A6AXHH@Z@std@@@std@@@std@@@std@@@std@@QEAA@PEAU?$_Tree_node@U?$pair@$$CBHV?$function@$$A6AXHH@Z@std@@@std@@PEAX@1@PEBV?$_Tree_val@U?$_Tree_simple_types@U?$pair@$$CBHV?$function@$$A6AXHH@Z@std@@@std@@@std@@@1@@Z DD imagerel $LN3
	DD	imagerel $LN3+107
	DD	imagerel $unwind$??0?$_Tree_unchecked_iterator@V?$_Tree_val@U?$_Tree_simple_types@U?$pair@$$CBHV?$function@$$A6AXHH@Z@std@@@std@@@std@@@std@@@std@@QEAA@PEAU?$_Tree_node@U?$pair@$$CBHV?$function@$$A6AXHH@Z@std@@@std@@PEAX@1@PEBV?$_Tree_val@U?$_Tree_simple_types@U?$pair@$$CBHV?$function@$$A6AXHH@Z@std@@@std@@@std@@@1@@Z
pdata	ENDS
;	COMDAT pdata
pdata	SEGMENT
$pdata$??D?$_Tree_unchecked_iterator@V?$_Tree_val@U?$_Tree_simple_types@U?$pair@$$CBHV?$function@$$A6AXHH@Z@std@@@std@@@std@@@std@@@std@@QEBAAEAU?$pair@$$CBHV?$function@$$A6AXHH@Z@std@@@1@XZ DD imagerel $LN3
	DD	imagerel $LN3+76
	DD	imagerel $unwind$??D?$_Tree_unchecked_iterator@V?$_Tree_val@U?$_Tree_simple_types@U?$pair@$$CBHV?$function@$$A6AXHH@Z@std@@@std@@@std@@@std@@@std@@QEBAAEAU?$pair@$$CBHV?$function@$$A6AXHH@Z@std@@@1@XZ
pdata	ENDS
;	COMDAT pdata
pdata	SEGMENT
$pdata$??E?$_Tree_unchecked_iterator@V?$_Tree_val@U?$_Tree_simple_types@U?$pair@$$CBHV?$function@$$A6AXHH@Z@std@@@std@@@std@@@std@@@std@@QEAAAEAV01@XZ DD imagerel $LN3
	DD	imagerel $LN3+83
	DD	imagerel $unwind$??E?$_Tree_unchecked_iterator@V?$_Tree_val@U?$_Tree_simple_types@U?$pair@$$CBHV?$function@$$A6AXHH@Z@std@@@std@@@std@@@std@@@std@@QEAAAEAV01@XZ
pdata	ENDS
;	COMDAT pdata
pdata	SEGMENT
$pdata$?__autoclassinit2@?$_Tree_unchecked_iterator@V?$_Tree_val@U?$_Tree_simple_types@U?$pair@$$CBHV?$function@$$A6AXHH@Z@std@@@std@@@std@@@std@@@std@@QEAAX_K@Z DD imagerel $LN3
	DD	imagerel $LN3+73
	DD	imagerel $unwind$?__autoclassinit2@?$_Tree_unchecked_iterator@V?$_Tree_val@U?$_Tree_simple_types@U?$pair@$$CBHV?$function@$$A6AXHH@Z@std@@@std@@@std@@@std@@@std@@QEAAX_K@Z
pdata	ENDS
;	COMDAT pdata
pdata	SEGMENT
$pdata$??$forward@AEAH@std@@YAAEAHAEAH@Z DD imagerel $LN3
	DD	imagerel $LN3+72
	DD	imagerel $unwind$??$forward@AEAH@std@@YAAEAHAEAH@Z
pdata	ENDS
;	COMDAT pdata
pdata	SEGMENT
$pdata$??$forward@AEBV?$function@$$A6AXHH@Z@std@@@std@@YAAEBV?$function@$$A6AXHH@Z@0@AEBV10@@Z DD imagerel $LN3
	DD	imagerel $LN3+72
	DD	imagerel $unwind$??$forward@AEBV?$function@$$A6AXHH@Z@std@@@std@@YAAEBV?$function@$$A6AXHH@Z@0@AEBV10@@Z
pdata	ENDS
;	COMDAT pdata
pdata	SEGMENT
$pdata$??$emplace@AEAHAEBV?$function@$$A6AXHH@Z@std@@@?$_Tree@V?$_Tmap_traits@HV?$function@$$A6AXHH@Z@std@@U?$less@H@2@V?$allocator@U?$pair@$$CBHV?$function@$$A6AXHH@Z@std@@@std@@@2@$0A@@std@@@std@@QEAA?AU?$pair@V?$_Tree_iterator@V?$_Tree_val@U?$_Tree_simple_types@U?$pair@$$CBHV?$function@$$A6AXHH@Z@std@@@std@@@std@@@std@@@std@@_N@1@AEAHAEBV?$function@$$A6AXHH@Z@1@@Z DD imagerel $LN6
	DD	imagerel $LN6+306
	DD	imagerel $unwind$??$emplace@AEAHAEBV?$function@$$A6AXHH@Z@std@@@?$_Tree@V?$_Tmap_traits@HV?$function@$$A6AXHH@Z@std@@U?$less@H@2@V?$allocator@U?$pair@$$CBHV?$function@$$A6AXHH@Z@std@@@std@@@2@$0A@@std@@@std@@QEAA?AU?$pair@V?$_Tree_iterator@V?$_Tree_val@U?$_Tree_simple_types@U?$pair@$$CBHV?$function@$$A6AXHH@Z@std@@@std@@@std@@@std@@@std@@_N@1@AEAHAEBV?$function@$$A6AXHH@Z@1@@Z
pdata	ENDS
;	COMDAT pdata
pdata	SEGMENT
$pdata$??0?$_Tree_unchecked_const_iterator@V?$_Tree_val@U?$_Tree_simple_types@U?$pair@$$CBHV?$function@$$A6AXHH@Z@std@@@std@@@std@@@std@@U_Iterator_base12@2@@std@@QEAA@PEAU?$_Tree_node@U?$pair@$$CBHV?$function@$$A6AXHH@Z@std@@@std@@PEAX@1@PEBV?$_Tree_val@U?$_Tree_simple_types@U?$pair@$$CBHV?$function@$$A6AXHH@Z@std@@@std@@@std@@@1@@Z DD imagerel $LN4
	DD	imagerel $LN4+130
	DD	imagerel $unwind$??0?$_Tree_unchecked_const_iterator@V?$_Tree_val@U?$_Tree_simple_types@U?$pair@$$CBHV?$function@$$A6AXHH@Z@std@@@std@@@std@@@std@@U_Iterator_base12@2@@std@@QEAA@PEAU?$_Tree_node@U?$pair@$$CBHV?$function@$$A6AXHH@Z@std@@@std@@PEAX@1@PEBV?$_Tree_val@U?$_Tree_simple_types@U?$pair@$$CBHV?$function@$$A6AXHH@Z@std@@@std@@@std@@@1@@Z
pdata	ENDS
;	COMDAT pdata
pdata	SEGMENT
$pdata$??1?$_Tree_unchecked_const_iterator@V?$_Tree_val@U?$_Tree_simple_types@U?$pair@$$CBHV?$function@$$A6AXHH@Z@std@@@std@@@std@@@std@@U_Iterator_base12@2@@std@@QEAA@XZ DD imagerel $LN3
	DD	imagerel $LN3+64
	DD	imagerel $unwind$??1?$_Tree_unchecked_const_iterator@V?$_Tree_val@U?$_Tree_simple_types@U?$pair@$$CBHV?$function@$$A6AXHH@Z@std@@@std@@@std@@@std@@U_Iterator_base12@2@@std@@QEAA@XZ
pdata	ENDS
;	COMDAT pdata
pdata	SEGMENT
$pdata$??0?$_Tree_unchecked_const_iterator@V?$_Tree_val@U?$_Tree_simple_types@U?$pair@$$CBHV?$function@$$A6AXHH@Z@std@@@std@@@std@@@std@@U_Iterator_base12@2@@std@@QEAA@$$QEAV01@@Z DD imagerel $LN3
	DD	imagerel $LN3+105
	DD	imagerel $unwind$??0?$_Tree_unchecked_const_iterator@V?$_Tree_val@U?$_Tree_simple_types@U?$pair@$$CBHV?$function@$$A6AXHH@Z@std@@@std@@@std@@@std@@U_Iterator_base12@2@@std@@QEAA@$$QEAV01@@Z
pdata	ENDS
;	COMDAT pdata
pdata	SEGMENT
$pdata$??0?$_Tree_const_iterator@V?$_Tree_val@U?$_Tree_simple_types@U?$pair@$$CBHV?$function@$$A6AXHH@Z@std@@@std@@@std@@@std@@@std@@QEAA@PEAU?$_Tree_node@U?$pair@$$CBHV?$function@$$A6AXHH@Z@std@@@std@@PEAX@1@PEBV?$_Tree_val@U?$_Tree_simple_types@U?$pair@$$CBHV?$function@$$A6AXHH@Z@std@@@std@@@std@@@1@@Z DD imagerel $LN4
	DD	imagerel $LN4+107
	DD	imagerel $unwind$??0?$_Tree_const_iterator@V?$_Tree_val@U?$_Tree_simple_types@U?$pair@$$CBHV?$function@$$A6AXHH@Z@std@@@std@@@std@@@std@@@std@@QEAA@PEAU?$_Tree_node@U?$pair@$$CBHV?$function@$$A6AXHH@Z@std@@@std@@PEAX@1@PEBV?$_Tree_val@U?$_Tree_simple_types@U?$pair@$$CBHV?$function@$$A6AXHH@Z@std@@@std@@@std@@@1@@Z
pdata	ENDS
;	COMDAT pdata
pdata	SEGMENT
$pdata$??1?$_Tree_const_iterator@V?$_Tree_val@U?$_Tree_simple_types@U?$pair@$$CBHV?$function@$$A6AXHH@Z@std@@@std@@@std@@@std@@@std@@QEAA@XZ DD imagerel $LN3
	DD	imagerel $LN3+64
	DD	imagerel $unwind$??1?$_Tree_const_iterator@V?$_Tree_val@U?$_Tree_simple_types@U?$pair@$$CBHV?$function@$$A6AXHH@Z@std@@@std@@@std@@@std@@@std@@QEAA@XZ
pdata	ENDS
;	COMDAT pdata
pdata	SEGMENT
$pdata$??0?$_Tree_const_iterator@V?$_Tree_val@U?$_Tree_simple_types@U?$pair@$$CBHV?$function@$$A6AXHH@Z@std@@@std@@@std@@@std@@@std@@QEAA@$$QEAV01@@Z DD imagerel $LN3
	DD	imagerel $LN3+83
	DD	imagerel $unwind$??0?$_Tree_const_iterator@V?$_Tree_val@U?$_Tree_simple_types@U?$pair@$$CBHV?$function@$$A6AXHH@Z@std@@@std@@@std@@@std@@@std@@QEAA@$$QEAV01@@Z
pdata	ENDS
;	COMDAT pdata
pdata	SEGMENT
$pdata$??0?$_Tree_iterator@V?$_Tree_val@U?$_Tree_simple_types@U?$pair@$$CBHV?$function@$$A6AXHH@Z@std@@@std@@@std@@@std@@@std@@QEAA@PEAU?$_Tree_node@U?$pair@$$CBHV?$function@$$A6AXHH@Z@std@@@std@@PEAX@1@PEBV?$_Tree_val@U?$_Tree_simple_types@U?$pair@$$CBHV?$function@$$A6AXHH@Z@std@@@std@@@std@@@1@@Z DD imagerel $LN4
	DD	imagerel $LN4+107
	DD	imagerel $unwind$??0?$_Tree_iterator@V?$_Tree_val@U?$_Tree_simple_types@U?$pair@$$CBHV?$function@$$A6AXHH@Z@std@@@std@@@std@@@std@@@std@@QEAA@PEAU?$_Tree_node@U?$pair@$$CBHV?$function@$$A6AXHH@Z@std@@@std@@PEAX@1@PEBV?$_Tree_val@U?$_Tree_simple_types@U?$pair@$$CBHV?$function@$$A6AXHH@Z@std@@@std@@@std@@@1@@Z
pdata	ENDS
;	COMDAT pdata
pdata	SEGMENT
$pdata$??1?$_Tree_iterator@V?$_Tree_val@U?$_Tree_simple_types@U?$pair@$$CBHV?$function@$$A6AXHH@Z@std@@@std@@@std@@@std@@@std@@QEAA@XZ DD imagerel $LN3
	DD	imagerel $LN3+64
	DD	imagerel $unwind$??1?$_Tree_iterator@V?$_Tree_val@U?$_Tree_simple_types@U?$pair@$$CBHV?$function@$$A6AXHH@Z@std@@@std@@@std@@@std@@@std@@QEAA@XZ
pdata	ENDS
;	COMDAT pdata
pdata	SEGMENT
$pdata$??0?$_Tree_iterator@V?$_Tree_val@U?$_Tree_simple_types@U?$pair@$$CBHV?$function@$$A6AXHH@Z@std@@@std@@@std@@@std@@@std@@QEAA@$$QEAV01@@Z DD imagerel $LN3
	DD	imagerel $LN3+83
	DD	imagerel $unwind$??0?$_Tree_iterator@V?$_Tree_val@U?$_Tree_simple_types@U?$pair@$$CBHV?$function@$$A6AXHH@Z@std@@@std@@@std@@@std@@@std@@QEAA@$$QEAV01@@Z
pdata	ENDS
;	COMDAT pdata
pdata	SEGMENT
$pdata$??1?$pair@V?$_Tree_iterator@V?$_Tree_val@U?$_Tree_simple_types@U?$pair@$$CBHV?$function@$$A6AXHH@Z@std@@@std@@@std@@@std@@@std@@_N@std@@QEAA@XZ DD imagerel $LN3
	DD	imagerel $LN3+67
	DD	imagerel $unwind$??1?$pair@V?$_Tree_iterator@V?$_Tree_val@U?$_Tree_simple_types@U?$pair@$$CBHV?$function@$$A6AXHH@Z@std@@@std@@@std@@@std@@@std@@_N@std@@QEAA@XZ
pdata	ENDS
;	COMDAT pdata
pdata	SEGMENT
$pdata$??$emplace@AEAHV?$function@$$A6AXHH@Z@std@@@?$_Tree@V?$_Tmap_traits@HV?$function@$$A6AXHH@Z@std@@U?$less@H@2@V?$allocator@U?$pair@$$CBHV?$function@$$A6AXHH@Z@std@@@std@@@2@$0A@@std@@@std@@QEAA?AU?$pair@V?$_Tree_iterator@V?$_Tree_val@U?$_Tree_simple_types@U?$pair@$$CBHV?$function@$$A6AXHH@Z@std@@@std@@@std@@@std@@@std@@_N@1@AEAH$$QEAV?$function@$$A6AXHH@Z@1@@Z DD imagerel $LN6
	DD	imagerel $LN6+306
	DD	imagerel $unwind$??$emplace@AEAHV?$function@$$A6AXHH@Z@std@@@?$_Tree@V?$_Tmap_traits@HV?$function@$$A6AXHH@Z@std@@U?$less@H@2@V?$allocator@U?$pair@$$CBHV?$function@$$A6AXHH@Z@std@@@std@@@2@$0A@@std@@@std@@QEAA?AU?$pair@V?$_Tree_iterator@V?$_Tree_val@U?$_Tree_simple_types@U?$pair@$$CBHV?$function@$$A6AXHH@Z@std@@@std@@@std@@@std@@@std@@_N@1@AEAH$$QEAV?$function@$$A6AXHH@Z@1@@Z
pdata	ENDS
;	COMDAT pdata
pdata	SEGMENT
$pdata$??$_Deallocate_plain@V?$allocator@U_Container_proxy@std@@@std@@@std@@YAXAEAV?$allocator@U_Container_proxy@std@@@0@QEAU_Container_proxy@0@@Z DD imagerel $LN3
	DD	imagerel $LN3+96
	DD	imagerel $unwind$??$_Deallocate_plain@V?$allocator@U_Container_proxy@std@@@std@@@std@@YAXAEAV?$allocator@U_Container_proxy@std@@@0@QEAU_Container_proxy@0@@Z
pdata	ENDS
;	COMDAT pdata
pdata	SEGMENT
$pdata$??$_Erase_tree@V?$allocator@U?$_Tree_node@U?$pair@$$CBHV?$function@$$A6AXHH@Z@std@@@std@@PEAX@std@@@std@@@?$_Tree_val@U?$_Tree_simple_types@U?$pair@$$CBHV?$function@$$A6AXHH@Z@std@@@std@@@std@@@std@@QEAAXAEAV?$allocator@U?$_Tree_node@U?$pair@$$CBHV?$function@$$A6AXHH@Z@std@@@std@@PEAX@std@@@1@PEAU?$_Tree_node@U?$pair@$$CBHV?$function@$$A6AXHH@Z@std@@@std@@PEAX@1@@Z DD imagerel $LN5
	DD	imagerel $LN5+162
	DD	imagerel $unwind$??$_Erase_tree@V?$allocator@U?$_Tree_node@U?$pair@$$CBHV?$function@$$A6AXHH@Z@std@@@std@@PEAX@std@@@std@@@?$_Tree_val@U?$_Tree_simple_types@U?$pair@$$CBHV?$function@$$A6AXHH@Z@std@@@std@@@std@@@std@@QEAAXAEAV?$allocator@U?$_Tree_node@U?$pair@$$CBHV?$function@$$A6AXHH@Z@std@@@std@@PEAX@std@@@1@PEAU?$_Tree_node@U?$pair@$$CBHV?$function@$$A6AXHH@Z@std@@@std@@PEAX@1@@Z
pdata	ENDS
;	COMDAT pdata
pdata	SEGMENT
$pdata$??$_Freenode0@V?$allocator@U?$_Tree_node@U?$pair@$$CBHV?$function@$$A6AXHH@Z@std@@@std@@PEAX@std@@@std@@@?$_Tree_node@U?$pair@$$CBHV?$function@$$A6AXHH@Z@std@@@std@@PEAX@std@@SAXAEAV?$allocator@U?$_Tree_node@U?$pair@$$CBHV?$function@$$A6AXHH@Z@std@@@std@@PEAX@std@@@1@PEAU01@@Z DD imagerel $LN3
	DD	imagerel $LN3+152
	DD	imagerel $unwind$??$_Freenode0@V?$allocator@U?$_Tree_node@U?$pair@$$CBHV?$function@$$A6AXHH@Z@std@@@std@@PEAX@std@@@std@@@?$_Tree_node@U?$pair@$$CBHV?$function@$$A6AXHH@Z@std@@@std@@PEAX@std@@SAXAEAV?$allocator@U?$_Tree_node@U?$pair@$$CBHV?$function@$$A6AXHH@Z@std@@@std@@PEAX@std@@@1@PEAU01@@Z
pdata	ENDS
;	COMDAT pdata
pdata	SEGMENT
$pdata$??$_Allocate_manually_vector_aligned@U_Default_allocate_traits@std@@@std@@YAPEAX_K@Z DD imagerel $LN13
	DD	imagerel $LN13+300
	DD	imagerel $unwind$??$_Allocate_manually_vector_aligned@U_Default_allocate_traits@std@@@std@@YAPEAX_K@Z
pdata	ENDS
;	COMDAT pdata
pdata	SEGMENT
$pdata$??$forward@AEBU?$less@H@std@@@std@@YAAEBU?$less@H@0@AEBU10@@Z DD imagerel $LN3
	DD	imagerel $LN3+72
	DD	imagerel $unwind$??$forward@AEBU?$less@H@std@@@std@@YAAEBU?$less@H@0@AEBU10@@Z
pdata	ENDS
;	COMDAT pdata
pdata	SEGMENT
$pdata$??$forward@U_Zero_then_variadic_args_t@std@@@std@@YA$$QEAU_Zero_then_variadic_args_t@0@AEAU10@@Z DD imagerel $LN3
	DD	imagerel $LN3+72
	DD	imagerel $unwind$??$forward@U_Zero_then_variadic_args_t@std@@@std@@YA$$QEAU_Zero_then_variadic_args_t@0@AEAU10@@Z
pdata	ENDS
;	COMDAT pdata
pdata	SEGMENT
$pdata$??$_Construct_in_place@PEAU?$_Tree_node@U?$pair@$$CBHV?$function@$$A6AXHH@Z@std@@@std@@PEAX@std@@AEBQEAU12@@std@@YAXAEAPEAU?$_Tree_node@U?$pair@$$CBHV?$function@$$A6AXHH@Z@std@@@std@@PEAX@0@AEBQEAU10@@Z DD imagerel $LN3
	DD	imagerel $LN3+130
	DD	imagerel $unwind$??$_Construct_in_place@PEAU?$_Tree_node@U?$pair@$$CBHV?$function@$$A6AXHH@Z@std@@@std@@PEAX@std@@AEBQEAU12@@std@@YAXAEAPEAU?$_Tree_node@U?$pair@$$CBHV?$function@$$A6AXHH@Z@std@@@std@@PEAX@0@AEBQEAU10@@Z
pdata	ENDS
;	COMDAT pdata
pdata	SEGMENT
$pdata$??$?0P8stA@?A0x4e02d121@@EAAXHH@ZPEAU01@AEBU?$_Ph@$00@std@@AEBU?$_Ph@$01@3@@?$_Compressed_pair@P8stA@?A0x4e02d121@@EAAXHH@ZV?$tuple@PEAUstA@?A0x4e02d121@@U?$_Ph@$00@std@@U?$_Ph@$01@4@@std@@$0A@@std@@QEAA@U_One_then_variadic_args_t@1@$$QEAP8stA@?A0x4e02d121@@EAAXHH@Z$$QEAPEAU34@AEBU?$_Ph@$00@1@AEBU?$_Ph@$01@1@@Z DD imagerel ??$?0P8stA@?A0x4e02d121@@EAAXHH@ZPEAU01@AEBU?$_Ph@$00@std@@AEBU?$_Ph@$01@3@@?$_Compressed_pair@P8stA@?A0x4e02d121@@EAAXHH@ZV?$tuple@PEAUstA@?A0x4e02d121@@U?$_Ph@$00@std@@U?$_Ph@$01@4@@std@@$0A@@std@@QEAA@U_One_then_variadic_args_t@1@$$QEAP8stA@?A0x4e02d121@@EAAXHH@Z$$QEAPEAU34@AEBU?$_Ph@$00@1@AEBU?$_Ph@$01@1@@Z
	DD	imagerel ??$?0P8stA@?A0x4e02d121@@EAAXHH@ZPEAU01@AEBU?$_Ph@$00@std@@AEBU?$_Ph@$01@3@@?$_Compressed_pair@P8stA@?A0x4e02d121@@EAAXHH@ZV?$tuple@PEAUstA@?A0x4e02d121@@U?$_Ph@$00@std@@U?$_Ph@$01@4@@std@@$0A@@std@@QEAA@U_One_then_variadic_args_t@1@$$QEAP8stA@?A0x4e02d121@@EAAXHH@Z$$QEAPEAU34@AEBU?$_Ph@$00@1@AEBU?$_Ph@$01@1@@Z+218
	DD	imagerel $unwind$??$?0P8stA@?A0x4e02d121@@EAAXHH@ZPEAU01@AEBU?$_Ph@$00@std@@AEBU?$_Ph@$01@3@@?$_Compressed_pair@P8stA@?A0x4e02d121@@EAAXHH@ZV?$tuple@PEAUstA@?A0x4e02d121@@U?$_Ph@$00@std@@U?$_Ph@$01@4@@std@@$0A@@std@@QEAA@U_One_then_variadic_args_t@1@$$QEAP8stA@?A0x4e02d121@@EAAXHH@Z$$QEAPEAU34@AEBU?$_Ph@$00@1@AEBU?$_Ph@$01@1@@Z
pdata	ENDS
;	COMDAT pdata
pdata	SEGMENT
$pdata$??$_Get_size_of_n@$0GI@@std@@YA_K_K@Z DD imagerel $LN4
	DD	imagerel $LN4+114
	DD	imagerel $unwind$??$_Get_size_of_n@$0GI@@std@@YA_K_K@Z
pdata	ENDS
;	COMDAT pdata
pdata	SEGMENT
$pdata$??$_Test_callable@P6AXHH@Z@std@@YA_NAEBQ6AXHH@Z@Z DD imagerel $LN5
	DD	imagerel $LN5+107
	DD	imagerel $unwind$??$_Test_callable@P6AXHH@Z@std@@YA_NAEBQ6AXHH@Z@Z
pdata	ENDS
;	COMDAT pdata
pdata	SEGMENT
$pdata$?_Copy@?$_Func_impl_no_alloc@P6AXHH@ZXHH@std@@EEBAPEAV?$_Func_base@XHH@2@PEAX@Z DD imagerel $LN3
	DD	imagerel $LN3+119
	DD	imagerel $unwind$?_Copy@?$_Func_impl_no_alloc@P6AXHH@ZXHH@std@@EEBAPEAV?$_Func_base@XHH@2@PEAX@Z
pdata	ENDS
;	COMDAT pdata
pdata	SEGMENT
$pdata$?_Move@?$_Func_impl_no_alloc@P6AXHH@ZXHH@std@@EEAAPEAV?$_Func_base@XHH@2@PEAX@Z DD imagerel $LN3
	DD	imagerel $LN3+142
	DD	imagerel $unwind$?_Move@?$_Func_impl_no_alloc@P6AXHH@ZXHH@std@@EEAAPEAV?$_Func_base@XHH@2@PEAX@Z
pdata	ENDS
;	COMDAT pdata
pdata	SEGMENT
$pdata$?_Do_call@?$_Func_impl_no_alloc@P6AXHH@ZXHH@std@@EEAAX$$QEAH0@Z DD imagerel $LN3
	DD	imagerel $LN3+145
	DD	imagerel $unwind$?_Do_call@?$_Func_impl_no_alloc@P6AXHH@ZXHH@std@@EEAAX$$QEAH0@Z
pdata	ENDS
;	COMDAT pdata
pdata	SEGMENT
$pdata$?_Target_type@?$_Func_impl_no_alloc@P6AXHH@ZXHH@std@@EEBAAEBVtype_info@@XZ DD imagerel $LN3
	DD	imagerel $LN3+72
	DD	imagerel $unwind$?_Target_type@?$_Func_impl_no_alloc@P6AXHH@ZXHH@std@@EEBAAEBVtype_info@@XZ
pdata	ENDS
;	COMDAT pdata
pdata	SEGMENT
$pdata$?_Get@?$_Func_impl_no_alloc@P6AXHH@ZXHH@std@@EEBAPEBXXZ DD imagerel $LN3
	DD	imagerel $LN3+85
	DD	imagerel $unwind$?_Get@?$_Func_impl_no_alloc@P6AXHH@ZXHH@std@@EEBAPEBXXZ
pdata	ENDS
;	COMDAT pdata
pdata	SEGMENT
$pdata$?_Delete_this@?$_Func_impl_no_alloc@P6AXHH@ZXHH@std@@EEAAX_N@Z DD imagerel $LN4
	DD	imagerel $LN4+98
	DD	imagerel $unwind$?_Delete_this@?$_Func_impl_no_alloc@P6AXHH@ZXHH@std@@EEAAX_N@Z
pdata	ENDS
;	COMDAT pdata
pdata	SEGMENT
$pdata$??$forward@P6AXHH@Z@std@@YA$$QEAP6AXHH@ZAEAP6AXHH@Z@Z DD imagerel $LN3
	DD	imagerel $LN3+72
	DD	imagerel $unwind$??$forward@P6AXHH@Z@std@@YA$$QEAP6AXHH@ZAEAP6AXHH@Z@Z
pdata	ENDS
;	COMDAT pdata
pdata	SEGMENT
$pdata$??$?0P6AXHH@ZX@?$_Func_impl_no_alloc@P6AXHH@ZXHH@std@@QEAA@$$QEAP6AXHH@Z@Z DD imagerel $LN3
	DD	imagerel $LN3+131
	DD	imagerel $unwind$??$?0P6AXHH@ZX@?$_Func_impl_no_alloc@P6AXHH@ZXHH@std@@QEAA@$$QEAP6AXHH@Z@Z
pdata	ENDS
;	COMDAT pdata
pdata	SEGMENT
$pdata$??$_Test_callable@V<lambda_1>@?1??event_foo@@YAXXZ@@std@@YA_NAEBV<lambda_1>@?1??event_foo@@YAXXZ@@Z DD imagerel ??$_Test_callable@V<lambda_1>@?1??event_foo@@YAXXZ@@std@@YA_NAEBV<lambda_1>@?1??event_foo@@YAXXZ@@Z
	DD	imagerel ??$_Test_callable@V<lambda_1>@?1??event_foo@@YAXXZ@@std@@YA_NAEBV<lambda_1>@?1??event_foo@@YAXXZ@@Z+67
	DD	imagerel $unwind$??$_Test_callable@V<lambda_1>@?1??event_foo@@YAXXZ@@std@@YA_NAEBV<lambda_1>@?1??event_foo@@YAXXZ@@Z
pdata	ENDS
;	COMDAT pdata
pdata	SEGMENT
$pdata$?_Copy@?$_Func_impl_no_alloc@V<lambda_1>@?1??event_foo@@YAXXZ@XHH@std@@EEBAPEAV?$_Func_base@XHH@2@PEAX@Z DD imagerel ?_Copy@?$_Func_impl_no_alloc@V<lambda_1>@?1??event_foo@@YAXXZ@XHH@std@@EEBAPEAV?$_Func_base@XHH@2@PEAX@Z
	DD	imagerel ?_Copy@?$_Func_impl_no_alloc@V<lambda_1>@?1??event_foo@@YAXXZ@XHH@std@@EEBAPEAV?$_Func_base@XHH@2@PEAX@Z+119
	DD	imagerel $unwind$?_Copy@?$_Func_impl_no_alloc@V<lambda_1>@?1??event_foo@@YAXXZ@XHH@std@@EEBAPEAV?$_Func_base@XHH@2@PEAX@Z
pdata	ENDS
;	COMDAT pdata
pdata	SEGMENT
$pdata$?_Move@?$_Func_impl_no_alloc@V<lambda_1>@?1??event_foo@@YAXXZ@XHH@std@@EEAAPEAV?$_Func_base@XHH@2@PEAX@Z DD imagerel ?_Move@?$_Func_impl_no_alloc@V<lambda_1>@?1??event_foo@@YAXXZ@XHH@std@@EEAAPEAV?$_Func_base@XHH@2@PEAX@Z
	DD	imagerel ?_Move@?$_Func_impl_no_alloc@V<lambda_1>@?1??event_foo@@YAXXZ@XHH@std@@EEAAPEAV?$_Func_base@XHH@2@PEAX@Z+142
	DD	imagerel $unwind$?_Move@?$_Func_impl_no_alloc@V<lambda_1>@?1??event_foo@@YAXXZ@XHH@std@@EEAAPEAV?$_Func_base@XHH@2@PEAX@Z
pdata	ENDS
;	COMDAT pdata
pdata	SEGMENT
$pdata$?_Do_call@?$_Func_impl_no_alloc@V<lambda_1>@?1??event_foo@@YAXXZ@XHH@std@@EEAAX$$QEAH0@Z DD imagerel ?_Do_call@?$_Func_impl_no_alloc@V<lambda_1>@?1??event_foo@@YAXXZ@XHH@std@@EEAAX$$QEAH0@Z
	DD	imagerel ?_Do_call@?$_Func_impl_no_alloc@V<lambda_1>@?1??event_foo@@YAXXZ@XHH@std@@EEAAX$$QEAH0@Z+145
	DD	imagerel $unwind$?_Do_call@?$_Func_impl_no_alloc@V<lambda_1>@?1??event_foo@@YAXXZ@XHH@std@@EEAAX$$QEAH0@Z
pdata	ENDS
;	COMDAT pdata
pdata	SEGMENT
$pdata$?_Target_type@?$_Func_impl_no_alloc@V<lambda_1>@?1??event_foo@@YAXXZ@XHH@std@@EEBAAEBVtype_info@@XZ DD imagerel ?_Target_type@?$_Func_impl_no_alloc@V<lambda_1>@?1??event_foo@@YAXXZ@XHH@std@@EEBAAEBVtype_info@@XZ
	DD	imagerel ?_Target_type@?$_Func_impl_no_alloc@V<lambda_1>@?1??event_foo@@YAXXZ@XHH@std@@EEBAAEBVtype_info@@XZ+72
	DD	imagerel $unwind$?_Target_type@?$_Func_impl_no_alloc@V<lambda_1>@?1??event_foo@@YAXXZ@XHH@std@@EEBAAEBVtype_info@@XZ
pdata	ENDS
;	COMDAT pdata
pdata	SEGMENT
$pdata$?_Get@?$_Func_impl_no_alloc@V<lambda_1>@?1??event_foo@@YAXXZ@XHH@std@@EEBAPEBXXZ DD imagerel ?_Get@?$_Func_impl_no_alloc@V<lambda_1>@?1??event_foo@@YAXXZ@XHH@std@@EEBAPEBXXZ
	DD	imagerel ?_Get@?$_Func_impl_no_alloc@V<lambda_1>@?1??event_foo@@YAXXZ@XHH@std@@EEBAPEBXXZ+85
	DD	imagerel $unwind$?_Get@?$_Func_impl_no_alloc@V<lambda_1>@?1??event_foo@@YAXXZ@XHH@std@@EEBAPEBXXZ
pdata	ENDS
;	COMDAT pdata
pdata	SEGMENT
$pdata$?_Delete_this@?$_Func_impl_no_alloc@V<lambda_1>@?1??event_foo@@YAXXZ@XHH@std@@EEAAX_N@Z DD imagerel ?_Delete_this@?$_Func_impl_no_alloc@V<lambda_1>@?1??event_foo@@YAXXZ@XHH@std@@EEAAX_N@Z
	DD	imagerel ?_Delete_this@?$_Func_impl_no_alloc@V<lambda_1>@?1??event_foo@@YAXXZ@XHH@std@@EEAAX_N@Z+98
	DD	imagerel $unwind$?_Delete_this@?$_Func_impl_no_alloc@V<lambda_1>@?1??event_foo@@YAXXZ@XHH@std@@EEAAX_N@Z
pdata	ENDS
;	COMDAT pdata
pdata	SEGMENT
$pdata$??$forward@V<lambda_1>@?1??event_foo@@YAXXZ@@std@@YA$$QEAV<lambda_1>@?1??event_foo@@YAXXZ@AEAV1?1??2@YAXXZ@@Z DD imagerel ??$forward@V<lambda_1>@?1??event_foo@@YAXXZ@@std@@YA$$QEAV<lambda_1>@?1??event_foo@@YAXXZ@AEAV1?1??2@YAXXZ@@Z
	DD	imagerel ??$forward@V<lambda_1>@?1??event_foo@@YAXXZ@@std@@YA$$QEAV<lambda_1>@?1??event_foo@@YAXXZ@AEAV1?1??2@YAXXZ@@Z+72
	DD	imagerel $unwind$??$forward@V<lambda_1>@?1??event_foo@@YAXXZ@@std@@YA$$QEAV<lambda_1>@?1??event_foo@@YAXXZ@AEAV1?1??2@YAXXZ@@Z
pdata	ENDS
;	COMDAT pdata
pdata	SEGMENT
$pdata$??$?0V<lambda_1>@?1??event_foo@@YAXXZ@X@?$_Func_impl_no_alloc@V<lambda_1>@?1??event_foo@@YAXXZ@XHH@std@@QEAA@$$QEAV<lambda_1>@?1??event_foo@@YAXXZ@@Z DD imagerel ??$?0V<lambda_1>@?1??event_foo@@YAXXZ@X@?$_Func_impl_no_alloc@V<lambda_1>@?1??event_foo@@YAXXZ@XHH@std@@QEAA@$$QEAV<lambda_1>@?1??event_foo@@YAXXZ@@Z
	DD	imagerel ??$?0V<lambda_1>@?1??event_foo@@YAXXZ@X@?$_Func_impl_no_alloc@V<lambda_1>@?1??event_foo@@YAXXZ@XHH@std@@QEAA@$$QEAV<lambda_1>@?1??event_foo@@YAXXZ@@Z+117
	DD	imagerel $unwind$??$?0V<lambda_1>@?1??event_foo@@YAXXZ@X@?$_Func_impl_no_alloc@V<lambda_1>@?1??event_foo@@YAXXZ@XHH@std@@QEAA@$$QEAV<lambda_1>@?1??event_foo@@YAXXZ@@Z
pdata	ENDS
;	COMDAT pdata
pdata	SEGMENT
$pdata$??$_Test_callable@V?$_Binder@U_Unforced@std@@P8stA@?A0x4e02d121@@EAAXHH@ZPEAU34@AEBU?$_Ph@$00@2@AEBU?$_Ph@$01@2@@std@@@std@@YA_NAEBV?$_Binder@U_Unforced@std@@P8stA@?A0x4e02d121@@EAAXHH@ZPEAU34@AEBU?$_Ph@$00@2@AEBU?$_Ph@$01@2@@0@@Z DD imagerel ??$_Test_callable@V?$_Binder@U_Unforced@std@@P8stA@?A0x4e02d121@@EAAXHH@ZPEAU34@AEBU?$_Ph@$00@2@AEBU?$_Ph@$01@2@@std@@@std@@YA_NAEBV?$_Binder@U_Unforced@std@@P8stA@?A0x4e02d121@@EAAXHH@ZPEAU34@AEBU?$_Ph@$00@2@AEBU?$_Ph@$01@2@@0@@Z
	DD	imagerel ??$_Test_callable@V?$_Binder@U_Unforced@std@@P8stA@?A0x4e02d121@@EAAXHH@ZPEAU34@AEBU?$_Ph@$00@2@AEBU?$_Ph@$01@2@@std@@@std@@YA_NAEBV?$_Binder@U_Unforced@std@@P8stA@?A0x4e02d121@@EAAXHH@ZPEAU34@AEBU?$_Ph@$00@2@AEBU?$_Ph@$01@2@@0@@Z+67
	DD	imagerel $unwind$??$_Test_callable@V?$_Binder@U_Unforced@std@@P8stA@?A0x4e02d121@@EAAXHH@ZPEAU34@AEBU?$_Ph@$00@2@AEBU?$_Ph@$01@2@@std@@@std@@YA_NAEBV?$_Binder@U_Unforced@std@@P8stA@?A0x4e02d121@@EAAXHH@ZPEAU34@AEBU?$_Ph@$00@2@AEBU?$_Ph@$01@2@@0@@Z
pdata	ENDS
;	COMDAT pdata
pdata	SEGMENT
$pdata$?_Copy@?$_Func_impl_no_alloc@V?$_Binder@U_Unforced@std@@P8stA@?A0x4e02d121@@EAAXHH@ZPEAU34@AEBU?$_Ph@$00@2@AEBU?$_Ph@$01@2@@std@@XHH@std@@EEBAPEAV?$_Func_base@XHH@2@PEAX@Z DD imagerel ?_Copy@?$_Func_impl_no_alloc@V?$_Binder@U_Unforced@std@@P8stA@?A0x4e02d121@@EAAXHH@ZPEAU34@AEBU?$_Ph@$00@2@AEBU?$_Ph@$01@2@@std@@XHH@std@@EEBAPEAV?$_Func_base@XHH@2@PEAX@Z
	DD	imagerel ?_Copy@?$_Func_impl_no_alloc@V?$_Binder@U_Unforced@std@@P8stA@?A0x4e02d121@@EAAXHH@ZPEAU34@AEBU?$_Ph@$00@2@AEBU?$_Ph@$01@2@@std@@XHH@std@@EEBAPEAV?$_Func_base@XHH@2@PEAX@Z+119
	DD	imagerel $unwind$?_Copy@?$_Func_impl_no_alloc@V?$_Binder@U_Unforced@std@@P8stA@?A0x4e02d121@@EAAXHH@ZPEAU34@AEBU?$_Ph@$00@2@AEBU?$_Ph@$01@2@@std@@XHH@std@@EEBAPEAV?$_Func_base@XHH@2@PEAX@Z
pdata	ENDS
;	COMDAT pdata
pdata	SEGMENT
$pdata$?_Move@?$_Func_impl_no_alloc@V?$_Binder@U_Unforced@std@@P8stA@?A0x4e02d121@@EAAXHH@ZPEAU34@AEBU?$_Ph@$00@2@AEBU?$_Ph@$01@2@@std@@XHH@std@@EEAAPEAV?$_Func_base@XHH@2@PEAX@Z DD imagerel ?_Move@?$_Func_impl_no_alloc@V?$_Binder@U_Unforced@std@@P8stA@?A0x4e02d121@@EAAXHH@ZPEAU34@AEBU?$_Ph@$00@2@AEBU?$_Ph@$01@2@@std@@XHH@std@@EEAAPEAV?$_Func_base@XHH@2@PEAX@Z
	DD	imagerel ?_Move@?$_Func_impl_no_alloc@V?$_Binder@U_Unforced@std@@P8stA@?A0x4e02d121@@EAAXHH@ZPEAU34@AEBU?$_Ph@$00@2@AEBU?$_Ph@$01@2@@std@@XHH@std@@EEAAPEAV?$_Func_base@XHH@2@PEAX@Z+142
	DD	imagerel $unwind$?_Move@?$_Func_impl_no_alloc@V?$_Binder@U_Unforced@std@@P8stA@?A0x4e02d121@@EAAXHH@ZPEAU34@AEBU?$_Ph@$00@2@AEBU?$_Ph@$01@2@@std@@XHH@std@@EEAAPEAV?$_Func_base@XHH@2@PEAX@Z
pdata	ENDS
;	COMDAT pdata
pdata	SEGMENT
$pdata$?_Do_call@?$_Func_impl_no_alloc@V?$_Binder@U_Unforced@std@@P8stA@?A0x4e02d121@@EAAXHH@ZPEAU34@AEBU?$_Ph@$00@2@AEBU?$_Ph@$01@2@@std@@XHH@std@@EEAAX$$QEAH0@Z DD imagerel ?_Do_call@?$_Func_impl_no_alloc@V?$_Binder@U_Unforced@std@@P8stA@?A0x4e02d121@@EAAXHH@ZPEAU34@AEBU?$_Ph@$00@2@AEBU?$_Ph@$01@2@@std@@XHH@std@@EEAAX$$QEAH0@Z
	DD	imagerel ?_Do_call@?$_Func_impl_no_alloc@V?$_Binder@U_Unforced@std@@P8stA@?A0x4e02d121@@EAAXHH@ZPEAU34@AEBU?$_Ph@$00@2@AEBU?$_Ph@$01@2@@std@@XHH@std@@EEAAX$$QEAH0@Z+145
	DD	imagerel $unwind$?_Do_call@?$_Func_impl_no_alloc@V?$_Binder@U_Unforced@std@@P8stA@?A0x4e02d121@@EAAXHH@ZPEAU34@AEBU?$_Ph@$00@2@AEBU?$_Ph@$01@2@@std@@XHH@std@@EEAAX$$QEAH0@Z
pdata	ENDS
;	COMDAT pdata
pdata	SEGMENT
$pdata$?_Target_type@?$_Func_impl_no_alloc@V?$_Binder@U_Unforced@std@@P8stA@?A0x4e02d121@@EAAXHH@ZPEAU34@AEBU?$_Ph@$00@2@AEBU?$_Ph@$01@2@@std@@XHH@std@@EEBAAEBVtype_info@@XZ DD imagerel ?_Target_type@?$_Func_impl_no_alloc@V?$_Binder@U_Unforced@std@@P8stA@?A0x4e02d121@@EAAXHH@ZPEAU34@AEBU?$_Ph@$00@2@AEBU?$_Ph@$01@2@@std@@XHH@std@@EEBAAEBVtype_info@@XZ
	DD	imagerel ?_Target_type@?$_Func_impl_no_alloc@V?$_Binder@U_Unforced@std@@P8stA@?A0x4e02d121@@EAAXHH@ZPEAU34@AEBU?$_Ph@$00@2@AEBU?$_Ph@$01@2@@std@@XHH@std@@EEBAAEBVtype_info@@XZ+72
	DD	imagerel $unwind$?_Target_type@?$_Func_impl_no_alloc@V?$_Binder@U_Unforced@std@@P8stA@?A0x4e02d121@@EAAXHH@ZPEAU34@AEBU?$_Ph@$00@2@AEBU?$_Ph@$01@2@@std@@XHH@std@@EEBAAEBVtype_info@@XZ
pdata	ENDS
;	COMDAT pdata
pdata	SEGMENT
$pdata$?_Get@?$_Func_impl_no_alloc@V?$_Binder@U_Unforced@std@@P8stA@?A0x4e02d121@@EAAXHH@ZPEAU34@AEBU?$_Ph@$00@2@AEBU?$_Ph@$01@2@@std@@XHH@std@@EEBAPEBXXZ DD imagerel ?_Get@?$_Func_impl_no_alloc@V?$_Binder@U_Unforced@std@@P8stA@?A0x4e02d121@@EAAXHH@ZPEAU34@AEBU?$_Ph@$00@2@AEBU?$_Ph@$01@2@@std@@XHH@std@@EEBAPEBXXZ
	DD	imagerel ?_Get@?$_Func_impl_no_alloc@V?$_Binder@U_Unforced@std@@P8stA@?A0x4e02d121@@EAAXHH@ZPEAU34@AEBU?$_Ph@$00@2@AEBU?$_Ph@$01@2@@std@@XHH@std@@EEBAPEBXXZ+85
	DD	imagerel $unwind$?_Get@?$_Func_impl_no_alloc@V?$_Binder@U_Unforced@std@@P8stA@?A0x4e02d121@@EAAXHH@ZPEAU34@AEBU?$_Ph@$00@2@AEBU?$_Ph@$01@2@@std@@XHH@std@@EEBAPEBXXZ
pdata	ENDS
;	COMDAT pdata
pdata	SEGMENT
$pdata$?_Delete_this@?$_Func_impl_no_alloc@V?$_Binder@U_Unforced@std@@P8stA@?A0x4e02d121@@EAAXHH@ZPEAU34@AEBU?$_Ph@$00@2@AEBU?$_Ph@$01@2@@std@@XHH@std@@EEAAX_N@Z DD imagerel ?_Delete_this@?$_Func_impl_no_alloc@V?$_Binder@U_Unforced@std@@P8stA@?A0x4e02d121@@EAAXHH@ZPEAU34@AEBU?$_Ph@$00@2@AEBU?$_Ph@$01@2@@std@@XHH@std@@EEAAX_N@Z
	DD	imagerel ?_Delete_this@?$_Func_impl_no_alloc@V?$_Binder@U_Unforced@std@@P8stA@?A0x4e02d121@@EAAXHH@ZPEAU34@AEBU?$_Ph@$00@2@AEBU?$_Ph@$01@2@@std@@XHH@std@@EEAAX_N@Z+98
	DD	imagerel $unwind$?_Delete_this@?$_Func_impl_no_alloc@V?$_Binder@U_Unforced@std@@P8stA@?A0x4e02d121@@EAAXHH@ZPEAU34@AEBU?$_Ph@$00@2@AEBU?$_Ph@$01@2@@std@@XHH@std@@EEAAX_N@Z
pdata	ENDS
;	COMDAT pdata
pdata	SEGMENT
$pdata$??$forward@V?$_Binder@U_Unforced@std@@P8stA@?A0x4e02d121@@EAAXHH@ZPEAU34@AEBU?$_Ph@$00@2@AEBU?$_Ph@$01@2@@std@@@std@@YA$$QEAV?$_Binder@U_Unforced@std@@P8stA@?A0x4e02d121@@EAAXHH@ZPEAU34@AEBU?$_Ph@$00@2@AEBU?$_Ph@$01@2@@0@AEAV10@@Z DD imagerel ??$forward@V?$_Binder@U_Unforced@std@@P8stA@?A0x4e02d121@@EAAXHH@ZPEAU34@AEBU?$_Ph@$00@2@AEBU?$_Ph@$01@2@@std@@@std@@YA$$QEAV?$_Binder@U_Unforced@std@@P8stA@?A0x4e02d121@@EAAXHH@ZPEAU34@AEBU?$_Ph@$00@2@AEBU?$_Ph@$01@2@@0@AEAV10@@Z
	DD	imagerel ??$forward@V?$_Binder@U_Unforced@std@@P8stA@?A0x4e02d121@@EAAXHH@ZPEAU34@AEBU?$_Ph@$00@2@AEBU?$_Ph@$01@2@@std@@@std@@YA$$QEAV?$_Binder@U_Unforced@std@@P8stA@?A0x4e02d121@@EAAXHH@ZPEAU34@AEBU?$_Ph@$00@2@AEBU?$_Ph@$01@2@@0@AEAV10@@Z+72
	DD	imagerel $unwind$??$forward@V?$_Binder@U_Unforced@std@@P8stA@?A0x4e02d121@@EAAXHH@ZPEAU34@AEBU?$_Ph@$00@2@AEBU?$_Ph@$01@2@@std@@@std@@YA$$QEAV?$_Binder@U_Unforced@std@@P8stA@?A0x4e02d121@@EAAXHH@ZPEAU34@AEBU?$_Ph@$00@2@AEBU?$_Ph@$01@2@@0@AEAV10@@Z
pdata	ENDS
;	COMDAT pdata
pdata	SEGMENT
$pdata$??$?0V?$_Binder@U_Unforced@std@@P8stA@?A0x4e02d121@@EAAXHH@ZPEAU34@AEBU?$_Ph@$00@2@AEBU?$_Ph@$01@2@@std@@X@?$_Func_impl_no_alloc@V?$_Binder@U_Unforced@std@@P8stA@?A0x4e02d121@@EAAXHH@ZPEAU34@AEBU?$_Ph@$00@2@AEBU?$_Ph@$01@2@@std@@XHH@std@@QEAA@$$QEAV?$_Binder@U_Unforced@std@@P8stA@?A0x4e02d121@@EAAXHH@ZPEAU34@AEBU?$_Ph@$00@2@AEBU?$_Ph@$01@2@@1@@Z DD imagerel ??$?0V?$_Binder@U_Unforced@std@@P8stA@?A0x4e02d121@@EAAXHH@ZPEAU34@AEBU?$_Ph@$00@2@AEBU?$_Ph@$01@2@@std@@X@?$_Func_impl_no_alloc@V?$_Binder@U_Unforced@std@@P8stA@?A0x4e02d121@@EAAXHH@ZPEAU34@AEBU?$_Ph@$00@2@AEBU?$_Ph@$01@2@@std@@XHH@std@@QEAA@$$QEAV?$_Binder@U_Unforced@std@@P8stA@?A0x4e02d121@@EAAXHH@ZPEAU34@AEBU?$_Ph@$00@2@AEBU?$_Ph@$01@2@@1@@Z
	DD	imagerel ??$?0V?$_Binder@U_Unforced@std@@P8stA@?A0x4e02d121@@EAAXHH@ZPEAU34@AEBU?$_Ph@$00@2@AEBU?$_Ph@$01@2@@std@@X@?$_Func_impl_no_alloc@V?$_Binder@U_Unforced@std@@P8stA@?A0x4e02d121@@EAAXHH@ZPEAU34@AEBU?$_Ph@$00@2@AEBU?$_Ph@$01@2@@std@@XHH@std@@QEAA@$$QEAV?$_Binder@U_Unforced@std@@P8stA@?A0x4e02d121@@EAAXHH@ZPEAU34@AEBU?$_Ph@$00@2@AEBU?$_Ph@$01@2@@1@@Z+150
	DD	imagerel $unwind$??$?0V?$_Binder@U_Unforced@std@@P8stA@?A0x4e02d121@@EAAXHH@ZPEAU34@AEBU?$_Ph@$00@2@AEBU?$_Ph@$01@2@@std@@X@?$_Func_impl_no_alloc@V?$_Binder@U_Unforced@std@@P8stA@?A0x4e02d121@@EAAXHH@ZPEAU34@AEBU?$_Ph@$00@2@AEBU?$_Ph@$01@2@@std@@XHH@std@@QEAA@$$QEAV?$_Binder@U_Unforced@std@@P8stA@?A0x4e02d121@@EAAXHH@ZPEAU34@AEBU?$_Ph@$00@2@AEBU?$_Ph@$01@2@@1@@Z
pdata	ENDS
;	COMDAT pdata
pdata	SEGMENT
$pdata$??$_Emplace@AEAHAEBV?$function@$$A6AXHH@Z@std@@@?$_Tree@V?$_Tmap_traits@HV?$function@$$A6AXHH@Z@std@@U?$less@H@2@V?$allocator@U?$pair@$$CBHV?$function@$$A6AXHH@Z@std@@@std@@@2@$0A@@std@@@std@@IEAA?AU?$pair@PEAU?$_Tree_node@U?$pair@$$CBHV?$function@$$A6AXHH@Z@std@@@std@@PEAX@std@@_N@1@AEAHAEBV?$function@$$A6AXHH@Z@1@@Z DD imagerel $LN5
	DD	imagerel $LN5+538
	DD	imagerel $unwind$??$_Emplace@AEAHAEBV?$function@$$A6AXHH@Z@std@@@?$_Tree@V?$_Tmap_traits@HV?$function@$$A6AXHH@Z@std@@U?$less@H@2@V?$allocator@U?$pair@$$CBHV?$function@$$A6AXHH@Z@std@@@std@@@2@$0A@@std@@@std@@IEAA?AU?$pair@PEAU?$_Tree_node@U?$pair@$$CBHV?$function@$$A6AXHH@Z@std@@@std@@PEAX@std@@_N@1@AEAHAEBV?$function@$$A6AXHH@Z@1@@Z
pdata	ENDS
;	COMDAT pdata
pdata	SEGMENT
$pdata$??$?0V?$_Tree_iterator@V?$_Tree_val@U?$_Tree_simple_types@U?$pair@$$CBHV?$function@$$A6AXHH@Z@std@@@std@@@std@@@std@@@std@@AEB_N$0A@@?$pair@V?$_Tree_iterator@V?$_Tree_val@U?$_Tree_simple_types@U?$pair@$$CBHV?$function@$$A6AXHH@Z@std@@@std@@@std@@@std@@@std@@_N@std@@QEAA@$$QEAV?$_Tree_iterator@V?$_Tree_val@U?$_Tree_simple_types@U?$pair@$$CBHV?$function@$$A6AXHH@Z@std@@@std@@@std@@@std@@@1@AEB_N@Z DD imagerel $LN3
	DD	imagerel $LN3+151
	DD	imagerel $unwind$??$?0V?$_Tree_iterator@V?$_Tree_val@U?$_Tree_simple_types@U?$pair@$$CBHV?$function@$$A6AXHH@Z@std@@@std@@@std@@@std@@@std@@AEB_N$0A@@?$pair@V?$_Tree_iterator@V?$_Tree_val@U?$_Tree_simple_types@U?$pair@$$CBHV?$function@$$A6AXHH@Z@std@@@std@@@std@@@std@@@std@@_N@std@@QEAA@$$QEAV?$_Tree_iterator@V?$_Tree_val@U?$_Tree_simple_types@U?$pair@$$CBHV?$function@$$A6AXHH@Z@std@@@std@@@std@@@std@@@1@AEB_N@Z
pdata	ENDS
;	COMDAT pdata
pdata	SEGMENT
$pdata$??$_Emplace@AEAHV?$function@$$A6AXHH@Z@std@@@?$_Tree@V?$_Tmap_traits@HV?$function@$$A6AXHH@Z@std@@U?$less@H@2@V?$allocator@U?$pair@$$CBHV?$function@$$A6AXHH@Z@std@@@std@@@2@$0A@@std@@@std@@IEAA?AU?$pair@PEAU?$_Tree_node@U?$pair@$$CBHV?$function@$$A6AXHH@Z@std@@@std@@PEAX@std@@_N@1@AEAH$$QEAV?$function@$$A6AXHH@Z@1@@Z DD imagerel $LN5
	DD	imagerel $LN5+538
	DD	imagerel $unwind$??$_Emplace@AEAHV?$function@$$A6AXHH@Z@std@@@?$_Tree@V?$_Tmap_traits@HV?$function@$$A6AXHH@Z@std@@U?$less@H@2@V?$allocator@U?$pair@$$CBHV?$function@$$A6AXHH@Z@std@@@std@@@2@$0A@@std@@@std@@IEAA?AU?$pair@PEAU?$_Tree_node@U?$pair@$$CBHV?$function@$$A6AXHH@Z@std@@@std@@PEAX@std@@_N@1@AEAH$$QEAV?$function@$$A6AXHH@Z@1@@Z
pdata	ENDS
;	COMDAT pdata
pdata	SEGMENT
$pdata$?deallocate@?$_Default_allocator_traits@V?$allocator@U_Container_proxy@std@@@std@@@std@@SAXAEAV?$allocator@U_Container_proxy@std@@@2@QEAU_Container_proxy@2@_K@Z DD imagerel $LN3
	DD	imagerel $LN3+97
	DD	imagerel $unwind$?deallocate@?$_Default_allocator_traits@V?$allocator@U_Container_proxy@std@@@std@@@std@@SAXAEAV?$allocator@U_Container_proxy@std@@@2@QEAU_Container_proxy@2@_K@Z
pdata	ENDS
;	COMDAT pdata
pdata	SEGMENT
$pdata$??$exchange@PEAU?$_Tree_node@U?$pair@$$CBHV?$function@$$A6AXHH@Z@std@@@std@@PEAX@std@@AEAPEAU12@@std@@YAPEAU?$_Tree_node@U?$pair@$$CBHV?$function@$$A6AXHH@Z@std@@@std@@PEAX@0@AEAPEAU10@0@Z DD imagerel $LN3
	DD	imagerel $LN3+107
	DD	imagerel $unwind$??$exchange@PEAU?$_Tree_node@U?$pair@$$CBHV?$function@$$A6AXHH@Z@std@@@std@@PEAX@std@@AEAPEAU12@@std@@YAPEAU?$_Tree_node@U?$pair@$$CBHV?$function@$$A6AXHH@Z@std@@@std@@PEAX@0@AEAPEAU10@0@Z
pdata	ENDS
;	COMDAT pdata
pdata	SEGMENT
$pdata$??$_Freenode@V?$allocator@U?$_Tree_node@U?$pair@$$CBHV?$function@$$A6AXHH@Z@std@@@std@@PEAX@std@@@std@@@?$_Tree_node@U?$pair@$$CBHV?$function@$$A6AXHH@Z@std@@@std@@PEAX@std@@SAXAEAV?$allocator@U?$_Tree_node@U?$pair@$$CBHV?$function@$$A6AXHH@Z@std@@@std@@PEAX@std@@@1@PEAU01@@Z DD imagerel $LN3
	DD	imagerel $LN3+126
	DD	imagerel $unwind$??$_Freenode@V?$allocator@U?$_Tree_node@U?$pair@$$CBHV?$function@$$A6AXHH@Z@std@@@std@@PEAX@std@@@std@@@?$_Tree_node@U?$pair@$$CBHV?$function@$$A6AXHH@Z@std@@@std@@PEAX@std@@SAXAEAV?$allocator@U?$_Tree_node@U?$pair@$$CBHV?$function@$$A6AXHH@Z@std@@@std@@PEAX@std@@@1@PEAU01@@Z
pdata	ENDS
;	COMDAT pdata
pdata	SEGMENT
$pdata$??$_Destroy_in_place@PEAU?$_Tree_node@U?$pair@$$CBHV?$function@$$A6AXHH@Z@std@@@std@@PEAX@std@@@std@@YAXAEAPEAU?$_Tree_node@U?$pair@$$CBHV?$function@$$A6AXHH@Z@std@@@std@@PEAX@0@@Z DD imagerel $LN3
	DD	imagerel $LN3+65
	DD	imagerel $unwind$??$_Destroy_in_place@PEAU?$_Tree_node@U?$pair@$$CBHV?$function@$$A6AXHH@Z@std@@@std@@PEAX@std@@@std@@YAXAEAPEAU?$_Tree_node@U?$pair@$$CBHV?$function@$$A6AXHH@Z@std@@@std@@PEAX@0@@Z
pdata	ENDS
;	COMDAT pdata
pdata	SEGMENT
$pdata$??$addressof@PEAU?$_Tree_node@U?$pair@$$CBHV?$function@$$A6AXHH@Z@std@@@std@@PEAX@std@@@std@@YAPEAPEAU?$_Tree_node@U?$pair@$$CBHV?$function@$$A6AXHH@Z@std@@@std@@PEAX@0@AEAPEAU10@@Z DD imagerel $LN3
	DD	imagerel $LN3+72
	DD	imagerel $unwind$??$addressof@PEAU?$_Tree_node@U?$pair@$$CBHV?$function@$$A6AXHH@Z@std@@@std@@PEAX@std@@@std@@YAPEAPEAU?$_Tree_node@U?$pair@$$CBHV?$function@$$A6AXHH@Z@std@@@std@@PEAX@0@AEAPEAU10@@Z
pdata	ENDS
;	COMDAT pdata
pdata	SEGMENT
$pdata$??$forward@AEBQEAU?$_Tree_node@U?$pair@$$CBHV?$function@$$A6AXHH@Z@std@@@std@@PEAX@std@@@std@@YAAEBQEAU?$_Tree_node@U?$pair@$$CBHV?$function@$$A6AXHH@Z@std@@@std@@PEAX@0@AEBQEAU10@@Z DD imagerel $LN3
	DD	imagerel $LN3+72
	DD	imagerel $unwind$??$forward@AEBQEAU?$_Tree_node@U?$pair@$$CBHV?$function@$$A6AXHH@Z@std@@@std@@PEAX@std@@@std@@YAAEBQEAU?$_Tree_node@U?$pair@$$CBHV?$function@$$A6AXHH@Z@std@@@std@@PEAX@0@AEBQEAU10@@Z
pdata	ENDS
;	COMDAT pdata
pdata	SEGMENT
$pdata$??$?0PEAUstA@?A0x4e02d121@@AEBU?$_Ph@$00@std@@AEBU?$_Ph@$01@3@$0A@@?$tuple@PEAUstA@?A0x4e02d121@@U?$_Ph@$00@std@@U?$_Ph@$01@4@@std@@QEAA@$$QEAPEAUstA@?A0x4e02d121@@AEBU?$_Ph@$00@1@AEBU?$_Ph@$01@1@@Z DD imagerel ??$?0PEAUstA@?A0x4e02d121@@AEBU?$_Ph@$00@std@@AEBU?$_Ph@$01@3@$0A@@?$tuple@PEAUstA@?A0x4e02d121@@U?$_Ph@$00@std@@U?$_Ph@$01@4@@std@@QEAA@$$QEAPEAUstA@?A0x4e02d121@@AEBU?$_Ph@$00@1@AEBU?$_Ph@$01@1@@Z
	DD	imagerel ??$?0PEAUstA@?A0x4e02d121@@AEBU?$_Ph@$00@std@@AEBU?$_Ph@$01@3@$0A@@?$tuple@PEAUstA@?A0x4e02d121@@U?$_Ph@$00@std@@U?$_Ph@$01@4@@std@@QEAA@$$QEAPEAUstA@?A0x4e02d121@@AEBU?$_Ph@$00@1@AEBU?$_Ph@$01@1@@Z+251
	DD	imagerel $unwind$??$?0PEAUstA@?A0x4e02d121@@AEBU?$_Ph@$00@std@@AEBU?$_Ph@$01@3@$0A@@?$tuple@PEAUstA@?A0x4e02d121@@U?$_Ph@$00@std@@U?$_Ph@$01@4@@std@@QEAA@$$QEAPEAUstA@?A0x4e02d121@@AEBU?$_Ph@$00@1@AEBU?$_Ph@$01@1@@Z
pdata	ENDS
;	COMDAT pdata
pdata	SEGMENT
$pdata$??$_Deallocate@$07$0A@@std@@YAXPEAX_K@Z DD imagerel $LN4
	DD	imagerel $LN4+123
	DD	imagerel $unwind$??$_Deallocate@$07$0A@@std@@YAXPEAX_K@Z
pdata	ENDS
;	COMDAT pdata
pdata	SEGMENT
$pdata$??$addressof@$$CBV?$_Binder@U_Unforced@std@@P8stA@?A0x4e02d121@@EAAXHH@ZPEAU34@AEBU?$_Ph@$00@2@AEBU?$_Ph@$01@2@@std@@@std@@YAPEBV?$_Binder@U_Unforced@std@@P8stA@?A0x4e02d121@@EAAXHH@ZPEAU34@AEBU?$_Ph@$00@2@AEBU?$_Ph@$01@2@@0@AEBV10@@Z DD imagerel ??$addressof@$$CBV?$_Binder@U_Unforced@std@@P8stA@?A0x4e02d121@@EAAXHH@ZPEAU34@AEBU?$_Ph@$00@2@AEBU?$_Ph@$01@2@@std@@@std@@YAPEBV?$_Binder@U_Unforced@std@@P8stA@?A0x4e02d121@@EAAXHH@ZPEAU34@AEBU?$_Ph@$00@2@AEBU?$_Ph@$01@2@@0@AEBV10@@Z
	DD	imagerel ??$addressof@$$CBV?$_Binder@U_Unforced@std@@P8stA@?A0x4e02d121@@EAAXHH@ZPEAU34@AEBU?$_Ph@$00@2@AEBU?$_Ph@$01@2@@std@@@std@@YAPEBV?$_Binder@U_Unforced@std@@P8stA@?A0x4e02d121@@EAAXHH@ZPEAU34@AEBU?$_Ph@$00@2@AEBU?$_Ph@$01@2@@0@AEBV10@@Z+72
	DD	imagerel $unwind$??$addressof@$$CBV?$_Binder@U_Unforced@std@@P8stA@?A0x4e02d121@@EAAXHH@ZPEAU34@AEBU?$_Ph@$00@2@AEBU?$_Ph@$01@2@@std@@@std@@YAPEBV?$_Binder@U_Unforced@std@@P8stA@?A0x4e02d121@@EAAXHH@ZPEAU34@AEBU?$_Ph@$00@2@AEBU?$_Ph@$01@2@@0@AEBV10@@Z
pdata	ENDS
;	COMDAT pdata
pdata	SEGMENT
$pdata$??$_Call@AEAV?$_Binder@U_Unforced@std@@P8stA@?A0x4e02d121@@EAAXHH@ZPEAU34@AEBU?$_Ph@$00@2@AEBU?$_Ph@$01@2@@std@@HH@?$_Invoker_ret@X$00@std@@SAXAEAV?$_Binder@U_Unforced@std@@P8stA@?A0x4e02d121@@EAAXHH@ZPEAU34@AEBU?$_Ph@$00@2@AEBU?$_Ph@$01@2@@1@$$QEAH1@Z DD imagerel ??$_Call@AEAV?$_Binder@U_Unforced@std@@P8stA@?A0x4e02d121@@EAAXHH@ZPEAU34@AEBU?$_Ph@$00@2@AEBU?$_Ph@$01@2@@std@@HH@?$_Invoker_ret@X$00@std@@SAXAEAV?$_Binder@U_Unforced@std@@P8stA@?A0x4e02d121@@EAAXHH@ZPEAU34@AEBU?$_Ph@$00@2@AEBU?$_Ph@$01@2@@1@$$QEAH1@Z
	DD	imagerel ??$_Call@AEAV?$_Binder@U_Unforced@std@@P8stA@?A0x4e02d121@@EAAXHH@ZPEAU34@AEBU?$_Ph@$00@2@AEBU?$_Ph@$01@2@@std@@HH@?$_Invoker_ret@X$00@std@@SAXAEAV?$_Binder@U_Unforced@std@@P8stA@?A0x4e02d121@@EAAXHH@ZPEAU34@AEBU?$_Ph@$00@2@AEBU?$_Ph@$01@2@@1@$$QEAH1@Z+157
	DD	imagerel $unwind$??$_Call@AEAV?$_Binder@U_Unforced@std@@P8stA@?A0x4e02d121@@EAAXHH@ZPEAU34@AEBU?$_Ph@$00@2@AEBU?$_Ph@$01@2@@std@@HH@?$_Invoker_ret@X$00@std@@SAXAEAV?$_Binder@U_Unforced@std@@P8stA@?A0x4e02d121@@EAAXHH@ZPEAU34@AEBU?$_Ph@$00@2@AEBU?$_Ph@$01@2@@1@$$QEAH1@Z
pdata	ENDS
;	COMDAT pdata
pdata	SEGMENT
$pdata$??$?0AEBV?$_Binder@U_Unforced@std@@P8stA@?A0x4e02d121@@EAAXHH@ZPEAU34@AEBU?$_Ph@$00@2@AEBU?$_Ph@$01@2@@std@@X@?$_Func_impl_no_alloc@V?$_Binder@U_Unforced@std@@P8stA@?A0x4e02d121@@EAAXHH@ZPEAU34@AEBU?$_Ph@$00@2@AEBU?$_Ph@$01@2@@std@@XHH@std@@QEAA@AEBV?$_Binder@U_Unforced@std@@P8stA@?A0x4e02d121@@EAAXHH@ZPEAU34@AEBU?$_Ph@$00@2@AEBU?$_Ph@$01@2@@1@@Z DD imagerel ??$?0AEBV?$_Binder@U_Unforced@std@@P8stA@?A0x4e02d121@@EAAXHH@ZPEAU34@AEBU?$_Ph@$00@2@AEBU?$_Ph@$01@2@@std@@X@?$_Func_impl_no_alloc@V?$_Binder@U_Unforced@std@@P8stA@?A0x4e02d121@@EAAXHH@ZPEAU34@AEBU?$_Ph@$00@2@AEBU?$_Ph@$01@2@@std@@XHH@std@@QEAA@AEBV?$_Binder@U_Unforced@std@@P8stA@?A0x4e02d121@@EAAXHH@ZPEAU34@AEBU?$_Ph@$00@2@AEBU?$_Ph@$01@2@@1@@Z
	DD	imagerel ??$?0AEBV?$_Binder@U_Unforced@std@@P8stA@?A0x4e02d121@@EAAXHH@ZPEAU34@AEBU?$_Ph@$00@2@AEBU?$_Ph@$01@2@@std@@X@?$_Func_impl_no_alloc@V?$_Binder@U_Unforced@std@@P8stA@?A0x4e02d121@@EAAXHH@ZPEAU34@AEBU?$_Ph@$00@2@AEBU?$_Ph@$01@2@@std@@XHH@std@@QEAA@AEBV?$_Binder@U_Unforced@std@@P8stA@?A0x4e02d121@@EAAXHH@ZPEAU34@AEBU?$_Ph@$00@2@AEBU?$_Ph@$01@2@@1@@Z+150
	DD	imagerel $unwind$??$?0AEBV?$_Binder@U_Unforced@std@@P8stA@?A0x4e02d121@@EAAXHH@ZPEAU34@AEBU?$_Ph@$00@2@AEBU?$_Ph@$01@2@@std@@X@?$_Func_impl_no_alloc@V?$_Binder@U_Unforced@std@@P8stA@?A0x4e02d121@@EAAXHH@ZPEAU34@AEBU?$_Ph@$00@2@AEBU?$_Ph@$01@2@@std@@XHH@std@@QEAA@AEBV?$_Binder@U_Unforced@std@@P8stA@?A0x4e02d121@@EAAXHH@ZPEAU34@AEBU?$_Ph@$00@2@AEBU?$_Ph@$01@2@@1@@Z
pdata	ENDS
;	COMDAT pdata
pdata	SEGMENT
$pdata$??$addressof@$$CBV<lambda_1>@?1??event_foo@@YAXXZ@@std@@YAPEBV<lambda_1>@?1??event_foo@@YAXXZ@AEBV1?1??2@YAXXZ@@Z DD imagerel ??$addressof@$$CBV<lambda_1>@?1??event_foo@@YAXXZ@@std@@YAPEBV<lambda_1>@?1??event_foo@@YAXXZ@AEBV1?1??2@YAXXZ@@Z
	DD	imagerel ??$addressof@$$CBV<lambda_1>@?1??event_foo@@YAXXZ@@std@@YAPEBV<lambda_1>@?1??event_foo@@YAXXZ@AEBV1?1??2@YAXXZ@@Z+72
	DD	imagerel $unwind$??$addressof@$$CBV<lambda_1>@?1??event_foo@@YAXXZ@@std@@YAPEBV<lambda_1>@?1??event_foo@@YAXXZ@AEBV1?1??2@YAXXZ@@Z
pdata	ENDS
;	COMDAT pdata
pdata	SEGMENT
$pdata$??$_Call@AEAV<lambda_1>@?1??event_foo@@YAXXZ@HH@?$_Invoker_ret@X$00@std@@SAXAEAV<lambda_1>@?1??event_foo@@YAXXZ@$$QEAH1@Z DD imagerel ??$_Call@AEAV<lambda_1>@?1??event_foo@@YAXXZ@HH@?$_Invoker_ret@X$00@std@@SAXAEAV<lambda_1>@?1??event_foo@@YAXXZ@$$QEAH1@Z
	DD	imagerel ??$_Call@AEAV<lambda_1>@?1??event_foo@@YAXXZ@HH@?$_Invoker_ret@X$00@std@@SAXAEAV<lambda_1>@?1??event_foo@@YAXXZ@$$QEAH1@Z+157
	DD	imagerel $unwind$??$_Call@AEAV<lambda_1>@?1??event_foo@@YAXXZ@HH@?$_Invoker_ret@X$00@std@@SAXAEAV<lambda_1>@?1??event_foo@@YAXXZ@$$QEAH1@Z
pdata	ENDS
;	COMDAT pdata
pdata	SEGMENT
$pdata$??$?0AEBV<lambda_1>@?1??event_foo@@YAXXZ@X@?$_Func_impl_no_alloc@V<lambda_1>@?1??event_foo@@YAXXZ@XHH@std@@QEAA@AEBV<lambda_1>@?1??event_foo@@YAXXZ@@Z DD imagerel ??$?0AEBV<lambda_1>@?1??event_foo@@YAXXZ@X@?$_Func_impl_no_alloc@V<lambda_1>@?1??event_foo@@YAXXZ@XHH@std@@QEAA@AEBV<lambda_1>@?1??event_foo@@YAXXZ@@Z
	DD	imagerel ??$?0AEBV<lambda_1>@?1??event_foo@@YAXXZ@X@?$_Func_impl_no_alloc@V<lambda_1>@?1??event_foo@@YAXXZ@XHH@std@@QEAA@AEBV<lambda_1>@?1??event_foo@@YAXXZ@@Z+117
	DD	imagerel $unwind$??$?0AEBV<lambda_1>@?1??event_foo@@YAXXZ@X@?$_Func_impl_no_alloc@V<lambda_1>@?1??event_foo@@YAXXZ@XHH@std@@QEAA@AEBV<lambda_1>@?1??event_foo@@YAXXZ@@Z
pdata	ENDS
;	COMDAT pdata
pdata	SEGMENT
$pdata$??$addressof@Q6AXHH@Z@std@@YAPEBQ6AXHH@ZAEBQ6AXHH@Z@Z DD imagerel $LN3
	DD	imagerel $LN3+72
	DD	imagerel $unwind$??$addressof@Q6AXHH@Z@std@@YAPEBQ6AXHH@ZAEBQ6AXHH@Z@Z
pdata	ENDS
;	COMDAT pdata
pdata	SEGMENT
$pdata$??$_Call@AEAP6AXHH@ZHH@?$_Invoker_ret@X$00@std@@SAXAEAP6AXHH@Z$$QEAH1@Z DD imagerel $LN3
	DD	imagerel $LN3+157
	DD	imagerel $unwind$??$_Call@AEAP6AXHH@ZHH@?$_Invoker_ret@X$00@std@@SAXAEAP6AXHH@Z$$QEAH1@Z
pdata	ENDS
;	COMDAT pdata
pdata	SEGMENT
$pdata$??$?0AEBQ6AXHH@ZX@?$_Func_impl_no_alloc@P6AXHH@ZXHH@std@@QEAA@AEBQ6AXHH@Z@Z DD imagerel $LN3
	DD	imagerel $LN3+131
	DD	imagerel $unwind$??$?0AEBQ6AXHH@ZX@?$_Func_impl_no_alloc@P6AXHH@ZXHH@std@@QEAA@AEBQ6AXHH@Z@Z
pdata	ENDS
;	COMDAT pdata
pdata	SEGMENT
$pdata$??0?$_Alloc_construct_ptr@V?$allocator@U?$_Tree_node@U?$pair@$$CBHV?$function@$$A6AXHH@Z@std@@@std@@PEAX@std@@@std@@@std@@QEAA@AEAV?$allocator@U?$_Tree_node@U?$pair@$$CBHV?$function@$$A6AXHH@Z@std@@@std@@PEAX@std@@@1@@Z DD imagerel $LN3
	DD	imagerel $LN3+108
	DD	imagerel $unwind$??0?$_Alloc_construct_ptr@V?$allocator@U?$_Tree_node@U?$pair@$$CBHV?$function@$$A6AXHH@Z@std@@@std@@PEAX@std@@@std@@@std@@QEAA@AEAV?$allocator@U?$_Tree_node@U?$pair@$$CBHV?$function@$$A6AXHH@Z@std@@@std@@PEAX@std@@@1@@Z
pdata	ENDS
;	COMDAT pdata
pdata	SEGMENT
$pdata$?_Release@?$_Alloc_construct_ptr@V?$allocator@U?$_Tree_node@U?$pair@$$CBHV?$function@$$A6AXHH@Z@std@@@std@@PEAX@std@@@std@@@std@@QEAAPEAU?$_Tree_node@U?$pair@$$CBHV?$function@$$A6AXHH@Z@std@@@std@@PEAX@2@XZ DD imagerel $LN3
	DD	imagerel $LN3+103
	DD	imagerel $unwind$?_Release@?$_Alloc_construct_ptr@V?$allocator@U?$_Tree_node@U?$pair@$$CBHV?$function@$$A6AXHH@Z@std@@@std@@PEAX@std@@@std@@@std@@QEAAPEAU?$_Tree_node@U?$pair@$$CBHV?$function@$$A6AXHH@Z@std@@@std@@PEAX@2@XZ
pdata	ENDS
;	COMDAT pdata
pdata	SEGMENT
$pdata$?_Allocate@?$_Alloc_construct_ptr@V?$allocator@U?$_Tree_node@U?$pair@$$CBHV?$function@$$A6AXHH@Z@std@@@std@@PEAX@std@@@std@@@std@@QEAAXXZ DD imagerel $LN3
	DD	imagerel $LN3+124
	DD	imagerel $unwind$?_Allocate@?$_Alloc_construct_ptr@V?$allocator@U?$_Tree_node@U?$pair@$$CBHV?$function@$$A6AXHH@Z@std@@@std@@PEAX@std@@@std@@@std@@QEAAXXZ
pdata	ENDS
;	COMDAT pdata
pdata	SEGMENT
$pdata$??1?$_Alloc_construct_ptr@V?$allocator@U?$_Tree_node@U?$pair@$$CBHV?$function@$$A6AXHH@Z@std@@@std@@PEAX@std@@@std@@@std@@QEAA@XZ DD imagerel $LN4
	DD	imagerel $LN4+126
	DD	imagerel $unwind$??1?$_Alloc_construct_ptr@V?$allocator@U?$_Tree_node@U?$pair@$$CBHV?$function@$$A6AXHH@Z@std@@@std@@PEAX@std@@@std@@@std@@QEAA@XZ
pdata	ENDS
;	COMDAT pdata
pdata	SEGMENT
$pdata$??0?$_Tree_temp_node_alloc@V?$allocator@U?$_Tree_node@U?$pair@$$CBHV?$function@$$A6AXHH@Z@std@@@std@@PEAX@std@@@std@@@std@@QEAA@AEAV?$allocator@U?$_Tree_node@U?$pair@$$CBHV?$function@$$A6AXHH@Z@std@@@std@@PEAX@std@@@1@@Z DD imagerel $LN4
	DD	imagerel $LN4+109
	DD	imagerel $unwind$??0?$_Tree_temp_node_alloc@V?$allocator@U?$_Tree_node@U?$pair@$$CBHV?$function@$$A6AXHH@Z@std@@@std@@PEAX@std@@@std@@@std@@QEAA@AEAV?$allocator@U?$_Tree_node@U?$pair@$$CBHV?$function@$$A6AXHH@Z@std@@@std@@PEAX@std@@@1@@Z
pdata	ENDS
;	COMDAT pdata
pdata	SEGMENT
$pdata$?dtor$0@?0???0?$_Tree_temp_node_alloc@V?$allocator@U?$_Tree_node@U?$pair@$$CBHV?$function@$$A6AXHH@Z@std@@@std@@PEAX@std@@@std@@@std@@QEAA@AEAV?$allocator@U?$_Tree_node@U?$pair@$$CBHV?$function@$$A6AXHH@Z@std@@@std@@PEAX@std@@@1@@Z@4HA DD imagerel ?dtor$0@?0???0?$_Tree_temp_node_alloc@V?$allocator@U?$_Tree_node@U?$pair@$$CBHV?$function@$$A6AXHH@Z@std@@@std@@PEAX@std@@@std@@@std@@QEAA@AEAV?$allocator@U?$_Tree_node@U?$pair@$$CBHV?$function@$$A6AXHH@Z@std@@@std@@PEAX@std@@@1@@Z@4HA
	DD	imagerel ?dtor$0@?0???0?$_Tree_temp_node_alloc@V?$allocator@U?$_Tree_node@U?$pair@$$CBHV?$function@$$A6AXHH@Z@std@@@std@@PEAX@std@@@std@@@std@@QEAA@AEAV?$allocator@U?$_Tree_node@U?$pair@$$CBHV?$function@$$A6AXHH@Z@std@@@std@@PEAX@std@@@1@@Z@4HA+39
	DD	imagerel $unwind$?dtor$0@?0???0?$_Tree_temp_node_alloc@V?$allocator@U?$_Tree_node@U?$pair@$$CBHV?$function@$$A6AXHH@Z@std@@@std@@PEAX@std@@@std@@@std@@QEAA@AEAV?$allocator@U?$_Tree_node@U?$pair@$$CBHV?$function@$$A6AXHH@Z@std@@@std@@PEAX@std@@@1@@Z@4HA
pdata	ENDS
;	COMDAT pdata
pdata	SEGMENT
$pdata$??1?$_Tree_temp_node_alloc@V?$allocator@U?$_Tree_node@U?$pair@$$CBHV?$function@$$A6AXHH@Z@std@@@std@@PEAX@std@@@std@@@std@@QEAA@XZ DD imagerel $LN3
	DD	imagerel $LN3+64
	DD	imagerel $unwind$??1?$_Tree_temp_node_alloc@V?$allocator@U?$_Tree_node@U?$pair@$$CBHV?$function@$$A6AXHH@Z@std@@@std@@PEAX@std@@@std@@@std@@QEAA@XZ
pdata	ENDS
;	COMDAT pdata
pdata	SEGMENT
$pdata$??1?$_Tree_temp_node@V?$allocator@U?$_Tree_node@U?$pair@$$CBHV?$function@$$A6AXHH@Z@std@@@std@@PEAX@std@@@std@@@std@@QEAA@XZ DD imagerel $LN4
	DD	imagerel $LN4+232
	DD	imagerel $unwind$??1?$_Tree_temp_node@V?$allocator@U?$_Tree_node@U?$pair@$$CBHV?$function@$$A6AXHH@Z@std@@@std@@PEAX@std@@@std@@@std@@QEAA@XZ
pdata	ENDS
;	COMDAT pdata
pdata	SEGMENT
$pdata$?_Extract@?$_In_place_key_extract_map@HHV?$function@$$A6AXHH@Z@std@@@std@@SAAEBHAEBHAEBV?$function@$$A6AXHH@Z@2@@Z DD imagerel $LN3
	DD	imagerel $LN3+77
	DD	imagerel $unwind$?_Extract@?$_In_place_key_extract_map@HHV?$function@$$A6AXHH@Z@std@@@std@@SAAEBHAEBHAEBV?$function@$$A6AXHH@Z@2@@Z
pdata	ENDS
;	COMDAT pdata
pdata	SEGMENT
$pdata$??$_Find_lower_bound@H@?$_Tree@V?$_Tmap_traits@HV?$function@$$A6AXHH@Z@std@@U?$less@H@2@V?$allocator@U?$pair@$$CBHV?$function@$$A6AXHH@Z@std@@@std@@@2@$0A@@std@@@std@@IEBA?AU?$_Tree_find_result@PEAU?$_Tree_node@U?$pair@$$CBHV?$function@$$A6AXHH@Z@std@@@std@@PEAX@std@@@1@AEBH@Z DD imagerel $LN7
	DD	imagerel $LN7+368
	DD	imagerel $unwind$??$_Find_lower_bound@H@?$_Tree@V?$_Tmap_traits@HV?$function@$$A6AXHH@Z@std@@U?$less@H@2@V?$allocator@U?$pair@$$CBHV?$function@$$A6AXHH@Z@std@@@std@@@2@$0A@@std@@@std@@IEBA?AU?$_Tree_find_result@PEAU?$_Tree_node@U?$pair@$$CBHV?$function@$$A6AXHH@Z@std@@@std@@PEAX@std@@@1@AEBH@Z
pdata	ENDS
;	COMDAT pdata
pdata	SEGMENT
$pdata$??$_Lower_bound_duplicate@H@?$_Tree@V?$_Tmap_traits@HV?$function@$$A6AXHH@Z@std@@U?$less@H@2@V?$allocator@U?$pair@$$CBHV?$function@$$A6AXHH@Z@std@@@std@@@2@$0A@@std@@@std@@IEBA_NQEAU?$_Tree_node@U?$pair@$$CBHV?$function@$$A6AXHH@Z@std@@@std@@PEAX@1@AEBH@Z DD imagerel $LN5
	DD	imagerel $LN5+196
	DD	imagerel $unwind$??$_Lower_bound_duplicate@H@?$_Tree@V?$_Tmap_traits@HV?$function@$$A6AXHH@Z@std@@U?$less@H@2@V?$allocator@U?$pair@$$CBHV?$function@$$A6AXHH@Z@std@@@std@@@2@$0A@@std@@@std@@IEBA_NQEAU?$_Tree_node@U?$pair@$$CBHV?$function@$$A6AXHH@Z@std@@@std@@PEAX@1@AEBH@Z
pdata	ENDS
;	COMDAT pdata
pdata	SEGMENT
$pdata$??$?0AEAHAEBV?$function@$$A6AXHH@Z@std@@@?$_Tree_temp_node@V?$allocator@U?$_Tree_node@U?$pair@$$CBHV?$function@$$A6AXHH@Z@std@@@std@@PEAX@std@@@std@@@std@@QEAA@AEAV?$allocator@U?$_Tree_node@U?$pair@$$CBHV?$function@$$A6AXHH@Z@std@@@std@@PEAX@std@@@1@PEAU?$_Tree_node@U?$pair@$$CBHV?$function@$$A6AXHH@Z@std@@@std@@PEAX@1@AEAHAEBV?$function@$$A6AXHH@Z@1@@Z DD imagerel $LN4
	DD	imagerel $LN4+340
	DD	imagerel $unwind$??$?0AEAHAEBV?$function@$$A6AXHH@Z@std@@@?$_Tree_temp_node@V?$allocator@U?$_Tree_node@U?$pair@$$CBHV?$function@$$A6AXHH@Z@std@@@std@@PEAX@std@@@std@@@std@@QEAA@AEAV?$allocator@U?$_Tree_node@U?$pair@$$CBHV?$function@$$A6AXHH@Z@std@@@std@@PEAX@std@@@1@PEAU?$_Tree_node@U?$pair@$$CBHV?$function@$$A6AXHH@Z@std@@@std@@PEAX@1@AEAHAEBV?$function@$$A6AXHH@Z@1@@Z
pdata	ENDS
;	COMDAT pdata
pdata	SEGMENT
$pdata$?dtor$0@?0???$?0AEAHAEBV?$function@$$A6AXHH@Z@std@@@?$_Tree_temp_node@V?$allocator@U?$_Tree_node@U?$pair@$$CBHV?$function@$$A6AXHH@Z@std@@@std@@PEAX@std@@@std@@@std@@QEAA@AEAV?$allocator@U?$_Tree_node@U?$pair@$$CBHV?$function@$$A6AXHH@Z@std@@@std@@PEAX@std@@@1@PEAU?$_Tree_node@U?$pair@$$CBHV?$function@$$A6AXHH@Z@std@@@std@@PEAX@1@AEAHAEBV?$function@$$A6AXHH@Z@1@@Z@4HA DD imagerel ?dtor$0@?0???$?0AEAHAEBV?$function@$$A6AXHH@Z@std@@@?$_Tree_temp_node@V?$allocator@U?$_Tree_node@U?$pair@$$CBHV?$function@$$A6AXHH@Z@std@@@std@@PEAX@std@@@std@@@std@@QEAA@AEAV?$allocator@U?$_Tree_node@U?$pair@$$CBHV?$function@$$A6AXHH@Z@std@@@std@@PEAX@std@@@1@PEAU?$_Tree_node@U?$pair@$$CBHV?$function@$$A6AXHH@Z@std@@@std@@PEAX@1@AEAHAEBV?$function@$$A6AXHH@Z@1@@Z@4HA
	DD	imagerel ?dtor$0@?0???$?0AEAHAEBV?$function@$$A6AXHH@Z@std@@@?$_Tree_temp_node@V?$allocator@U?$_Tree_node@U?$pair@$$CBHV?$function@$$A6AXHH@Z@std@@@std@@PEAX@std@@@std@@@std@@QEAA@AEAV?$allocator@U?$_Tree_node@U?$pair@$$CBHV?$function@$$A6AXHH@Z@std@@@std@@PEAX@std@@@1@PEAU?$_Tree_node@U?$pair@$$CBHV?$function@$$A6AXHH@Z@std@@@std@@PEAX@1@AEAHAEBV?$function@$$A6AXHH@Z@1@@Z@4HA+39
	DD	imagerel $unwind$?dtor$0@?0???$?0AEAHAEBV?$function@$$A6AXHH@Z@std@@@?$_Tree_temp_node@V?$allocator@U?$_Tree_node@U?$pair@$$CBHV?$function@$$A6AXHH@Z@std@@@std@@PEAX@std@@@std@@@std@@QEAA@AEAV?$allocator@U?$_Tree_node@U?$pair@$$CBHV?$function@$$A6AXHH@Z@std@@@std@@PEAX@std@@@1@PEAU?$_Tree_node@U?$pair@$$CBHV?$function@$$A6AXHH@Z@std@@@std@@PEAX@1@AEAHAEBV?$function@$$A6AXHH@Z@1@@Z@4HA
pdata	ENDS
;	COMDAT pdata
pdata	SEGMENT
$pdata$??$?0AEAPEAU?$_Tree_node@U?$pair@$$CBHV?$function@$$A6AXHH@Z@std@@@std@@PEAX@std@@_N$0A@@?$pair@PEAU?$_Tree_node@U?$pair@$$CBHV?$function@$$A6AXHH@Z@std@@@std@@PEAX@std@@_N@std@@QEAA@AEAPEAU?$_Tree_node@U?$pair@$$CBHV?$function@$$A6AXHH@Z@std@@@std@@PEAX@1@$$QEA_N@Z DD imagerel $LN3
	DD	imagerel $LN3+134
	DD	imagerel $unwind$??$?0AEAPEAU?$_Tree_node@U?$pair@$$CBHV?$function@$$A6AXHH@Z@std@@@std@@PEAX@std@@_N$0A@@?$pair@PEAU?$_Tree_node@U?$pair@$$CBHV?$function@$$A6AXHH@Z@std@@@std@@PEAX@std@@_N@std@@QEAA@AEAPEAU?$_Tree_node@U?$pair@$$CBHV?$function@$$A6AXHH@Z@std@@@std@@PEAX@1@$$QEA_N@Z
pdata	ENDS
;	COMDAT pdata
pdata	SEGMENT
$pdata$??$?0PEAU?$_Tree_node@U?$pair@$$CBHV?$function@$$A6AXHH@Z@std@@@std@@PEAX@std@@_N$0A@@?$pair@PEAU?$_Tree_node@U?$pair@$$CBHV?$function@$$A6AXHH@Z@std@@@std@@PEAX@std@@_N@std@@QEAA@$$QEAPEAU?$_Tree_node@U?$pair@$$CBHV?$function@$$A6AXHH@Z@std@@@std@@PEAX@1@$$QEA_N@Z DD imagerel $LN3
	DD	imagerel $LN3+134
	DD	imagerel $unwind$??$?0PEAU?$_Tree_node@U?$pair@$$CBHV?$function@$$A6AXHH@Z@std@@@std@@PEAX@std@@_N$0A@@?$pair@PEAU?$_Tree_node@U?$pair@$$CBHV?$function@$$A6AXHH@Z@std@@@std@@PEAX@std@@_N@std@@QEAA@$$QEAPEAU?$_Tree_node@U?$pair@$$CBHV?$function@$$A6AXHH@Z@std@@@std@@PEAX@1@$$QEA_N@Z
pdata	ENDS
;	COMDAT pdata
pdata	SEGMENT
$pdata$??$forward@V?$_Tree_iterator@V?$_Tree_val@U?$_Tree_simple_types@U?$pair@$$CBHV?$function@$$A6AXHH@Z@std@@@std@@@std@@@std@@@std@@@std@@YA$$QEAV?$_Tree_iterator@V?$_Tree_val@U?$_Tree_simple_types@U?$pair@$$CBHV?$function@$$A6AXHH@Z@std@@@std@@@std@@@std@@@0@AEAV10@@Z DD imagerel $LN3
	DD	imagerel $LN3+72
	DD	imagerel $unwind$??$forward@V?$_Tree_iterator@V?$_Tree_val@U?$_Tree_simple_types@U?$pair@$$CBHV?$function@$$A6AXHH@Z@std@@@std@@@std@@@std@@@std@@@std@@YA$$QEAV?$_Tree_iterator@V?$_Tree_val@U?$_Tree_simple_types@U?$pair@$$CBHV?$function@$$A6AXHH@Z@std@@@std@@@std@@@std@@@0@AEAV10@@Z
pdata	ENDS
;	COMDAT pdata
pdata	SEGMENT
$pdata$??$forward@AEB_N@std@@YAAEB_NAEB_N@Z DD imagerel $LN3
	DD	imagerel $LN3+72
	DD	imagerel $unwind$??$forward@AEB_N@std@@YAAEB_NAEB_N@Z
pdata	ENDS
;	COMDAT pdata
pdata	SEGMENT
$pdata$??$?0AEAHV?$function@$$A6AXHH@Z@std@@@?$_Tree_temp_node@V?$allocator@U?$_Tree_node@U?$pair@$$CBHV?$function@$$A6AXHH@Z@std@@@std@@PEAX@std@@@std@@@std@@QEAA@AEAV?$allocator@U?$_Tree_node@U?$pair@$$CBHV?$function@$$A6AXHH@Z@std@@@std@@PEAX@std@@@1@PEAU?$_Tree_node@U?$pair@$$CBHV?$function@$$A6AXHH@Z@std@@@std@@PEAX@1@AEAH$$QEAV?$function@$$A6AXHH@Z@1@@Z DD imagerel $LN4
	DD	imagerel $LN4+340
	DD	imagerel $unwind$??$?0AEAHV?$function@$$A6AXHH@Z@std@@@?$_Tree_temp_node@V?$allocator@U?$_Tree_node@U?$pair@$$CBHV?$function@$$A6AXHH@Z@std@@@std@@PEAX@std@@@std@@@std@@QEAA@AEAV?$allocator@U?$_Tree_node@U?$pair@$$CBHV?$function@$$A6AXHH@Z@std@@@std@@PEAX@std@@@1@PEAU?$_Tree_node@U?$pair@$$CBHV?$function@$$A6AXHH@Z@std@@@std@@PEAX@1@AEAH$$QEAV?$function@$$A6AXHH@Z@1@@Z
pdata	ENDS
;	COMDAT pdata
pdata	SEGMENT
$pdata$?dtor$0@?0???$?0AEAHV?$function@$$A6AXHH@Z@std@@@?$_Tree_temp_node@V?$allocator@U?$_Tree_node@U?$pair@$$CBHV?$function@$$A6AXHH@Z@std@@@std@@PEAX@std@@@std@@@std@@QEAA@AEAV?$allocator@U?$_Tree_node@U?$pair@$$CBHV?$function@$$A6AXHH@Z@std@@@std@@PEAX@std@@@1@PEAU?$_Tree_node@U?$pair@$$CBHV?$function@$$A6AXHH@Z@std@@@std@@PEAX@1@AEAH$$QEAV?$function@$$A6AXHH@Z@1@@Z@4HA DD imagerel ?dtor$0@?0???$?0AEAHV?$function@$$A6AXHH@Z@std@@@?$_Tree_temp_node@V?$allocator@U?$_Tree_node@U?$pair@$$CBHV?$function@$$A6AXHH@Z@std@@@std@@PEAX@std@@@std@@@std@@QEAA@AEAV?$allocator@U?$_Tree_node@U?$pair@$$CBHV?$function@$$A6AXHH@Z@std@@@std@@PEAX@std@@@1@PEAU?$_Tree_node@U?$pair@$$CBHV?$function@$$A6AXHH@Z@std@@@std@@PEAX@1@AEAH$$QEAV?$function@$$A6AXHH@Z@1@@Z@4HA
	DD	imagerel ?dtor$0@?0???$?0AEAHV?$function@$$A6AXHH@Z@std@@@?$_Tree_temp_node@V?$allocator@U?$_Tree_node@U?$pair@$$CBHV?$function@$$A6AXHH@Z@std@@@std@@PEAX@std@@@std@@@std@@QEAA@AEAV?$allocator@U?$_Tree_node@U?$pair@$$CBHV?$function@$$A6AXHH@Z@std@@@std@@PEAX@std@@@1@PEAU?$_Tree_node@U?$pair@$$CBHV?$function@$$A6AXHH@Z@std@@@std@@PEAX@1@AEAH$$QEAV?$function@$$A6AXHH@Z@1@@Z@4HA+39
	DD	imagerel $unwind$?dtor$0@?0???$?0AEAHV?$function@$$A6AXHH@Z@std@@@?$_Tree_temp_node@V?$allocator@U?$_Tree_node@U?$pair@$$CBHV?$function@$$A6AXHH@Z@std@@@std@@PEAX@std@@@std@@@std@@QEAA@AEAV?$allocator@U?$_Tree_node@U?$pair@$$CBHV?$function@$$A6AXHH@Z@std@@@std@@PEAX@std@@@1@PEAU?$_Tree_node@U?$pair@$$CBHV?$function@$$A6AXHH@Z@std@@@std@@PEAX@1@AEAH$$QEAV?$function@$$A6AXHH@Z@1@@Z@4HA
pdata	ENDS
;	COMDAT pdata
pdata	SEGMENT
$pdata$??$addressof@U?$pair@$$CBHV?$function@$$A6AXHH@Z@std@@@std@@@std@@YAPEAU?$pair@$$CBHV?$function@$$A6AXHH@Z@std@@@0@AEAU10@@Z DD imagerel $LN3
	DD	imagerel $LN3+72
	DD	imagerel $unwind$??$addressof@U?$pair@$$CBHV?$function@$$A6AXHH@Z@std@@@std@@@std@@YAPEAU?$pair@$$CBHV?$function@$$A6AXHH@Z@std@@@0@AEAU10@@Z
pdata	ENDS
;	COMDAT pdata
pdata	SEGMENT
$pdata$??$destroy@U?$pair@$$CBHV?$function@$$A6AXHH@Z@std@@@std@@@?$_Default_allocator_traits@V?$allocator@U?$_Tree_node@U?$pair@$$CBHV?$function@$$A6AXHH@Z@std@@@std@@PEAX@std@@@std@@@std@@SAXAEAV?$allocator@U?$_Tree_node@U?$pair@$$CBHV?$function@$$A6AXHH@Z@std@@@std@@PEAX@std@@@1@QEAU?$pair@$$CBHV?$function@$$A6AXHH@Z@std@@@1@@Z DD imagerel $LN3
	DD	imagerel $LN3+83
	DD	imagerel $unwind$??$destroy@U?$pair@$$CBHV?$function@$$A6AXHH@Z@std@@@std@@@?$_Default_allocator_traits@V?$allocator@U?$_Tree_node@U?$pair@$$CBHV?$function@$$A6AXHH@Z@std@@@std@@PEAX@std@@@std@@@std@@SAXAEAV?$allocator@U?$_Tree_node@U?$pair@$$CBHV?$function@$$A6AXHH@Z@std@@@std@@PEAX@std@@@1@QEAU?$pair@$$CBHV?$function@$$A6AXHH@Z@std@@@1@@Z
pdata	ENDS
;	COMDAT pdata
pdata	SEGMENT
$pdata$??$?0U_Exact_args_t@std@@PEAUstA@?A0x4e02d121@@AEBU?$_Ph@$00@1@AEBU?$_Ph@$01@1@$0A@@?$tuple@PEAUstA@?A0x4e02d121@@U?$_Ph@$00@std@@U?$_Ph@$01@4@@std@@QEAA@U_Exact_args_t@1@$$QEAPEAUstA@?A0x4e02d121@@AEBU?$_Ph@$00@1@AEBU?$_Ph@$01@1@@Z DD imagerel ??$?0U_Exact_args_t@std@@PEAUstA@?A0x4e02d121@@AEBU?$_Ph@$00@1@AEBU?$_Ph@$01@1@$0A@@?$tuple@PEAUstA@?A0x4e02d121@@U?$_Ph@$00@std@@U?$_Ph@$01@4@@std@@QEAA@U_Exact_args_t@1@$$QEAPEAUstA@?A0x4e02d121@@AEBU?$_Ph@$00@1@AEBU?$_Ph@$01@1@@Z
	DD	imagerel ??$?0U_Exact_args_t@std@@PEAUstA@?A0x4e02d121@@AEBU?$_Ph@$00@1@AEBU?$_Ph@$01@1@$0A@@?$tuple@PEAUstA@?A0x4e02d121@@U?$_Ph@$00@std@@U?$_Ph@$01@4@@std@@QEAA@U_Exact_args_t@1@$$QEAPEAUstA@?A0x4e02d121@@AEBU?$_Ph@$00@1@AEBU?$_Ph@$01@1@@Z+246
	DD	imagerel $unwind$??$?0U_Exact_args_t@std@@PEAUstA@?A0x4e02d121@@AEBU?$_Ph@$00@1@AEBU?$_Ph@$01@1@$0A@@?$tuple@PEAUstA@?A0x4e02d121@@U?$_Ph@$00@std@@U?$_Ph@$01@4@@std@@QEAA@U_Exact_args_t@1@$$QEAPEAUstA@?A0x4e02d121@@AEBU?$_Ph@$00@1@AEBU?$_Ph@$01@1@@Z
pdata	ENDS
;	COMDAT pdata
pdata	SEGMENT
$pdata$??$forward@AEBV?$_Binder@U_Unforced@std@@P8stA@?A0x4e02d121@@EAAXHH@ZPEAU34@AEBU?$_Ph@$00@2@AEBU?$_Ph@$01@2@@std@@@std@@YAAEBV?$_Binder@U_Unforced@std@@P8stA@?A0x4e02d121@@EAAXHH@ZPEAU34@AEBU?$_Ph@$00@2@AEBU?$_Ph@$01@2@@0@AEBV10@@Z DD imagerel ??$forward@AEBV?$_Binder@U_Unforced@std@@P8stA@?A0x4e02d121@@EAAXHH@ZPEAU34@AEBU?$_Ph@$00@2@AEBU?$_Ph@$01@2@@std@@@std@@YAAEBV?$_Binder@U_Unforced@std@@P8stA@?A0x4e02d121@@EAAXHH@ZPEAU34@AEBU?$_Ph@$00@2@AEBU?$_Ph@$01@2@@0@AEBV10@@Z
	DD	imagerel ??$forward@AEBV?$_Binder@U_Unforced@std@@P8stA@?A0x4e02d121@@EAAXHH@ZPEAU34@AEBU?$_Ph@$00@2@AEBU?$_Ph@$01@2@@std@@@std@@YAAEBV?$_Binder@U_Unforced@std@@P8stA@?A0x4e02d121@@EAAXHH@ZPEAU34@AEBU?$_Ph@$00@2@AEBU?$_Ph@$01@2@@0@AEBV10@@Z+72
	DD	imagerel $unwind$??$forward@AEBV?$_Binder@U_Unforced@std@@P8stA@?A0x4e02d121@@EAAXHH@ZPEAU34@AEBU?$_Ph@$00@2@AEBU?$_Ph@$01@2@@std@@@std@@YAAEBV?$_Binder@U_Unforced@std@@P8stA@?A0x4e02d121@@EAAXHH@ZPEAU34@AEBU?$_Ph@$00@2@AEBU?$_Ph@$01@2@@0@AEBV10@@Z
pdata	ENDS
;	COMDAT pdata
pdata	SEGMENT
$pdata$??$forward@AEBV<lambda_1>@?1??event_foo@@YAXXZ@@std@@YAAEBV<lambda_1>@?1??event_foo@@YAXXZ@AEBV1?1??2@YAXXZ@@Z DD imagerel ??$forward@AEBV<lambda_1>@?1??event_foo@@YAXXZ@@std@@YAAEBV<lambda_1>@?1??event_foo@@YAXXZ@AEBV1?1??2@YAXXZ@@Z
	DD	imagerel ??$forward@AEBV<lambda_1>@?1??event_foo@@YAXXZ@@std@@YAAEBV<lambda_1>@?1??event_foo@@YAXXZ@AEBV1?1??2@YAXXZ@@Z+72
	DD	imagerel $unwind$??$forward@AEBV<lambda_1>@?1??event_foo@@YAXXZ@@std@@YAAEBV<lambda_1>@?1??event_foo@@YAXXZ@AEBV1?1??2@YAXXZ@@Z
pdata	ENDS
;	COMDAT pdata
pdata	SEGMENT
$pdata$??$forward@AEBQ6AXHH@Z@std@@YAAEBQ6AXHH@ZAEBQ6AXHH@Z@Z DD imagerel $LN3
	DD	imagerel $LN3+72
	DD	imagerel $unwind$??$forward@AEBQ6AXHH@Z@std@@YAAEBQ6AXHH@ZAEBQ6AXHH@Z@Z
pdata	ENDS
;	COMDAT pdata
pdata	SEGMENT
$pdata$??$exchange@PEAU?$_Tree_node@U?$pair@$$CBHV?$function@$$A6AXHH@Z@std@@@std@@PEAX@std@@$$T@std@@YAPEAU?$_Tree_node@U?$pair@$$CBHV?$function@$$A6AXHH@Z@std@@@std@@PEAX@0@AEAPEAU10@$$QEA$$T@Z DD imagerel $LN3
	DD	imagerel $LN3+107
	DD	imagerel $unwind$??$exchange@PEAU?$_Tree_node@U?$pair@$$CBHV?$function@$$A6AXHH@Z@std@@@std@@PEAX@std@@$$T@std@@YAPEAU?$_Tree_node@U?$pair@$$CBHV?$function@$$A6AXHH@Z@std@@@std@@PEAX@0@AEAPEAU10@$$QEA$$T@Z
pdata	ENDS
;	COMDAT pdata
pdata	SEGMENT
$pdata$??$_Kfn@$$CBHV?$function@$$A6AXHH@Z@std@@@?$_Tmap_traits@HV?$function@$$A6AXHH@Z@std@@U?$less@H@2@V?$allocator@U?$pair@$$CBHV?$function@$$A6AXHH@Z@std@@@std@@@2@$0A@@std@@SAAEBHAEBU?$pair@$$CBHV?$function@$$A6AXHH@Z@std@@@1@@Z DD imagerel $LN3
	DD	imagerel $LN3+71
	DD	imagerel $unwind$??$_Kfn@$$CBHV?$function@$$A6AXHH@Z@std@@@?$_Tmap_traits@HV?$function@$$A6AXHH@Z@std@@U?$less@H@2@V?$allocator@U?$pair@$$CBHV?$function@$$A6AXHH@Z@std@@@std@@@2@$0A@@std@@SAAEBHAEBU?$pair@$$CBHV?$function@$$A6AXHH@Z@std@@@1@@Z
pdata	ENDS
;	COMDAT pdata
pdata	SEGMENT
$pdata$??$_Debug_lt_pred@AEBU?$less@H@std@@AEBHAEBH$0A@@std@@YA_NAEBU?$less@H@0@AEBH1@Z DD imagerel $LN13
	DD	imagerel $LN13+271
	DD	imagerel $unwind$??$_Debug_lt_pred@AEBU?$less@H@std@@AEBHAEBH$0A@@std@@YA_NAEBU?$less@H@0@AEBH1@Z
pdata	ENDS
;	COMDAT pdata
pdata	SEGMENT
$pdata$??$construct@U?$pair@$$CBHV?$function@$$A6AXHH@Z@std@@@std@@AEAHAEBV?$function@$$A6AXHH@Z@2@@?$_Default_allocator_traits@V?$allocator@U?$_Tree_node@U?$pair@$$CBHV?$function@$$A6AXHH@Z@std@@@std@@PEAX@std@@@std@@@std@@SAXAEAV?$allocator@U?$_Tree_node@U?$pair@$$CBHV?$function@$$A6AXHH@Z@std@@@std@@PEAX@std@@@1@QEAU?$pair@$$CBHV?$function@$$A6AXHH@Z@std@@@1@AEAHAEBV?$function@$$A6AXHH@Z@1@@Z DD imagerel $LN3
	DD	imagerel $LN3+167
	DD	imagerel $unwind$??$construct@U?$pair@$$CBHV?$function@$$A6AXHH@Z@std@@@std@@AEAHAEBV?$function@$$A6AXHH@Z@2@@?$_Default_allocator_traits@V?$allocator@U?$_Tree_node@U?$pair@$$CBHV?$function@$$A6AXHH@Z@std@@@std@@PEAX@std@@@std@@@std@@SAXAEAV?$allocator@U?$_Tree_node@U?$pair@$$CBHV?$function@$$A6AXHH@Z@std@@@std@@PEAX@std@@@1@QEAU?$pair@$$CBHV?$function@$$A6AXHH@Z@std@@@1@AEAHAEBV?$function@$$A6AXHH@Z@1@@Z
pdata	ENDS
;	COMDAT pdata
pdata	SEGMENT
$pdata$??$_Construct_in_place@PEAU?$_Tree_node@U?$pair@$$CBHV?$function@$$A6AXHH@Z@std@@@std@@PEAX@std@@AEAPEAU12@@std@@YAXAEAPEAU?$_Tree_node@U?$pair@$$CBHV?$function@$$A6AXHH@Z@std@@@std@@PEAX@0@0@Z DD imagerel $LN3
	DD	imagerel $LN3+130
	DD	imagerel $unwind$??$_Construct_in_place@PEAU?$_Tree_node@U?$pair@$$CBHV?$function@$$A6AXHH@Z@std@@@std@@PEAX@std@@AEAPEAU12@@std@@YAXAEAPEAU?$_Tree_node@U?$pair@$$CBHV?$function@$$A6AXHH@Z@std@@@std@@PEAX@0@0@Z
pdata	ENDS
;	COMDAT pdata
pdata	SEGMENT
$pdata$??$forward@AEAPEAU?$_Tree_node@U?$pair@$$CBHV?$function@$$A6AXHH@Z@std@@@std@@PEAX@std@@@std@@YAAEAPEAU?$_Tree_node@U?$pair@$$CBHV?$function@$$A6AXHH@Z@std@@@std@@PEAX@0@AEAPEAU10@@Z DD imagerel $LN3
	DD	imagerel $LN3+72
	DD	imagerel $unwind$??$forward@AEAPEAU?$_Tree_node@U?$pair@$$CBHV?$function@$$A6AXHH@Z@std@@@std@@PEAX@std@@@std@@YAAEAPEAU?$_Tree_node@U?$pair@$$CBHV?$function@$$A6AXHH@Z@std@@@std@@PEAX@0@AEAPEAU10@@Z
pdata	ENDS
;	COMDAT pdata
pdata	SEGMENT
$pdata$??$forward@_N@std@@YA$$QEA_NAEA_N@Z DD imagerel $LN3
	DD	imagerel $LN3+72
	DD	imagerel $unwind$??$forward@_N@std@@YA$$QEA_NAEA_N@Z
pdata	ENDS
;	COMDAT pdata
pdata	SEGMENT
$pdata$??$forward@PEAU?$_Tree_node@U?$pair@$$CBHV?$function@$$A6AXHH@Z@std@@@std@@PEAX@std@@@std@@YA$$QEAPEAU?$_Tree_node@U?$pair@$$CBHV?$function@$$A6AXHH@Z@std@@@std@@PEAX@0@AEAPEAU10@@Z DD imagerel $LN3
	DD	imagerel $LN3+72
	DD	imagerel $unwind$??$forward@PEAU?$_Tree_node@U?$pair@$$CBHV?$function@$$A6AXHH@Z@std@@@std@@PEAX@std@@@std@@YA$$QEAPEAU?$_Tree_node@U?$pair@$$CBHV?$function@$$A6AXHH@Z@std@@@std@@PEAX@0@AEAPEAU10@@Z
pdata	ENDS
;	COMDAT pdata
pdata	SEGMENT
$pdata$??$construct@U?$pair@$$CBHV?$function@$$A6AXHH@Z@std@@@std@@AEAHV?$function@$$A6AXHH@Z@2@@?$_Default_allocator_traits@V?$allocator@U?$_Tree_node@U?$pair@$$CBHV?$function@$$A6AXHH@Z@std@@@std@@PEAX@std@@@std@@@std@@SAXAEAV?$allocator@U?$_Tree_node@U?$pair@$$CBHV?$function@$$A6AXHH@Z@std@@@std@@PEAX@std@@@1@QEAU?$pair@$$CBHV?$function@$$A6AXHH@Z@std@@@1@AEAH$$QEAV?$function@$$A6AXHH@Z@1@@Z DD imagerel $LN3
	DD	imagerel $LN3+167
	DD	imagerel $unwind$??$construct@U?$pair@$$CBHV?$function@$$A6AXHH@Z@std@@@std@@AEAHV?$function@$$A6AXHH@Z@2@@?$_Default_allocator_traits@V?$allocator@U?$_Tree_node@U?$pair@$$CBHV?$function@$$A6AXHH@Z@std@@@std@@PEAX@std@@@std@@@std@@SAXAEAV?$allocator@U?$_Tree_node@U?$pair@$$CBHV?$function@$$A6AXHH@Z@std@@@std@@PEAX@std@@@1@QEAU?$pair@$$CBHV?$function@$$A6AXHH@Z@std@@@1@AEAH$$QEAV?$function@$$A6AXHH@Z@1@@Z
pdata	ENDS
;	COMDAT pdata
pdata	SEGMENT
$pdata$??$?0U_Exact_args_t@std@@AEBU?$_Ph@$00@1@AEBU?$_Ph@$01@1@$0A@@?$tuple@U?$_Ph@$00@std@@U?$_Ph@$01@2@@std@@QEAA@U_Exact_args_t@1@AEBU?$_Ph@$00@1@AEBU?$_Ph@$01@1@@Z DD imagerel $LN3
	DD	imagerel $LN3+206
	DD	imagerel $unwind$??$?0U_Exact_args_t@std@@AEBU?$_Ph@$00@1@AEBU?$_Ph@$01@1@$0A@@?$tuple@U?$_Ph@$00@std@@U?$_Ph@$01@2@@std@@QEAA@U_Exact_args_t@1@AEBU?$_Ph@$00@1@AEBU?$_Ph@$01@1@@Z
pdata	ENDS
;	COMDAT pdata
pdata	SEGMENT
$pdata$??$?0PEAUstA@?A0x4e02d121@@@?$_Tuple_val@PEAUstA@?A0x4e02d121@@@std@@QEAA@$$QEAPEAUstA@?A0x4e02d121@@@Z DD imagerel ??$?0PEAUstA@?A0x4e02d121@@@?$_Tuple_val@PEAUstA@?A0x4e02d121@@@std@@QEAA@$$QEAPEAUstA@?A0x4e02d121@@@Z
	DD	imagerel ??$?0PEAUstA@?A0x4e02d121@@@?$_Tuple_val@PEAUstA@?A0x4e02d121@@@std@@QEAA@$$QEAPEAUstA@?A0x4e02d121@@@Z+101
	DD	imagerel $unwind$??$?0PEAUstA@?A0x4e02d121@@@?$_Tuple_val@PEAUstA@?A0x4e02d121@@@std@@QEAA@$$QEAPEAUstA@?A0x4e02d121@@@Z
pdata	ENDS
;	COMDAT pdata
pdata	SEGMENT
$pdata$??$addressof@$$CBV?$_Tree_val@U?$_Tree_simple_types@U?$pair@$$CBHV?$function@$$A6AXHH@Z@std@@@std@@@std@@@std@@@std@@YAPEBV?$_Tree_val@U?$_Tree_simple_types@U?$pair@$$CBHV?$function@$$A6AXHH@Z@std@@@std@@@std@@@0@AEBV10@@Z DD imagerel $LN3
	DD	imagerel $LN3+72
	DD	imagerel $unwind$??$addressof@$$CBV?$_Tree_val@U?$_Tree_simple_types@U?$pair@$$CBHV?$function@$$A6AXHH@Z@std@@@std@@@std@@@std@@@std@@YAPEBV?$_Tree_val@U?$_Tree_simple_types@U?$pair@$$CBHV?$function@$$A6AXHH@Z@std@@@std@@@std@@@0@AEBV10@@Z
pdata	ENDS
;	COMDAT pdata
pdata	SEGMENT
$pdata$??$?0AEAHAEBV?$function@$$A6AXHH@Z@std@@$0A@@?$pair@$$CBHV?$function@$$A6AXHH@Z@std@@@std@@QEAA@AEAHAEBV?$function@$$A6AXHH@Z@1@@Z DD imagerel $LN4
	DD	imagerel $LN4+149
	DD	imagerel $unwind$??$?0AEAHAEBV?$function@$$A6AXHH@Z@std@@$0A@@?$pair@$$CBHV?$function@$$A6AXHH@Z@std@@@std@@QEAA@AEAHAEBV?$function@$$A6AXHH@Z@1@@Z
pdata	ENDS
;	COMDAT pdata
pdata	SEGMENT
$pdata$??$?0AEAHV?$function@$$A6AXHH@Z@std@@$0A@@?$pair@$$CBHV?$function@$$A6AXHH@Z@std@@@std@@QEAA@AEAH$$QEAV?$function@$$A6AXHH@Z@1@@Z DD imagerel $LN3
	DD	imagerel $LN3+153
	DD	imagerel $unwind$??$?0AEAHV?$function@$$A6AXHH@Z@std@@$0A@@?$pair@$$CBHV?$function@$$A6AXHH@Z@std@@@std@@QEAA@AEAH$$QEAV?$function@$$A6AXHH@Z@1@@Z
pdata	ENDS
;	COMDAT pdata
pdata	SEGMENT
$pdata$??$?0U_Exact_args_t@std@@AEBU?$_Ph@$01@1@$$V$0A@@?$tuple@U?$_Ph@$01@std@@@std@@QEAA@U_Exact_args_t@1@AEBU?$_Ph@$01@1@@Z DD imagerel $LN3
	DD	imagerel $LN3+159
	DD	imagerel $unwind$??$?0U_Exact_args_t@std@@AEBU?$_Ph@$01@1@$$V$0A@@?$tuple@U?$_Ph@$01@std@@@std@@QEAA@U_Exact_args_t@1@AEBU?$_Ph@$01@1@@Z
pdata	ENDS
;	COMDAT pdata
pdata	SEGMENT
$pdata$??$?0AEBU?$_Ph@$00@std@@@?$_Tuple_val@U?$_Ph@$00@std@@@std@@QEAA@AEBU?$_Ph@$00@1@@Z DD imagerel $LN3
	DD	imagerel $LN3+88
	DD	imagerel $unwind$??$?0AEBU?$_Ph@$00@std@@@?$_Tuple_val@U?$_Ph@$00@std@@@std@@QEAA@AEBU?$_Ph@$00@1@@Z
pdata	ENDS
;	COMDAT pdata
pdata	SEGMENT
$pdata$??$?0U_Exact_args_t@std@@$0A@@?$tuple@$$V@std@@QEAA@U_Exact_args_t@1@@Z DD imagerel $LN3
	DD	imagerel $LN3+76
	DD	imagerel $unwind$??$?0U_Exact_args_t@std@@$0A@@?$tuple@$$V@std@@QEAA@U_Exact_args_t@1@@Z
pdata	ENDS
;	COMDAT pdata
pdata	SEGMENT
$pdata$??$?0AEBU?$_Ph@$01@std@@@?$_Tuple_val@U?$_Ph@$01@std@@@std@@QEAA@AEBU?$_Ph@$01@1@@Z DD imagerel $LN3
	DD	imagerel $LN3+88
	DD	imagerel $unwind$??$?0AEBU?$_Ph@$01@std@@@?$_Tuple_val@U?$_Ph@$01@std@@@std@@QEAA@AEBU?$_Ph@$01@1@@Z
pdata	ENDS
;	COMDAT pdata
pdata	SEGMENT
$pdata$??$move@AEAV?$function@$$A6AXHH@Z@std@@@std@@YA$$QEAV?$function@$$A6AXHH@Z@0@AEAV10@@Z DD imagerel $LN3
	DD	imagerel $LN3+72
	DD	imagerel $unwind$??$move@AEAV?$function@$$A6AXHH@Z@std@@@std@@YA$$QEAV?$function@$$A6AXHH@Z@0@AEAV10@@Z
pdata	ENDS
;	COMDAT pdata
pdata	SEGMENT
$pdata$??$?0HH$0A@@?$tuple@$$QEAH$$QEAH@std@@QEAA@$$QEAH0@Z DD imagerel $LN3
	DD	imagerel $LN3+201
	DD	imagerel $unwind$??$?0HH$0A@@?$tuple@$$QEAH$$QEAH@std@@QEAA@$$QEAH0@Z
pdata	ENDS
;	COMDAT pdata
pdata	SEGMENT
$pdata$??$?0U_Exact_args_t@std@@HH$0A@@?$tuple@$$QEAH$$QEAH@std@@QEAA@U_Exact_args_t@1@$$QEAH1@Z DD imagerel $LN3
	DD	imagerel $LN3+207
	DD	imagerel $unwind$??$?0U_Exact_args_t@std@@HH$0A@@?$tuple@$$QEAH$$QEAH@std@@QEAA@U_Exact_args_t@1@$$QEAH1@Z
pdata	ENDS
;	COMDAT pdata
pdata	SEGMENT
$pdata$??$?0U_Exact_args_t@std@@H$$V$0A@@?$tuple@$$QEAH@std@@QEAA@U_Exact_args_t@1@$$QEAH@Z DD imagerel $LN3
	DD	imagerel $LN3+159
	DD	imagerel $unwind$??$?0U_Exact_args_t@std@@H$$V$0A@@?$tuple@$$QEAH@std@@QEAA@U_Exact_args_t@1@$$QEAH@Z
pdata	ENDS
;	COMDAT pdata
pdata	SEGMENT
$pdata$??$?0H@?$_Tuple_val@$$QEAH@std@@QEAA@$$QEAH@Z DD imagerel $LN3
	DD	imagerel $LN3+98
	DD	imagerel $unwind$??$?0H@?$_Tuple_val@$$QEAH@std@@QEAA@$$QEAH@Z
pdata	ENDS
;	COMDAT rtc$TMZ
rtc$TMZ	SEGMENT
_RTC_Shutdown.rtc$TMZ DQ FLAT:_RTC_Shutdown
rtc$TMZ	ENDS
;	COMDAT rtc$IMZ
rtc$IMZ	SEGMENT
_RTC_InitBase.rtc$IMZ DQ FLAT:_RTC_InitBase
rtc$IMZ	ENDS
;	COMDAT ??_R1A@?0A@EA@?$_Func_impl_no_alloc@V?$_Binder@U_Unforced@std@@P8stA@?A0x4e02d121@@EAAXHH@ZPEAU34@AEBU?$_Ph@$00@2@AEBU?$_Ph@$01@2@@std@@XHH@std@@8
rdata$r	SEGMENT
??_R1A@?0A@EA@?$_Func_impl_no_alloc@V?$_Binder@U_Unforced@std@@P8stA@?A0x4e02d121@@EAAXHH@ZPEAU34@AEBU?$_Ph@$00@2@AEBU?$_Ph@$01@2@@std@@XHH@std@@8 DD imagerel ??_R0?AV?$_Func_impl_no_alloc@V?$_Binder@U_Unforced@std@@P8stA@?A0x4e02d121@@EAAXHH@ZPEAU34@AEBU?$_Ph@$00@2@AEBU?$_Ph@$01@2@@std@@XHH@std@@@8 ; std::_Func_impl_no_alloc<std::_Binder<std::_Unforced,void (__cdecl `anonymous namespace'::stA::*)(int,int),A0x4e02d121::stA *,std::_Ph<1> const &,std::_Ph<2> const &>,void,int,int>::`RTTI Base Class Descriptor at (0,-1,0,64)'
	DD	01H
	DD	00H
	DD	0ffffffffH
	DD	00H
	DD	040H
	DD	imagerel ??_R3?$_Func_impl_no_alloc@V?$_Binder@U_Unforced@std@@P8stA@?A0x4e02d121@@EAAXHH@ZPEAU34@AEBU?$_Ph@$00@2@AEBU?$_Ph@$01@2@@std@@XHH@std@@8
rdata$r	ENDS
;	COMDAT ??_R2?$_Func_impl_no_alloc@V?$_Binder@U_Unforced@std@@P8stA@?A0x4e02d121@@EAAXHH@ZPEAU34@AEBU?$_Ph@$00@2@AEBU?$_Ph@$01@2@@std@@XHH@std@@8
rdata$r	SEGMENT
??_R2?$_Func_impl_no_alloc@V?$_Binder@U_Unforced@std@@P8stA@?A0x4e02d121@@EAAXHH@ZPEAU34@AEBU?$_Ph@$00@2@AEBU?$_Ph@$01@2@@std@@XHH@std@@8 DD imagerel ??_R1A@?0A@EA@?$_Func_impl_no_alloc@V?$_Binder@U_Unforced@std@@P8stA@?A0x4e02d121@@EAAXHH@ZPEAU34@AEBU?$_Ph@$00@2@AEBU?$_Ph@$01@2@@std@@XHH@std@@8 ; std::_Func_impl_no_alloc<std::_Binder<std::_Unforced,void (__cdecl `anonymous namespace'::stA::*)(int,int),A0x4e02d121::stA *,std::_Ph<1> const &,std::_Ph<2> const &>,void,int,int>::`RTTI Base Class Array'
	DD	imagerel ??_R1A@?0A@EA@?$_Func_base@XHH@std@@8
	ORG $+3
rdata$r	ENDS
;	COMDAT ??_R3?$_Func_impl_no_alloc@V?$_Binder@U_Unforced@std@@P8stA@?A0x4e02d121@@EAAXHH@ZPEAU34@AEBU?$_Ph@$00@2@AEBU?$_Ph@$01@2@@std@@XHH@std@@8
rdata$r	SEGMENT
??_R3?$_Func_impl_no_alloc@V?$_Binder@U_Unforced@std@@P8stA@?A0x4e02d121@@EAAXHH@ZPEAU34@AEBU?$_Ph@$00@2@AEBU?$_Ph@$01@2@@std@@XHH@std@@8 DD 00H ; std::_Func_impl_no_alloc<std::_Binder<std::_Unforced,void (__cdecl `anonymous namespace'::stA::*)(int,int),A0x4e02d121::stA *,std::_Ph<1> const &,std::_Ph<2> const &>,void,int,int>::`RTTI Class Hierarchy Descriptor'
	DD	00H
	DD	02H
	DD	imagerel ??_R2?$_Func_impl_no_alloc@V?$_Binder@U_Unforced@std@@P8stA@?A0x4e02d121@@EAAXHH@ZPEAU34@AEBU?$_Ph@$00@2@AEBU?$_Ph@$01@2@@std@@XHH@std@@8
rdata$r	ENDS
;	COMDAT ??_R0?AV?$_Func_impl_no_alloc@V?$_Binder@U_Unforced@std@@P8stA@?A0x4e02d121@@EAAXHH@ZPEAU34@AEBU?$_Ph@$00@2@AEBU?$_Ph@$01@2@@std@@XHH@std@@@8
data$r	SEGMENT
??_R0?AV?$_Func_impl_no_alloc@V?$_Binder@U_Unforced@std@@P8stA@?A0x4e02d121@@EAAXHH@ZPEAU34@AEBU?$_Ph@$00@2@AEBU?$_Ph@$01@2@@std@@XHH@std@@@8 DQ FLAT:??_7type_info@@6B@ ; std::_Func_impl_no_alloc<std::_Binder<std::_Unforced,void (__cdecl `anonymous namespace'::stA::*)(int,int),A0x4e02d121::stA *,std::_Ph<1> const &,std::_Ph<2> const &>,void,int,int> `RTTI Type Descriptor'
	DQ	0000000000000000H
	DB	'.?AV?$_Func_impl_no_alloc@V?$_Binder@U_Unforced@std@@P8s'
	DB	'tA@?A0x4e02d121@@EAAXHH@ZPEAU34@AEBU?$_Ph@$00@2@AEBU?$_Ph@$01'
	DB	'@2@@std@@XHH@std@@', 00H
data$r	ENDS
;	COMDAT ??_R4?$_Func_impl_no_alloc@V?$_Binder@U_Unforced@std@@P8stA@?A0x4e02d121@@EAAXHH@ZPEAU34@AEBU?$_Ph@$00@2@AEBU?$_Ph@$01@2@@std@@XHH@std@@6B@
rdata$r	SEGMENT
??_R4?$_Func_impl_no_alloc@V?$_Binder@U_Unforced@std@@P8stA@?A0x4e02d121@@EAAXHH@ZPEAU34@AEBU?$_Ph@$00@2@AEBU?$_Ph@$01@2@@std@@XHH@std@@6B@ DD 01H ; std::_Func_impl_no_alloc<std::_Binder<std::_Unforced,void (__cdecl `anonymous namespace'::stA::*)(int,int),A0x4e02d121::stA *,std::_Ph<1> const &,std::_Ph<2> const &>,void,int,int>::`RTTI Complete Object Locator'
	DD	00H
	DD	00H
	DD	imagerel ??_R0?AV?$_Func_impl_no_alloc@V?$_Binder@U_Unforced@std@@P8stA@?A0x4e02d121@@EAAXHH@ZPEAU34@AEBU?$_Ph@$00@2@AEBU?$_Ph@$01@2@@std@@XHH@std@@@8
	DD	imagerel ??_R3?$_Func_impl_no_alloc@V?$_Binder@U_Unforced@std@@P8stA@?A0x4e02d121@@EAAXHH@ZPEAU34@AEBU?$_Ph@$00@2@AEBU?$_Ph@$01@2@@std@@XHH@std@@8
	DD	imagerel ??_R4?$_Func_impl_no_alloc@V?$_Binder@U_Unforced@std@@P8stA@?A0x4e02d121@@EAAXHH@ZPEAU34@AEBU?$_Ph@$00@2@AEBU?$_Ph@$01@2@@std@@XHH@std@@6B@
rdata$r	ENDS
;	COMDAT ??_R1A@?0A@EA@?$_Func_impl_no_alloc@V<lambda_1>@?1??event_foo@@YAXXZ@XHH@std@@8
rdata$r	SEGMENT
??_R1A@?0A@EA@?$_Func_impl_no_alloc@V<lambda_1>@?1??event_foo@@YAXXZ@XHH@std@@8 DD imagerel ??_R0?AV?$_Func_impl_no_alloc@V<lambda_1>@?1??event_foo@@YAXXZ@XHH@std@@@8 ; std::_Func_impl_no_alloc<`event_foo'::`2'::<lambda_1>,void,int,int>::`RTTI Base Class Descriptor at (0,-1,0,64)'
	DD	01H
	DD	00H
	DD	0ffffffffH
	DD	00H
	DD	040H
	DD	imagerel ??_R3?$_Func_impl_no_alloc@V<lambda_1>@?1??event_foo@@YAXXZ@XHH@std@@8
rdata$r	ENDS
;	COMDAT ??_R2?$_Func_impl_no_alloc@V<lambda_1>@?1??event_foo@@YAXXZ@XHH@std@@8
rdata$r	SEGMENT
??_R2?$_Func_impl_no_alloc@V<lambda_1>@?1??event_foo@@YAXXZ@XHH@std@@8 DD imagerel ??_R1A@?0A@EA@?$_Func_impl_no_alloc@V<lambda_1>@?1??event_foo@@YAXXZ@XHH@std@@8 ; std::_Func_impl_no_alloc<`event_foo'::`2'::<lambda_1>,void,int,int>::`RTTI Base Class Array'
	DD	imagerel ??_R1A@?0A@EA@?$_Func_base@XHH@std@@8
	ORG $+3
rdata$r	ENDS
;	COMDAT ??_R3?$_Func_impl_no_alloc@V<lambda_1>@?1??event_foo@@YAXXZ@XHH@std@@8
rdata$r	SEGMENT
??_R3?$_Func_impl_no_alloc@V<lambda_1>@?1??event_foo@@YAXXZ@XHH@std@@8 DD 00H ; std::_Func_impl_no_alloc<`event_foo'::`2'::<lambda_1>,void,int,int>::`RTTI Class Hierarchy Descriptor'
	DD	00H
	DD	02H
	DD	imagerel ??_R2?$_Func_impl_no_alloc@V<lambda_1>@?1??event_foo@@YAXXZ@XHH@std@@8
rdata$r	ENDS
;	COMDAT ??_R0?AV?$_Func_impl_no_alloc@V<lambda_1>@?1??event_foo@@YAXXZ@XHH@std@@@8
data$r	SEGMENT
??_R0?AV?$_Func_impl_no_alloc@V<lambda_1>@?1??event_foo@@YAXXZ@XHH@std@@@8 DQ FLAT:??_7type_info@@6B@ ; std::_Func_impl_no_alloc<`event_foo'::`2'::<lambda_1>,void,int,int> `RTTI Type Descriptor'
	DQ	0000000000000000H
	DB	'.?AV?$_Func_impl_no_alloc@V<lambda_1>@?1??event_foo@@YAX'
	DB	'XZ@XHH@std@@', 00H
data$r	ENDS
;	COMDAT ??_R4?$_Func_impl_no_alloc@V<lambda_1>@?1??event_foo@@YAXXZ@XHH@std@@6B@
rdata$r	SEGMENT
??_R4?$_Func_impl_no_alloc@V<lambda_1>@?1??event_foo@@YAXXZ@XHH@std@@6B@ DD 01H ; std::_Func_impl_no_alloc<`event_foo'::`2'::<lambda_1>,void,int,int>::`RTTI Complete Object Locator'
	DD	00H
	DD	00H
	DD	imagerel ??_R0?AV?$_Func_impl_no_alloc@V<lambda_1>@?1??event_foo@@YAXXZ@XHH@std@@@8
	DD	imagerel ??_R3?$_Func_impl_no_alloc@V<lambda_1>@?1??event_foo@@YAXXZ@XHH@std@@8
	DD	imagerel ??_R4?$_Func_impl_no_alloc@V<lambda_1>@?1??event_foo@@YAXXZ@XHH@std@@6B@
rdata$r	ENDS
;	COMDAT ??_R1A@?0A@EA@?$_Func_impl_no_alloc@P6AXHH@ZXHH@std@@8
rdata$r	SEGMENT
??_R1A@?0A@EA@?$_Func_impl_no_alloc@P6AXHH@ZXHH@std@@8 DD imagerel ??_R0?AV?$_Func_impl_no_alloc@P6AXHH@ZXHH@std@@@8 ; std::_Func_impl_no_alloc<void (__cdecl*)(int,int),void,int,int>::`RTTI Base Class Descriptor at (0,-1,0,64)'
	DD	01H
	DD	00H
	DD	0ffffffffH
	DD	00H
	DD	040H
	DD	imagerel ??_R3?$_Func_impl_no_alloc@P6AXHH@ZXHH@std@@8
rdata$r	ENDS
;	COMDAT ??_R2?$_Func_impl_no_alloc@P6AXHH@ZXHH@std@@8
rdata$r	SEGMENT
??_R2?$_Func_impl_no_alloc@P6AXHH@ZXHH@std@@8 DD imagerel ??_R1A@?0A@EA@?$_Func_impl_no_alloc@P6AXHH@ZXHH@std@@8 ; std::_Func_impl_no_alloc<void (__cdecl*)(int,int),void,int,int>::`RTTI Base Class Array'
	DD	imagerel ??_R1A@?0A@EA@?$_Func_base@XHH@std@@8
	ORG $+3
rdata$r	ENDS
;	COMDAT ??_R3?$_Func_impl_no_alloc@P6AXHH@ZXHH@std@@8
rdata$r	SEGMENT
??_R3?$_Func_impl_no_alloc@P6AXHH@ZXHH@std@@8 DD 00H	; std::_Func_impl_no_alloc<void (__cdecl*)(int,int),void,int,int>::`RTTI Class Hierarchy Descriptor'
	DD	00H
	DD	02H
	DD	imagerel ??_R2?$_Func_impl_no_alloc@P6AXHH@ZXHH@std@@8
rdata$r	ENDS
;	COMDAT ??_R0?AV?$_Func_impl_no_alloc@P6AXHH@ZXHH@std@@@8
data$r	SEGMENT
??_R0?AV?$_Func_impl_no_alloc@P6AXHH@ZXHH@std@@@8 DQ FLAT:??_7type_info@@6B@ ; std::_Func_impl_no_alloc<void (__cdecl*)(int,int),void,int,int> `RTTI Type Descriptor'
	DQ	0000000000000000H
	DB	'.?AV?$_Func_impl_no_alloc@P6AXHH@ZXHH@std@@', 00H
data$r	ENDS
;	COMDAT ??_R4?$_Func_impl_no_alloc@P6AXHH@ZXHH@std@@6B@
rdata$r	SEGMENT
??_R4?$_Func_impl_no_alloc@P6AXHH@ZXHH@std@@6B@ DD 01H	; std::_Func_impl_no_alloc<void (__cdecl*)(int,int),void,int,int>::`RTTI Complete Object Locator'
	DD	00H
	DD	00H
	DD	imagerel ??_R0?AV?$_Func_impl_no_alloc@P6AXHH@ZXHH@std@@@8
	DD	imagerel ??_R3?$_Func_impl_no_alloc@P6AXHH@ZXHH@std@@8
	DD	imagerel ??_R4?$_Func_impl_no_alloc@P6AXHH@ZXHH@std@@6B@
rdata$r	ENDS
;	COMDAT ??_R1A@?0A@EA@?$_Func_base@XHH@std@@8
rdata$r	SEGMENT
??_R1A@?0A@EA@?$_Func_base@XHH@std@@8 DD imagerel ??_R0?AV?$_Func_base@XHH@std@@@8 ; std::_Func_base<void,int,int>::`RTTI Base Class Descriptor at (0,-1,0,64)'
	DD	00H
	DD	00H
	DD	0ffffffffH
	DD	00H
	DD	040H
	DD	imagerel ??_R3?$_Func_base@XHH@std@@8
rdata$r	ENDS
;	COMDAT ??_R2?$_Func_base@XHH@std@@8
rdata$r	SEGMENT
??_R2?$_Func_base@XHH@std@@8 DD imagerel ??_R1A@?0A@EA@?$_Func_base@XHH@std@@8 ; std::_Func_base<void,int,int>::`RTTI Base Class Array'
	ORG $+3
rdata$r	ENDS
;	COMDAT ??_R3?$_Func_base@XHH@std@@8
rdata$r	SEGMENT
??_R3?$_Func_base@XHH@std@@8 DD 00H			; std::_Func_base<void,int,int>::`RTTI Class Hierarchy Descriptor'
	DD	00H
	DD	01H
	DD	imagerel ??_R2?$_Func_base@XHH@std@@8
rdata$r	ENDS
;	COMDAT ??_R0?AV?$_Func_base@XHH@std@@@8
data$r	SEGMENT
??_R0?AV?$_Func_base@XHH@std@@@8 DQ FLAT:??_7type_info@@6B@ ; std::_Func_base<void,int,int> `RTTI Type Descriptor'
	DQ	0000000000000000H
	DB	'.?AV?$_Func_base@XHH@std@@', 00H
data$r	ENDS
;	COMDAT ??_R1A@?0A@EA@bad_array_new_length@std@@8
rdata$r	SEGMENT
??_R1A@?0A@EA@bad_array_new_length@std@@8 DD imagerel ??_R0?AVbad_array_new_length@std@@@8 ; std::bad_array_new_length::`RTTI Base Class Descriptor at (0,-1,0,64)'
	DD	02H
	DD	00H
	DD	0ffffffffH
	DD	00H
	DD	040H
	DD	imagerel ??_R3bad_array_new_length@std@@8
rdata$r	ENDS
;	COMDAT ??_R2bad_array_new_length@std@@8
rdata$r	SEGMENT
??_R2bad_array_new_length@std@@8 DD imagerel ??_R1A@?0A@EA@bad_array_new_length@std@@8 ; std::bad_array_new_length::`RTTI Base Class Array'
	DD	imagerel ??_R1A@?0A@EA@bad_alloc@std@@8
	DD	imagerel ??_R1A@?0A@EA@exception@std@@8
	ORG $+3
rdata$r	ENDS
;	COMDAT ??_R3bad_array_new_length@std@@8
rdata$r	SEGMENT
??_R3bad_array_new_length@std@@8 DD 00H			; std::bad_array_new_length::`RTTI Class Hierarchy Descriptor'
	DD	00H
	DD	03H
	DD	imagerel ??_R2bad_array_new_length@std@@8
rdata$r	ENDS
;	COMDAT ??_R4bad_array_new_length@std@@6B@
rdata$r	SEGMENT
??_R4bad_array_new_length@std@@6B@ DD 01H		; std::bad_array_new_length::`RTTI Complete Object Locator'
	DD	00H
	DD	00H
	DD	imagerel ??_R0?AVbad_array_new_length@std@@@8
	DD	imagerel ??_R3bad_array_new_length@std@@8
	DD	imagerel ??_R4bad_array_new_length@std@@6B@
rdata$r	ENDS
;	COMDAT ??_R1A@?0A@EA@bad_alloc@std@@8
rdata$r	SEGMENT
??_R1A@?0A@EA@bad_alloc@std@@8 DD imagerel ??_R0?AVbad_alloc@std@@@8 ; std::bad_alloc::`RTTI Base Class Descriptor at (0,-1,0,64)'
	DD	01H
	DD	00H
	DD	0ffffffffH
	DD	00H
	DD	040H
	DD	imagerel ??_R3bad_alloc@std@@8
rdata$r	ENDS
;	COMDAT ??_R2bad_alloc@std@@8
rdata$r	SEGMENT
??_R2bad_alloc@std@@8 DD imagerel ??_R1A@?0A@EA@bad_alloc@std@@8 ; std::bad_alloc::`RTTI Base Class Array'
	DD	imagerel ??_R1A@?0A@EA@exception@std@@8
	ORG $+3
rdata$r	ENDS
;	COMDAT ??_R3bad_alloc@std@@8
rdata$r	SEGMENT
??_R3bad_alloc@std@@8 DD 00H				; std::bad_alloc::`RTTI Class Hierarchy Descriptor'
	DD	00H
	DD	02H
	DD	imagerel ??_R2bad_alloc@std@@8
rdata$r	ENDS
;	COMDAT ??_R4bad_alloc@std@@6B@
rdata$r	SEGMENT
??_R4bad_alloc@std@@6B@ DD 01H				; std::bad_alloc::`RTTI Complete Object Locator'
	DD	00H
	DD	00H
	DD	imagerel ??_R0?AVbad_alloc@std@@@8
	DD	imagerel ??_R3bad_alloc@std@@8
	DD	imagerel ??_R4bad_alloc@std@@6B@
rdata$r	ENDS
;	COMDAT ??_R1A@?0A@EA@exception@std@@8
rdata$r	SEGMENT
??_R1A@?0A@EA@exception@std@@8 DD imagerel ??_R0?AVexception@std@@@8 ; std::exception::`RTTI Base Class Descriptor at (0,-1,0,64)'
	DD	00H
	DD	00H
	DD	0ffffffffH
	DD	00H
	DD	040H
	DD	imagerel ??_R3exception@std@@8
rdata$r	ENDS
;	COMDAT ??_R2exception@std@@8
rdata$r	SEGMENT
??_R2exception@std@@8 DD imagerel ??_R1A@?0A@EA@exception@std@@8 ; std::exception::`RTTI Base Class Array'
	ORG $+3
rdata$r	ENDS
;	COMDAT ??_R3exception@std@@8
rdata$r	SEGMENT
??_R3exception@std@@8 DD 00H				; std::exception::`RTTI Class Hierarchy Descriptor'
	DD	00H
	DD	01H
	DD	imagerel ??_R2exception@std@@8
rdata$r	ENDS
;	COMDAT ??_R4exception@std@@6B@
rdata$r	SEGMENT
??_R4exception@std@@6B@ DD 01H				; std::exception::`RTTI Complete Object Locator'
	DD	00H
	DD	00H
	DD	imagerel ??_R0?AVexception@std@@@8
	DD	imagerel ??_R3exception@std@@8
	DD	imagerel ??_R4exception@std@@6B@
rdata$r	ENDS
;	COMDAT ??_C@_1CK@NDNHPKPI@?$AA?$CC?$AAi?$AAn?$AAv?$AAa?$AAl?$AAi?$AAd?$AA?5?$AAc?$AAo?$AAm?$AAp?$AAa?$AAr@
CONST	SEGMENT
??_C@_1CK@NDNHPKPI@?$AA?$CC?$AAi?$AAn?$AAv?$AAa?$AAl?$AAi?$AAd?$AA?5?$AAc?$AAo?$AAm?$AAp?$AAa?$AAr@ DB '"'
	DB	00H, 'i', 00H, 'n', 00H, 'v', 00H, 'a', 00H, 'l', 00H, 'i', 00H
	DB	'd', 00H, ' ', 00H, 'c', 00H, 'o', 00H, 'm', 00H, 'p', 00H, 'a'
	DB	00H, 'r', 00H, 'a', 00H, 't', 00H, 'o', 00H, 'r', 00H, '"', 00H
	DB	00H, 00H					; `string'
CONST	ENDS
;	COMDAT ??_C@_1CI@JONCLBEJ@?$AAs?$AAt?$AAd?$AA?3?$AA?3?$AA_?$AAD?$AAe?$AAb?$AAu?$AAg?$AA_?$AAl?$AAt?$AA_@
CONST	SEGMENT
??_C@_1CI@JONCLBEJ@?$AAs?$AAt?$AAd?$AA?3?$AA?3?$AA_?$AAD?$AAe?$AAb?$AAu?$AAg?$AA_?$AAl?$AAt?$AA_@ DB 's'
	DB	00H, 't', 00H, 'd', 00H, ':', 00H, ':', 00H, '_', 00H, 'D', 00H
	DB	'e', 00H, 'b', 00H, 'u', 00H, 'g', 00H, '_', 00H, 'l', 00H, 't'
	DB	00H, '_', 00H, 'p', 00H, 'r', 00H, 'e', 00H, 'd', 00H, 00H, 00H ; `string'
CONST	ENDS
;	COMDAT ??_C@_0BD@FEEMDEPI@invalid?5comparator@
CONST	SEGMENT
??_C@_0BD@FEEMDEPI@invalid?5comparator@ DB 'invalid comparator', 00H ; `string'
CONST	ENDS
;	COMDAT ??_R0P6AXHH@Z@8
data$r	SEGMENT
??_R0P6AXHH@Z@8 DQ FLAT:??_7type_info@@6B@		; void (__cdecl*)(int,int) `RTTI Type Descriptor'
	DQ	0000000000000000H
	DB	'.P6AXHH@Z', 00H
data$r	ENDS
;	COMDAT ??_R0?AV<lambda_1>@?1??event_foo@@YAXXZ@@8
data$r	SEGMENT
??_R0?AV<lambda_1>@?1??event_foo@@YAXXZ@@8 DQ FLAT:??_7type_info@@6B@ ; `event_foo'::`2'::<lambda_1> `RTTI Type Descriptor'
	DQ	0000000000000000H
	DB	'.?AV<lambda_1>@?1??event_foo@@YAXXZ@', 00H
data$r	ENDS
;	COMDAT ??_R0?AV?$_Binder@U_Unforced@std@@P8stA@?A0x4e02d121@@EAAXHH@ZPEAU34@AEBU?$_Ph@$00@2@AEBU?$_Ph@$01@2@@std@@@8
data$r	SEGMENT
??_R0?AV?$_Binder@U_Unforced@std@@P8stA@?A0x4e02d121@@EAAXHH@ZPEAU34@AEBU?$_Ph@$00@2@AEBU?$_Ph@$01@2@@std@@@8 DQ FLAT:??_7type_info@@6B@ ; std::_Binder<std::_Unforced,void (__cdecl `anonymous namespace'::stA::*)(int,int),A0x4e02d121::stA *,std::_Ph<1> const &,std::_Ph<2> const &> `RTTI Type Descriptor'
	DQ	0000000000000000H
	DB	'.?AV?$_Binder@U_Unforced@std@@P8stA@?A0x4e02d121@@EAAXHH'
	DB	'@ZPEAU34@AEBU?$_Ph@$00@2@AEBU?$_Ph@$01@2@@std@@', 00H
data$r	ENDS
;	COMDAT ??_C@_1EO@GFNCMDLA@?$AAs?$AAt?$AAd?$AA?3?$AA?3?$AA_?$AAA?$AAl?$AAl?$AAo?$AAc?$AAa?$AAt?$AAe?$AA_@
CONST	SEGMENT
??_C@_1EO@GFNCMDLA@?$AAs?$AAt?$AAd?$AA?3?$AA?3?$AA_?$AAA?$AAl?$AAl?$AAo?$AAc?$AAa?$AAt?$AAe?$AA_@ DB 's'
	DB	00H, 't', 00H, 'd', 00H, ':', 00H, ':', 00H, '_', 00H, 'A', 00H
	DB	'l', 00H, 'l', 00H, 'o', 00H, 'c', 00H, 'a', 00H, 't', 00H, 'e'
	DB	00H, '_', 00H, 'm', 00H, 'a', 00H, 'n', 00H, 'u', 00H, 'a', 00H
	DB	'l', 00H, 'l', 00H, 'y', 00H, '_', 00H, 'v', 00H, 'e', 00H, 'c'
	DB	00H, 't', 00H, 'o', 00H, 'r', 00H, '_', 00H, 'a', 00H, 'l', 00H
	DB	'i', 00H, 'g', 00H, 'n', 00H, 'e', 00H, 'd', 00H, 00H, 00H ; `string'
CONST	ENDS
;	COMDAT ??_7?$_Func_impl_no_alloc@V?$_Binder@U_Unforced@std@@P8stA@?A0x4e02d121@@EAAXHH@ZPEAU34@AEBU?$_Ph@$00@2@AEBU?$_Ph@$01@2@@std@@XHH@std@@6B@
CONST	SEGMENT
??_7?$_Func_impl_no_alloc@V?$_Binder@U_Unforced@std@@P8stA@?A0x4e02d121@@EAAXHH@ZPEAU34@AEBU?$_Ph@$00@2@AEBU?$_Ph@$01@2@@std@@XHH@std@@6B@ DQ FLAT:??_R4?$_Func_impl_no_alloc@V?$_Binder@U_Unforced@std@@P8stA@?A0x4e02d121@@EAAXHH@ZPEAU34@AEBU?$_Ph@$00@2@AEBU?$_Ph@$01@2@@std@@XHH@std@@6B@ ; std::_Func_impl_no_alloc<std::_Binder<std::_Unforced,void (__cdecl `anonymous namespace'::stA::*)(int,int),A0x4e02d121::stA *,std::_Ph<1> const &,std::_Ph<2> const &>,void,int,int>::`vftable'
	DQ	FLAT:?_Copy@?$_Func_impl_no_alloc@V?$_Binder@U_Unforced@std@@P8stA@?A0x4e02d121@@EAAXHH@ZPEAU34@AEBU?$_Ph@$00@2@AEBU?$_Ph@$01@2@@std@@XHH@std@@EEBAPEAV?$_Func_base@XHH@2@PEAX@Z
	DQ	FLAT:?_Move@?$_Func_impl_no_alloc@V?$_Binder@U_Unforced@std@@P8stA@?A0x4e02d121@@EAAXHH@ZPEAU34@AEBU?$_Ph@$00@2@AEBU?$_Ph@$01@2@@std@@XHH@std@@EEAAPEAV?$_Func_base@XHH@2@PEAX@Z
	DQ	FLAT:?_Do_call@?$_Func_impl_no_alloc@V?$_Binder@U_Unforced@std@@P8stA@?A0x4e02d121@@EAAXHH@ZPEAU34@AEBU?$_Ph@$00@2@AEBU?$_Ph@$01@2@@std@@XHH@std@@EEAAX$$QEAH0@Z
	DQ	FLAT:?_Target_type@?$_Func_impl_no_alloc@V?$_Binder@U_Unforced@std@@P8stA@?A0x4e02d121@@EAAXHH@ZPEAU34@AEBU?$_Ph@$00@2@AEBU?$_Ph@$01@2@@std@@XHH@std@@EEBAAEBVtype_info@@XZ
	DQ	FLAT:?_Delete_this@?$_Func_impl_no_alloc@V?$_Binder@U_Unforced@std@@P8stA@?A0x4e02d121@@EAAXHH@ZPEAU34@AEBU?$_Ph@$00@2@AEBU?$_Ph@$01@2@@std@@XHH@std@@EEAAX_N@Z
	DQ	FLAT:?_Get@?$_Func_impl_no_alloc@V?$_Binder@U_Unforced@std@@P8stA@?A0x4e02d121@@EAAXHH@ZPEAU34@AEBU?$_Ph@$00@2@AEBU?$_Ph@$01@2@@std@@XHH@std@@EEBAPEBXXZ
CONST	ENDS
;	COMDAT ??_7?$_Func_impl_no_alloc@V<lambda_1>@?1??event_foo@@YAXXZ@XHH@std@@6B@
CONST	SEGMENT
??_7?$_Func_impl_no_alloc@V<lambda_1>@?1??event_foo@@YAXXZ@XHH@std@@6B@ DQ FLAT:??_R4?$_Func_impl_no_alloc@V<lambda_1>@?1??event_foo@@YAXXZ@XHH@std@@6B@ ; std::_Func_impl_no_alloc<`event_foo'::`2'::<lambda_1>,void,int,int>::`vftable'
	DQ	FLAT:?_Copy@?$_Func_impl_no_alloc@V<lambda_1>@?1??event_foo@@YAXXZ@XHH@std@@EEBAPEAV?$_Func_base@XHH@2@PEAX@Z
	DQ	FLAT:?_Move@?$_Func_impl_no_alloc@V<lambda_1>@?1??event_foo@@YAXXZ@XHH@std@@EEAAPEAV?$_Func_base@XHH@2@PEAX@Z
	DQ	FLAT:?_Do_call@?$_Func_impl_no_alloc@V<lambda_1>@?1??event_foo@@YAXXZ@XHH@std@@EEAAX$$QEAH0@Z
	DQ	FLAT:?_Target_type@?$_Func_impl_no_alloc@V<lambda_1>@?1??event_foo@@YAXXZ@XHH@std@@EEBAAEBVtype_info@@XZ
	DQ	FLAT:?_Delete_this@?$_Func_impl_no_alloc@V<lambda_1>@?1??event_foo@@YAXXZ@XHH@std@@EEAAX_N@Z
	DQ	FLAT:?_Get@?$_Func_impl_no_alloc@V<lambda_1>@?1??event_foo@@YAXXZ@XHH@std@@EEBAPEBXXZ
CONST	ENDS
;	COMDAT ??_7?$_Func_impl_no_alloc@P6AXHH@ZXHH@std@@6B@
CONST	SEGMENT
??_7?$_Func_impl_no_alloc@P6AXHH@ZXHH@std@@6B@ DQ FLAT:??_R4?$_Func_impl_no_alloc@P6AXHH@ZXHH@std@@6B@ ; std::_Func_impl_no_alloc<void (__cdecl*)(int,int),void,int,int>::`vftable'
	DQ	FLAT:?_Copy@?$_Func_impl_no_alloc@P6AXHH@ZXHH@std@@EEBAPEAV?$_Func_base@XHH@2@PEAX@Z
	DQ	FLAT:?_Move@?$_Func_impl_no_alloc@P6AXHH@ZXHH@std@@EEAAPEAV?$_Func_base@XHH@2@PEAX@Z
	DQ	FLAT:?_Do_call@?$_Func_impl_no_alloc@P6AXHH@ZXHH@std@@EEAAX$$QEAH0@Z
	DQ	FLAT:?_Target_type@?$_Func_impl_no_alloc@P6AXHH@ZXHH@std@@EEBAAEBVtype_info@@XZ
	DQ	FLAT:?_Delete_this@?$_Func_impl_no_alloc@P6AXHH@ZXHH@std@@EEAAX_N@Z
	DQ	FLAT:?_Get@?$_Func_impl_no_alloc@P6AXHH@ZXHH@std@@EEBAPEBXXZ
CONST	ENDS
;	COMDAT ??_C@_1NE@PFDEEMPK@?$AAC?$AA?3?$AA?2?$AAP?$AAr?$AAo?$AAg?$AAr?$AAa?$AAm?$AA?5?$AAF?$AAi?$AAl?$AAe@
CONST	SEGMENT
??_C@_1NE@PFDEEMPK@?$AAC?$AA?3?$AA?2?$AAP?$AAr?$AAo?$AAg?$AAr?$AAa?$AAm?$AA?5?$AAF?$AAi?$AAl?$AAe@ DB 'C'
	DB	00H, ':', 00H, '\', 00H, 'P', 00H, 'r', 00H, 'o', 00H, 'g', 00H
	DB	'r', 00H, 'a', 00H, 'm', 00H, ' ', 00H, 'F', 00H, 'i', 00H, 'l'
	DB	00H, 'e', 00H, 's', 00H, ' ', 00H, '(', 00H, 'x', 00H, '8', 00H
	DB	'6', 00H, ')', 00H, '\', 00H, 'M', 00H, 'i', 00H, 'c', 00H, 'r'
	DB	00H, 'o', 00H, 's', 00H, 'o', 00H, 'f', 00H, 't', 00H, ' ', 00H
	DB	'V', 00H, 'i', 00H, 's', 00H, 'u', 00H, 'a', 00H, 'l', 00H, ' '
	DB	00H, 'S', 00H, 't', 00H, 'u', 00H, 'd', 00H, 'i', 00H, 'o', 00H
	DB	'\', 00H, '2', 00H, '0', 00H, '1', 00H, '9', 00H, '\', 00H, 'E'
	DB	00H, 'n', 00H, 't', 00H, 'e', 00H, 'r', 00H, 'p', 00H, 'r', 00H
	DB	'i', 00H, 's', 00H, 'e', 00H, '\', 00H, 'V', 00H, 'C', 00H, '\'
	DB	00H, 'T', 00H, 'o', 00H, 'o', 00H, 'l', 00H, 's', 00H, '\', 00H
	DB	'M', 00H, 'S', 00H, 'V', 00H, 'C', 00H, '\', 00H, '1', 00H, '4'
	DB	00H, '.', 00H, '2', 00H, '3', 00H, '.', 00H, '2', 00H, '8', 00H
	DB	'1', 00H, '0', 00H, '5', 00H, '\', 00H, 'i', 00H, 'n', 00H, 'c'
	DB	00H, 'l', 00H, 'u', 00H, 'd', 00H, 'e', 00H, '\', 00H, 'x', 00H
	DB	'u', 00H, 't', 00H, 'i', 00H, 'l', 00H, 'i', 00H, 't', 00H, 'y'
	DB	00H, 00H, 00H				; `string'
CONST	ENDS
;	COMDAT ??_C@_0GK@FAHAKJIH@C?3?2Program?5Files?5?$CIx86?$CJ?2Microsof@
CONST	SEGMENT
??_C@_0GK@FAHAKJIH@C?3?2Program?5Files?5?$CIx86?$CJ?2Microsof@ DB 'C:\Pro'
	DB	'gram Files (x86)\Microsoft Visual Studio\2019\Enterprise\VC\T'
	DB	'ools\MSVC\14.23.28105\include\xutility', 00H ; `string'
CONST	ENDS
;	COMDAT ??_C@_08KENNBKDJ@a?5?$CL?5b?3?$DN?5@
CONST	SEGMENT
??_C@_08KENNBKDJ@a?5?$CL?5b?3?$DN?5@ DB 'a + b:= ', 00H	; `string'
CONST	ENDS
;	COMDAT ??_C@_02KEGNLNML@?0?5@
CONST	SEGMENT
??_C@_02KEGNLNML@?0?5@ DB ', ', 00H			; `string'
CONST	ENDS
;	COMDAT ?_2@placeholders@std@@3U?$_Ph@$01@2@B
CONST	SEGMENT
?_2@placeholders@std@@3U?$_Ph@$01@2@B	ORG $+1		; std::placeholders::_2
CONST	ENDS
;	COMDAT ?_1@placeholders@std@@3U?$_Ph@$00@2@B
CONST	SEGMENT
?_1@placeholders@std@@3U?$_Ph@$00@2@B	ORG $+1		; std::placeholders::_1
CONST	ENDS
;	COMDAT ??_C@_0BB@GCADKGJO@map?1set?5too?5long@
CONST	SEGMENT
??_C@_0BB@GCADKGJO@map?1set?5too?5long@ DB 'map/set too long', 00H ; `string'
CONST	ENDS
;	COMDAT ??_C@_1DG@PLBPCAEM@?$AA?$CC?$AAI?$AAT?$AAE?$AAR?$AAA?$AAT?$AAO?$AAR?$AA?5?$AAL?$AAI?$AAS?$AAT?$AA?5@
CONST	SEGMENT
??_C@_1DG@PLBPCAEM@?$AA?$CC?$AAI?$AAT?$AAE?$AAR?$AAA?$AAT?$AAO?$AAR?$AA?5?$AAL?$AAI?$AAS?$AAT?$AA?5@ DB '"'
	DB	00H, 'I', 00H, 'T', 00H, 'E', 00H, 'R', 00H, 'A', 00H, 'T', 00H
	DB	'O', 00H, 'R', 00H, ' ', 00H, 'L', 00H, 'I', 00H, 'S', 00H, 'T'
	DB	00H, ' ', 00H, 'C', 00H, 'O', 00H, 'R', 00H, 'R', 00H, 'U', 00H
	DB	'P', 00H, 'T', 00H, 'E', 00H, 'D', 00H, '!', 00H, '"', 00H, 00H
	DB	00H						; `string'
CONST	ENDS
;	COMDAT ??_C@_1EE@KLDMFDFL@?$AAs?$AAt?$AAd?$AA?3?$AA?3?$AA_?$AAI?$AAt?$AAe?$AAr?$AAa?$AAt?$AAo?$AAr?$AA_@
CONST	SEGMENT
??_C@_1EE@KLDMFDFL@?$AAs?$AAt?$AAd?$AA?3?$AA?3?$AA_?$AAI?$AAt?$AAe?$AAr?$AAa?$AAt?$AAo?$AAr?$AA_@ DB 's'
	DB	00H, 't', 00H, 'd', 00H, ':', 00H, ':', 00H, '_', 00H, 'I', 00H
	DB	't', 00H, 'e', 00H, 'r', 00H, 'a', 00H, 't', 00H, 'o', 00H, 'r'
	DB	00H, '_', 00H, 'b', 00H, 'a', 00H, 's', 00H, 'e', 00H, '1', 00H
	DB	'2', 00H, ':', 00H, ':', 00H, '_', 00H, 'O', 00H, 'r', 00H, 'p'
	DB	00H, 'h', 00H, 'a', 00H, 'n', 00H, '_', 00H, 'm', 00H, 'e', 00H
	DB	00H, 00H					; `string'
CONST	ENDS
;	COMDAT ??_C@_0BJ@LFDBABJJ@ITERATOR?5LIST?5CORRUPTED?$CB@
CONST	SEGMENT
??_C@_0BJ@LFDBABJJ@ITERATOR?5LIST?5CORRUPTED?$CB@ DB 'ITERATOR LIST CORRU'
	DB	'PTED!', 00H					; `string'
CONST	ENDS
;	COMDAT ??_C@_1CG@JNLFBNGN@?$AA?$CC?$AAi?$AAn?$AAv?$AAa?$AAl?$AAi?$AAd?$AA?5?$AAa?$AAr?$AAg?$AAu?$AAm?$AAe@
CONST	SEGMENT
??_C@_1CG@JNLFBNGN@?$AA?$CC?$AAi?$AAn?$AAv?$AAa?$AAl?$AAi?$AAd?$AA?5?$AAa?$AAr?$AAg?$AAu?$AAm?$AAe@ DB '"'
	DB	00H, 'i', 00H, 'n', 00H, 'v', 00H, 'a', 00H, 'l', 00H, 'i', 00H
	DB	'd', 00H, ' ', 00H, 'a', 00H, 'r', 00H, 'g', 00H, 'u', 00H, 'm'
	DB	00H, 'e', 00H, 'n', 00H, 't', 00H, '"', 00H, 00H, 00H ; `string'
CONST	ENDS
;	COMDAT ??_C@_1EK@NIFDJFDG@?$AAs?$AAt?$AAd?$AA?3?$AA?3?$AA_?$AAA?$AAd?$AAj?$AAu?$AAs?$AAt?$AA_?$AAm?$AAa@
CONST	SEGMENT
??_C@_1EK@NIFDJFDG@?$AAs?$AAt?$AAd?$AA?3?$AA?3?$AA_?$AAA?$AAd?$AAj?$AAu?$AAs?$AAt?$AA_?$AAm?$AAa@ DB 's'
	DB	00H, 't', 00H, 'd', 00H, ':', 00H, ':', 00H, '_', 00H, 'A', 00H
	DB	'd', 00H, 'j', 00H, 'u', 00H, 's', 00H, 't', 00H, '_', 00H, 'm'
	DB	00H, 'a', 00H, 'n', 00H, 'u', 00H, 'a', 00H, 'l', 00H, 'l', 00H
	DB	'y', 00H, '_', 00H, 'v', 00H, 'e', 00H, 'c', 00H, 't', 00H, 'o'
	DB	00H, 'r', 00H, '_', 00H, 'a', 00H, 'l', 00H, 'i', 00H, 'g', 00H
	DB	'n', 00H, 'e', 00H, 'd', 00H, 00H, 00H	; `string'
CONST	ENDS
;	COMDAT ??_C@_1NC@MGDJFDEK@?$AAC?$AA?3?$AA?2?$AAP?$AAr?$AAo?$AAg?$AAr?$AAa?$AAm?$AA?5?$AAF?$AAi?$AAl?$AAe@
CONST	SEGMENT
??_C@_1NC@MGDJFDEK@?$AAC?$AA?3?$AA?2?$AAP?$AAr?$AAo?$AAg?$AAr?$AAa?$AAm?$AA?5?$AAF?$AAi?$AAl?$AAe@ DB 'C'
	DB	00H, ':', 00H, '\', 00H, 'P', 00H, 'r', 00H, 'o', 00H, 'g', 00H
	DB	'r', 00H, 'a', 00H, 'm', 00H, ' ', 00H, 'F', 00H, 'i', 00H, 'l'
	DB	00H, 'e', 00H, 's', 00H, ' ', 00H, '(', 00H, 'x', 00H, '8', 00H
	DB	'6', 00H, ')', 00H, '\', 00H, 'M', 00H, 'i', 00H, 'c', 00H, 'r'
	DB	00H, 'o', 00H, 's', 00H, 'o', 00H, 'f', 00H, 't', 00H, ' ', 00H
	DB	'V', 00H, 'i', 00H, 's', 00H, 'u', 00H, 'a', 00H, 'l', 00H, ' '
	DB	00H, 'S', 00H, 't', 00H, 'u', 00H, 'd', 00H, 'i', 00H, 'o', 00H
	DB	'\', 00H, '2', 00H, '0', 00H, '1', 00H, '9', 00H, '\', 00H, 'E'
	DB	00H, 'n', 00H, 't', 00H, 'e', 00H, 'r', 00H, 'p', 00H, 'r', 00H
	DB	'i', 00H, 's', 00H, 'e', 00H, '\', 00H, 'V', 00H, 'C', 00H, '\'
	DB	00H, 'T', 00H, 'o', 00H, 'o', 00H, 'l', 00H, 's', 00H, '\', 00H
	DB	'M', 00H, 'S', 00H, 'V', 00H, 'C', 00H, '\', 00H, '1', 00H, '4'
	DB	00H, '.', 00H, '2', 00H, '3', 00H, '.', 00H, '2', 00H, '8', 00H
	DB	'1', 00H, '0', 00H, '5', 00H, '\', 00H, 'i', 00H, 'n', 00H, 'c'
	DB	00H, 'l', 00H, 'u', 00H, 'd', 00H, 'e', 00H, '\', 00H, 'x', 00H
	DB	'm', 00H, 'e', 00H, 'm', 00H, 'o', 00H, 'r', 00H, 'y', 00H, 00H
	DB	00H						; `string'
CONST	ENDS
;	COMDAT ??_C@_0GJ@ICFCEKIN@C?3?2Program?5Files?5?$CIx86?$CJ?2Microsof@
CONST	SEGMENT
??_C@_0GJ@ICFCEKIN@C?3?2Program?5Files?5?$CIx86?$CJ?2Microsof@ DB 'C:\Pro'
	DB	'gram Files (x86)\Microsoft Visual Studio\2019\Enterprise\VC\T'
	DB	'ools\MSVC\14.23.28105\include\xmemory', 00H	; `string'
CONST	ENDS
;	COMDAT ??_C@_02DKCKIIND@?$CFs@
CONST	SEGMENT
??_C@_02DKCKIIND@?$CFs@ DB '%s', 00H			; `string'
CONST	ENDS
;	COMDAT ??_C@_0BB@FCMFBGOM@invalid?5argument@
CONST	SEGMENT
??_C@_0BB@FCMFBGOM@invalid?5argument@ DB 'invalid argument', 00H ; `string'
CONST	ENDS
;	COMDAT ?__LINE__Var@?0??_Adjust_manually_vector_aligned@std@@YAXAEAPEAXAEA_K@Z@4JA
_DATA	SEGMENT
?__LINE__Var@?0??_Adjust_manually_vector_aligned@std@@YAXAEAPEAXAEA_K@Z@4JA DD 066H ; `std::_Adjust_manually_vector_aligned'::`1'::__LINE__Var
_DATA	ENDS
;	COMDAT _CT??_R0?AVexception@std@@@8??0exception@std@@QEAA@AEBV01@@Z24
xdata$x	SEGMENT
_CT??_R0?AVexception@std@@@8??0exception@std@@QEAA@AEBV01@@Z24 DD 00H
	DD	imagerel ??_R0?AVexception@std@@@8
	DD	00H
	DD	0ffffffffH
	ORG $+4
	DD	018H
	DD	imagerel ??0exception@std@@QEAA@AEBV01@@Z
xdata$x	ENDS
;	COMDAT ??_R0?AVexception@std@@@8
data$r	SEGMENT
??_R0?AVexception@std@@@8 DQ FLAT:??_7type_info@@6B@	; std::exception `RTTI Type Descriptor'
	DQ	0000000000000000H
	DB	'.?AVexception@std@@', 00H
data$r	ENDS
;	COMDAT _CT??_R0?AVbad_alloc@std@@@8??0bad_alloc@std@@QEAA@AEBV01@@Z24
xdata$x	SEGMENT
_CT??_R0?AVbad_alloc@std@@@8??0bad_alloc@std@@QEAA@AEBV01@@Z24 DD 010H
	DD	imagerel ??_R0?AVbad_alloc@std@@@8
	DD	00H
	DD	0ffffffffH
	ORG $+4
	DD	018H
	DD	imagerel ??0bad_alloc@std@@QEAA@AEBV01@@Z
xdata$x	ENDS
;	COMDAT ??_R0?AVbad_alloc@std@@@8
data$r	SEGMENT
??_R0?AVbad_alloc@std@@@8 DQ FLAT:??_7type_info@@6B@	; std::bad_alloc `RTTI Type Descriptor'
	DQ	0000000000000000H
	DB	'.?AVbad_alloc@std@@', 00H
data$r	ENDS
;	COMDAT _CT??_R0?AVbad_array_new_length@std@@@8??0bad_array_new_length@std@@QEAA@AEBV01@@Z24
xdata$x	SEGMENT
_CT??_R0?AVbad_array_new_length@std@@@8??0bad_array_new_length@std@@QEAA@AEBV01@@Z24 DD 00H
	DD	imagerel ??_R0?AVbad_array_new_length@std@@@8
	DD	00H
	DD	0ffffffffH
	ORG $+4
	DD	018H
	DD	imagerel ??0bad_array_new_length@std@@QEAA@AEBV01@@Z
xdata$x	ENDS
;	COMDAT ??_R0?AVbad_array_new_length@std@@@8
data$r	SEGMENT
??_R0?AVbad_array_new_length@std@@@8 DQ FLAT:??_7type_info@@6B@ ; std::bad_array_new_length `RTTI Type Descriptor'
	DQ	0000000000000000H
	DB	'.?AVbad_array_new_length@std@@', 00H
data$r	ENDS
;	COMDAT _CTA3?AVbad_array_new_length@std@@
xdata$x	SEGMENT
_CTA3?AVbad_array_new_length@std@@ DD 03H
	DD	imagerel _CT??_R0?AVbad_array_new_length@std@@@8??0bad_array_new_length@std@@QEAA@AEBV01@@Z24
	DD	imagerel _CT??_R0?AVbad_alloc@std@@@8??0bad_alloc@std@@QEAA@AEBV01@@Z24
	DD	imagerel _CT??_R0?AVexception@std@@@8??0exception@std@@QEAA@AEBV01@@Z24
xdata$x	ENDS
;	COMDAT _TI3?AVbad_array_new_length@std@@
xdata$x	SEGMENT
_TI3?AVbad_array_new_length@std@@ DD 00H
	DD	imagerel ??1bad_array_new_length@std@@UEAA@XZ
	DD	00H
	DD	imagerel _CTA3?AVbad_array_new_length@std@@
xdata$x	ENDS
;	COMDAT ??_C@_0BF@KINCDENJ@bad?5array?5new?5length@
CONST	SEGMENT
??_C@_0BF@KINCDENJ@bad?5array?5new?5length@ DB 'bad array new length', 00H ; `string'
CONST	ENDS
;	COMDAT ??_7bad_array_new_length@std@@6B@
CONST	SEGMENT
??_7bad_array_new_length@std@@6B@ DQ FLAT:??_R4bad_array_new_length@std@@6B@ ; std::bad_array_new_length::`vftable'
	DQ	FLAT:??_Ebad_array_new_length@std@@UEAAPEAXI@Z
	DQ	FLAT:?what@exception@std@@UEBAPEBDXZ
CONST	ENDS
;	COMDAT ??_7bad_alloc@std@@6B@
CONST	SEGMENT
??_7bad_alloc@std@@6B@ DQ FLAT:??_R4bad_alloc@std@@6B@	; std::bad_alloc::`vftable'
	DQ	FLAT:??_Ebad_alloc@std@@UEAAPEAXI@Z
	DQ	FLAT:?what@exception@std@@UEBAPEBDXZ
CONST	ENDS
;	COMDAT ??_C@_0BC@EOODALEL@Unknown?5exception@
CONST	SEGMENT
??_C@_0BC@EOODALEL@Unknown?5exception@ DB 'Unknown exception', 00H ; `string'
CONST	ENDS
;	COMDAT ??_7exception@std@@6B@
CONST	SEGMENT
??_7exception@std@@6B@ DQ FLAT:??_R4exception@std@@6B@	; std::exception::`vftable'
	DQ	FLAT:??_Eexception@std@@UEAAPEAXI@Z
	DQ	FLAT:?what@exception@std@@UEBAPEBDXZ
CONST	ENDS
;	COMDAT xdata
xdata	SEGMENT
$unwind$??$?0H@?$_Tuple_val@$$QEAH@std@@QEAA@$$QEAH@Z DD 025052f01H
	DD	01132318H
	DD	0700c001dH
	DD	0500bH
xdata	ENDS
;	COMDAT xdata
xdata	SEGMENT
$unwind$??$?0U_Exact_args_t@std@@H$$V$0A@@?$tuple@$$QEAH@std@@QEAA@U_Exact_args_t@1@$$QEAH@Z DD 025053301H
	DD	0117231cH
	DD	070100021H
	DD	0500fH
xdata	ENDS
;	COMDAT xdata
xdata	SEGMENT
$unwind$??$?0U_Exact_args_t@std@@HH$0A@@?$tuple@$$QEAH$$QEAH@std@@QEAA@U_Exact_args_t@1@$$QEAH1@Z DD 025053801H
	DD	011c2321H
	DD	070150025H
	DD	05014H
xdata	ENDS
;	COMDAT xdata
xdata	SEGMENT
$ip2state$??$?0HH$0A@@?$tuple@$$QEAH$$QEAH@std@@QEAA@$$QEAH0@Z DB 02H
	DB	00H
	DB	00H
xdata	ENDS
;	COMDAT xdata
xdata	SEGMENT
$cppxdata$??$?0HH$0A@@?$tuple@$$QEAH$$QEAH@std@@QEAA@$$QEAH0@Z DB 060H
	DD	imagerel $ip2state$??$?0HH$0A@@?$tuple@$$QEAH$$QEAH@std@@QEAA@$$QEAH0@Z
xdata	ENDS
;	COMDAT xdata
xdata	SEGMENT
$unwind$??$?0HH$0A@@?$tuple@$$QEAH$$QEAH@std@@QEAA@$$QEAH0@Z DD 025053419H
	DD	0118231dH
	DD	07011002bH
	DD	05010H
	DD	imagerel __CxxFrameHandler4
	DD	imagerel $cppxdata$??$?0HH$0A@@?$tuple@$$QEAH$$QEAH@std@@QEAA@$$QEAH0@Z
xdata	ENDS
;	COMDAT xdata
xdata	SEGMENT
$ip2state$??$move@AEAV?$function@$$A6AXHH@Z@std@@@std@@YA$$QEAV?$function@$$A6AXHH@Z@0@AEAV10@@Z DB 02H
	DB	00H
	DB	00H
xdata	ENDS
;	COMDAT xdata
xdata	SEGMENT
$cppxdata$??$move@AEAV?$function@$$A6AXHH@Z@std@@@std@@YA$$QEAV?$function@$$A6AXHH@Z@0@AEAV10@@Z DB 060H
	DD	imagerel $ip2state$??$move@AEAV?$function@$$A6AXHH@Z@std@@@std@@YA$$QEAV?$function@$$A6AXHH@Z@0@AEAV10@@Z
xdata	ENDS
;	COMDAT xdata
xdata	SEGMENT
$unwind$??$move@AEAV?$function@$$A6AXHH@Z@std@@@std@@YA$$QEAV?$function@$$A6AXHH@Z@0@AEAV10@@Z DD 025052a19H
	DD	010e2313H
	DD	07007001dH
	DD	05006H
	DD	imagerel __CxxFrameHandler4
	DD	imagerel $cppxdata$??$move@AEAV?$function@$$A6AXHH@Z@std@@@std@@YA$$QEAV?$function@$$A6AXHH@Z@0@AEAV10@@Z
xdata	ENDS
;	COMDAT xdata
xdata	SEGMENT
$unwind$??$?0AEBU?$_Ph@$01@std@@@?$_Tuple_val@U?$_Ph@$01@std@@@std@@QEAA@AEBU?$_Ph@$01@1@@Z DD 025052f01H
	DD	01132318H
	DD	0700c001dH
	DD	0500bH
xdata	ENDS
;	COMDAT xdata
xdata	SEGMENT
$ip2state$??$?0U_Exact_args_t@std@@$0A@@?$tuple@$$V@std@@QEAA@U_Exact_args_t@1@@Z DB 02H
	DB	00H
	DB	00H
xdata	ENDS
;	COMDAT xdata
xdata	SEGMENT
$cppxdata$??$?0U_Exact_args_t@std@@$0A@@?$tuple@$$V@std@@QEAA@U_Exact_args_t@1@@Z DB 060H
	DD	imagerel $ip2state$??$?0U_Exact_args_t@std@@$0A@@?$tuple@$$V@std@@QEAA@U_Exact_args_t@1@@Z
xdata	ENDS
;	COMDAT xdata
xdata	SEGMENT
$unwind$??$?0U_Exact_args_t@std@@$0A@@?$tuple@$$V@std@@QEAA@U_Exact_args_t@1@@Z DD 025052e19H
	DD	01122317H
	DD	0700b001dH
	DD	0500aH
	DD	imagerel __CxxFrameHandler4
	DD	imagerel $cppxdata$??$?0U_Exact_args_t@std@@$0A@@?$tuple@$$V@std@@QEAA@U_Exact_args_t@1@@Z
xdata	ENDS
;	COMDAT xdata
xdata	SEGMENT
$unwind$??$?0AEBU?$_Ph@$00@std@@@?$_Tuple_val@U?$_Ph@$00@std@@@std@@QEAA@AEBU?$_Ph@$00@1@@Z DD 025052f01H
	DD	01132318H
	DD	0700c001dH
	DD	0500bH
xdata	ENDS
;	COMDAT xdata
xdata	SEGMENT
$unwind$??$?0U_Exact_args_t@std@@AEBU?$_Ph@$01@1@$$V$0A@@?$tuple@U?$_Ph@$01@std@@@std@@QEAA@U_Exact_args_t@1@AEBU?$_Ph@$01@1@@Z DD 025053301H
	DD	0117231cH
	DD	070100021H
	DD	0500fH
xdata	ENDS
;	COMDAT xdata
xdata	SEGMENT
$ip2state$??$?0AEAHV?$function@$$A6AXHH@Z@std@@$0A@@?$pair@$$CBHV?$function@$$A6AXHH@Z@std@@@std@@QEAA@AEAH$$QEAV?$function@$$A6AXHH@Z@1@@Z DB 02H
	DB	00H
	DB	00H
xdata	ENDS
;	COMDAT xdata
xdata	SEGMENT
$cppxdata$??$?0AEAHV?$function@$$A6AXHH@Z@std@@$0A@@?$pair@$$CBHV?$function@$$A6AXHH@Z@std@@@std@@QEAA@AEAH$$QEAV?$function@$$A6AXHH@Z@1@@Z DB 060H
	DD	imagerel $ip2state$??$?0AEAHV?$function@$$A6AXHH@Z@std@@$0A@@?$pair@$$CBHV?$function@$$A6AXHH@Z@std@@@std@@QEAA@AEAH$$QEAV?$function@$$A6AXHH@Z@1@@Z
xdata	ENDS
;	COMDAT xdata
xdata	SEGMENT
$unwind$??$?0AEAHV?$function@$$A6AXHH@Z@std@@$0A@@?$pair@$$CBHV?$function@$$A6AXHH@Z@std@@@std@@QEAA@AEAH$$QEAV?$function@$$A6AXHH@Z@1@@Z DD 025053419H
	DD	0118231dH
	DD	07011001fH
	DD	05010H
	DD	imagerel __CxxFrameHandler4
	DD	imagerel $cppxdata$??$?0AEAHV?$function@$$A6AXHH@Z@std@@$0A@@?$pair@$$CBHV?$function@$$A6AXHH@Z@std@@@std@@QEAA@AEAH$$QEAV?$function@$$A6AXHH@Z@1@@Z
xdata	ENDS
;	COMDAT xdata
xdata	SEGMENT
$unwind$??$?0AEAHAEBV?$function@$$A6AXHH@Z@std@@$0A@@?$pair@$$CBHV?$function@$$A6AXHH@Z@std@@@std@@QEAA@AEAHAEBV?$function@$$A6AXHH@Z@1@@Z DD 025053401H
	DD	0118231dH
	DD	07011001fH
	DD	05010H
xdata	ENDS
;	COMDAT xdata
xdata	SEGMENT
$ip2state$??$addressof@$$CBV?$_Tree_val@U?$_Tree_simple_types@U?$pair@$$CBHV?$function@$$A6AXHH@Z@std@@@std@@@std@@@std@@@std@@YAPEBV?$_Tree_val@U?$_Tree_simple_types@U?$pair@$$CBHV?$function@$$A6AXHH@Z@std@@@std@@@std@@@0@AEBV10@@Z DB 02H
	DB	00H
	DB	00H
xdata	ENDS
;	COMDAT xdata
xdata	SEGMENT
$cppxdata$??$addressof@$$CBV?$_Tree_val@U?$_Tree_simple_types@U?$pair@$$CBHV?$function@$$A6AXHH@Z@std@@@std@@@std@@@std@@@std@@YAPEBV?$_Tree_val@U?$_Tree_simple_types@U?$pair@$$CBHV?$function@$$A6AXHH@Z@std@@@std@@@std@@@0@AEBV10@@Z DB 060H
	DD	imagerel $ip2state$??$addressof@$$CBV?$_Tree_val@U?$_Tree_simple_types@U?$pair@$$CBHV?$function@$$A6AXHH@Z@std@@@std@@@std@@@std@@@std@@YAPEBV?$_Tree_val@U?$_Tree_simple_types@U?$pair@$$CBHV?$function@$$A6AXHH@Z@std@@@std@@@std@@@0@AEBV10@@Z
xdata	ENDS
;	COMDAT xdata
xdata	SEGMENT
$unwind$??$addressof@$$CBV?$_Tree_val@U?$_Tree_simple_types@U?$pair@$$CBHV?$function@$$A6AXHH@Z@std@@@std@@@std@@@std@@@std@@YAPEBV?$_Tree_val@U?$_Tree_simple_types@U?$pair@$$CBHV?$function@$$A6AXHH@Z@std@@@std@@@std@@@0@AEBV10@@Z DD 025052a19H
	DD	010e2313H
	DD	07007001dH
	DD	05006H
	DD	imagerel __CxxFrameHandler4
	DD	imagerel $cppxdata$??$addressof@$$CBV?$_Tree_val@U?$_Tree_simple_types@U?$pair@$$CBHV?$function@$$A6AXHH@Z@std@@@std@@@std@@@std@@@std@@YAPEBV?$_Tree_val@U?$_Tree_simple_types@U?$pair@$$CBHV?$function@$$A6AXHH@Z@std@@@std@@@std@@@0@AEBV10@@Z
xdata	ENDS
;	COMDAT xdata
xdata	SEGMENT
$unwind$??$?0PEAUstA@?A0x4e02d121@@@?$_Tuple_val@PEAUstA@?A0x4e02d121@@@std@@QEAA@$$QEAPEAUstA@?A0x4e02d121@@@Z DD 025052f01H
	DD	01132318H
	DD	0700c001dH
	DD	0500bH
xdata	ENDS
;	COMDAT xdata
xdata	SEGMENT
$unwind$??$?0U_Exact_args_t@std@@AEBU?$_Ph@$00@1@AEBU?$_Ph@$01@1@$0A@@?$tuple@U?$_Ph@$00@std@@U?$_Ph@$01@2@@std@@QEAA@U_Exact_args_t@1@AEBU?$_Ph@$00@1@AEBU?$_Ph@$01@1@@Z DD 025053801H
	DD	011c2321H
	DD	070150025H
	DD	05014H
xdata	ENDS
;	COMDAT xdata
xdata	SEGMENT
$unwind$??$construct@U?$pair@$$CBHV?$function@$$A6AXHH@Z@std@@@std@@AEAHV?$function@$$A6AXHH@Z@2@@?$_Default_allocator_traits@V?$allocator@U?$_Tree_node@U?$pair@$$CBHV?$function@$$A6AXHH@Z@std@@@std@@PEAX@std@@@std@@@std@@SAXAEAV?$allocator@U?$_Tree_node@U?$pair@$$CBHV?$function@$$A6AXHH@Z@std@@@std@@PEAX@std@@@1@QEAU?$pair@$$CBHV?$function@$$A6AXHH@Z@std@@@1@AEAH$$QEAV?$function@$$A6AXHH@Z@1@@Z DD 025053901H
	DD	011d2322H
	DD	070160023H
	DD	05015H
xdata	ENDS
;	COMDAT xdata
xdata	SEGMENT
$ip2state$??$forward@PEAU?$_Tree_node@U?$pair@$$CBHV?$function@$$A6AXHH@Z@std@@@std@@PEAX@std@@@std@@YA$$QEAPEAU?$_Tree_node@U?$pair@$$CBHV?$function@$$A6AXHH@Z@std@@@std@@PEAX@0@AEAPEAU10@@Z DB 02H
	DB	00H
	DB	00H
xdata	ENDS
;	COMDAT xdata
xdata	SEGMENT
$cppxdata$??$forward@PEAU?$_Tree_node@U?$pair@$$CBHV?$function@$$A6AXHH@Z@std@@@std@@PEAX@std@@@std@@YA$$QEAPEAU?$_Tree_node@U?$pair@$$CBHV?$function@$$A6AXHH@Z@std@@@std@@PEAX@0@AEAPEAU10@@Z DB 060H
	DD	imagerel $ip2state$??$forward@PEAU?$_Tree_node@U?$pair@$$CBHV?$function@$$A6AXHH@Z@std@@@std@@PEAX@std@@@std@@YA$$QEAPEAU?$_Tree_node@U?$pair@$$CBHV?$function@$$A6AXHH@Z@std@@@std@@PEAX@0@AEAPEAU10@@Z
xdata	ENDS
;	COMDAT xdata
xdata	SEGMENT
$unwind$??$forward@PEAU?$_Tree_node@U?$pair@$$CBHV?$function@$$A6AXHH@Z@std@@@std@@PEAX@std@@@std@@YA$$QEAPEAU?$_Tree_node@U?$pair@$$CBHV?$function@$$A6AXHH@Z@std@@@std@@PEAX@0@AEAPEAU10@@Z DD 025052a19H
	DD	010e2313H
	DD	07007001dH
	DD	05006H
	DD	imagerel __CxxFrameHandler4
	DD	imagerel $cppxdata$??$forward@PEAU?$_Tree_node@U?$pair@$$CBHV?$function@$$A6AXHH@Z@std@@@std@@PEAX@std@@@std@@YA$$QEAPEAU?$_Tree_node@U?$pair@$$CBHV?$function@$$A6AXHH@Z@std@@@std@@PEAX@0@AEAPEAU10@@Z
xdata	ENDS
;	COMDAT xdata
xdata	SEGMENT
$ip2state$??$forward@_N@std@@YA$$QEA_NAEA_N@Z DB 02H
	DB	00H
	DB	00H
xdata	ENDS
;	COMDAT xdata
xdata	SEGMENT
$cppxdata$??$forward@_N@std@@YA$$QEA_NAEA_N@Z DB 060H
	DD	imagerel $ip2state$??$forward@_N@std@@YA$$QEA_NAEA_N@Z
xdata	ENDS
;	COMDAT xdata
xdata	SEGMENT
$unwind$??$forward@_N@std@@YA$$QEA_NAEA_N@Z DD 025052a19H
	DD	010e2313H
	DD	07007001dH
	DD	05006H
	DD	imagerel __CxxFrameHandler4
	DD	imagerel $cppxdata$??$forward@_N@std@@YA$$QEA_NAEA_N@Z
xdata	ENDS
;	COMDAT xdata
xdata	SEGMENT
$ip2state$??$forward@AEAPEAU?$_Tree_node@U?$pair@$$CBHV?$function@$$A6AXHH@Z@std@@@std@@PEAX@std@@@std@@YAAEAPEAU?$_Tree_node@U?$pair@$$CBHV?$function@$$A6AXHH@Z@std@@@std@@PEAX@0@AEAPEAU10@@Z DB 02H
	DB	00H
	DB	00H
xdata	ENDS
;	COMDAT xdata
xdata	SEGMENT
$cppxdata$??$forward@AEAPEAU?$_Tree_node@U?$pair@$$CBHV?$function@$$A6AXHH@Z@std@@@std@@PEAX@std@@@std@@YAAEAPEAU?$_Tree_node@U?$pair@$$CBHV?$function@$$A6AXHH@Z@std@@@std@@PEAX@0@AEAPEAU10@@Z DB 060H
	DD	imagerel $ip2state$??$forward@AEAPEAU?$_Tree_node@U?$pair@$$CBHV?$function@$$A6AXHH@Z@std@@@std@@PEAX@std@@@std@@YAAEAPEAU?$_Tree_node@U?$pair@$$CBHV?$function@$$A6AXHH@Z@std@@@std@@PEAX@0@AEAPEAU10@@Z
xdata	ENDS
;	COMDAT xdata
xdata	SEGMENT
$unwind$??$forward@AEAPEAU?$_Tree_node@U?$pair@$$CBHV?$function@$$A6AXHH@Z@std@@@std@@PEAX@std@@@std@@YAAEAPEAU?$_Tree_node@U?$pair@$$CBHV?$function@$$A6AXHH@Z@std@@@std@@PEAX@0@AEAPEAU10@@Z DD 025052a19H
	DD	010e2313H
	DD	07007001dH
	DD	05006H
	DD	imagerel __CxxFrameHandler4
	DD	imagerel $cppxdata$??$forward@AEAPEAU?$_Tree_node@U?$pair@$$CBHV?$function@$$A6AXHH@Z@std@@@std@@PEAX@std@@@std@@YAAEAPEAU?$_Tree_node@U?$pair@$$CBHV?$function@$$A6AXHH@Z@std@@@std@@PEAX@0@AEAPEAU10@@Z
xdata	ENDS
;	COMDAT xdata
xdata	SEGMENT
$ip2state$??$_Construct_in_place@PEAU?$_Tree_node@U?$pair@$$CBHV?$function@$$A6AXHH@Z@std@@@std@@PEAX@std@@AEAPEAU12@@std@@YAXAEAPEAU?$_Tree_node@U?$pair@$$CBHV?$function@$$A6AXHH@Z@std@@@std@@PEAX@0@0@Z DB 02H
	DB	00H
	DB	00H
xdata	ENDS
;	COMDAT xdata
xdata	SEGMENT
$cppxdata$??$_Construct_in_place@PEAU?$_Tree_node@U?$pair@$$CBHV?$function@$$A6AXHH@Z@std@@@std@@PEAX@std@@AEAPEAU12@@std@@YAXAEAPEAU?$_Tree_node@U?$pair@$$CBHV?$function@$$A6AXHH@Z@std@@@std@@PEAX@0@0@Z DB 060H
	DD	imagerel $ip2state$??$_Construct_in_place@PEAU?$_Tree_node@U?$pair@$$CBHV?$function@$$A6AXHH@Z@std@@@std@@PEAX@std@@AEAPEAU12@@std@@YAXAEAPEAU?$_Tree_node@U?$pair@$$CBHV?$function@$$A6AXHH@Z@std@@@std@@PEAX@0@0@Z
xdata	ENDS
;	COMDAT xdata
xdata	SEGMENT
$unwind$??$_Construct_in_place@PEAU?$_Tree_node@U?$pair@$$CBHV?$function@$$A6AXHH@Z@std@@@std@@PEAX@std@@AEAPEAU12@@std@@YAXAEAPEAU?$_Tree_node@U?$pair@$$CBHV?$function@$$A6AXHH@Z@std@@@std@@PEAX@0@0@Z DD 025052f19H
	DD	01132318H
	DD	0700c0021H
	DD	0500bH
	DD	imagerel __CxxFrameHandler4
