; Listing generated by Microsoft (R) Optimizing Compiler Version 19.23.28105.4 

include listing.inc

INCLUDELIB MSVCRTD
INCLUDELIB OLDNAMES

msvcjmc	SEGMENT
__7F8AB566_vcruntime_new@h DB 01H
__09340588_corecrt_math@h DB 01H
__24E9E95F_stdlib@h DB 01H
__2FC657CE_cstdlib DB 01H
__F66CEB67_corecrt_stdio_config@h DB 01H
__101834BA_corecrt_wstdio@h DB 01H
__AD6A91B7_stdio@h DB 01H
__367CC694_corecrt_memcpy_s@h DB 01H
__5467428D_corecrt_wconio@h DB 01H
__4442441F_corecrt_wio@h DB 01H
__DC9673E3_corecrt_wstring@h DB 01H
__45F4AF76_corecrt_wtime@h DB 01H
__186FF47F_stat@h DB 01H
__534C724A_wchar@h DB 01H
__8A0D8D63_cstddef DB 01H
__289D9ECD_limits DB 01H
__C8593937_type_traits DB 01H
__B0C4CEA9_malloc@h DB 01H
__96AB3BB0_vcruntime_exception@h DB 01H
__A47A247F_exception DB 01H
__35D7DDB3_corecrt_memory@h DB 01H
__A29A7DFB_string@h DB 01H
__F3238959_xutility DB 01H
__725EB186_xmemory DB 01H
__D64083BB_tuple DB 01H
__2DF72A1A_xpolymorphic_allocator@h DB 01H
__70639AFA_cmath DB 01H
__068D371A_xstring DB 01H
__2D341E22_stdexcept DB 01H
__502C2D49_xcall_once@h DB 01H
__EF713F69_system_error DB 01H
__B69C91F9_vcruntime_typeinfo@h DB 01H
__83FC7A40_typeinfo DB 01H
__94339243_memory DB 01H
__B876C54C_xfacet DB 01H
__7242C389_ctype@h DB 01H
__9C759988_xlocinfo DB 01H
__D9B3432B_xlocale DB 01H
__A590EE9B_xiosbase DB 01H
__4734253C_xlocnum DB 01H
__1421D064_ios DB 01H
__2EF0BD34_list DB 01H
__0028351B_Objector@h DB 01H
__8CEAE8BA_Objector@cpp DB 01H
__A973ACD5_istream DB 01H
__CAA399EF_ostream DB 01H
__2F94A69E_streambuf DB 01H
__18CBD245_utility DB 01H
__E4744B4B_iosfwd DB 01H
__EFD44557_xstddef DB 01H
__AE76A8A9_xatomic@h DB 01H
msvcjmc	ENDS
PUBLIC	?__empty_global_delete@@YAXPEAX@Z		; __empty_global_delete
PUBLIC	?__empty_global_delete@@YAXPEAX_K@Z		; __empty_global_delete
PUBLIC	?__empty_global_delete@@YAXPEAXW4align_val_t@std@@@Z ; __empty_global_delete
PUBLIC	?__empty_global_delete@@YAXPEAX_KW4align_val_t@std@@@Z ; __empty_global_delete
PUBLIC	??2@YAPEAX_KPEAX@Z				; operator new
PUBLIC	?max@?$numeric_limits@_J@std@@SA_JXZ		; std::numeric_limits<__int64>::max
PUBLIC	??0exception@std@@QEAA@QEBDH@Z			; std::exception::exception
PUBLIC	??0exception@std@@QEAA@AEBV01@@Z		; std::exception::exception
PUBLIC	??1exception@std@@UEAA@XZ			; std::exception::~exception
PUBLIC	?what@exception@std@@UEBAPEBDXZ			; std::exception::what
PUBLIC	??_Gexception@std@@UEAAPEAXI@Z			; std::exception::`scalar deleting destructor'
PUBLIC	??0bad_alloc@std@@AEAA@QEBD@Z			; std::bad_alloc::bad_alloc
PUBLIC	??1bad_alloc@std@@UEAA@XZ			; std::bad_alloc::~bad_alloc
PUBLIC	??0bad_alloc@std@@QEAA@AEBV01@@Z		; std::bad_alloc::bad_alloc
PUBLIC	??_Gbad_alloc@std@@UEAAPEAXI@Z			; std::bad_alloc::`scalar deleting destructor'
PUBLIC	??0bad_array_new_length@std@@QEAA@XZ		; std::bad_array_new_length::bad_array_new_length
PUBLIC	??1bad_array_new_length@std@@UEAA@XZ		; std::bad_array_new_length::~bad_array_new_length
PUBLIC	??0bad_array_new_length@std@@QEAA@AEBV01@@Z	; std::bad_array_new_length::bad_array_new_length
PUBLIC	??_Gbad_array_new_length@std@@UEAAPEAXI@Z	; std::bad_array_new_length::`scalar deleting destructor'
PUBLIC	?_Throw_bad_array_new_length@std@@YAXXZ		; std::_Throw_bad_array_new_length
PUBLIC	?_Allocate@_Default_allocate_traits@std@@SAPEAX_K@Z ; std::_Default_allocate_traits::_Allocate
PUBLIC	?_Adjust_manually_vector_aligned@std@@YAXAEAPEAXAEA_K@Z ; std::_Adjust_manually_vector_aligned
PUBLIC	?_Adopt@_Iterator_base0@std@@QEAAXPEBX@Z	; std::_Iterator_base0::_Adopt
PUBLIC	??0_Container_proxy@std@@QEAA@PEAU_Container_base12@1@@Z ; std::_Container_proxy::_Container_proxy
PUBLIC	??0_Container_base12@std@@QEAA@XZ		; std::_Container_base12::_Container_base12
PUBLIC	?_Orphan_all@_Container_base12@std@@QEAAXXZ	; std::_Container_base12::_Orphan_all
PUBLIC	??$_Construct_in_place@U_Container_proxy@std@@PEAU_Container_base12@2@@std@@YAXAEAU_Container_proxy@0@$$QEAPEAU_Container_base12@0@@Z ; std::_Construct_in_place<std::_Container_proxy,std::_Container_base12 *>
PUBLIC	?_Release@_Basic_container_proxy_ptr12@std@@QEAAXXZ ; std::_Basic_container_proxy_ptr12::_Release
PUBLIC	??$addressof@U_Container_base12@std@@@std@@YAPEAU_Container_base12@0@AEAU10@@Z ; std::addressof<std::_Container_base12>
PUBLIC	?length@?$_Narrow_char_traits@DH@std@@SA_KQEBD@Z ; std::_Narrow_char_traits<char,int>::length
PUBLIC	?eq_int_type@?$_Narrow_char_traits@DH@std@@SA_NAEBH0@Z ; std::_Narrow_char_traits<char,int>::eq_int_type
PUBLIC	?eof@?$_Narrow_char_traits@DH@std@@SAHXZ	; std::_Narrow_char_traits<char,int>::eof
PUBLIC	??$_Min_value@_K@std@@YAAEB_KAEB_K0@Z		; std::_Min_value<unsigned __int64>
PUBLIC	?objector_run@@YAXXZ				; objector_run
PUBLIC	??1Objector@@UEAA@XZ				; Objector::~Objector
PUBLIC	?Update@Objector@@UEAAXQEAVSubject@@@Z		; Objector::Update
PUBLIC	??0Objector@@QEAA@XZ				; Objector::Objector
PUBLIC	??_GObjector@@UEAAPEAXI@Z			; Objector::`scalar deleting destructor'
PUBLIC	??0Subject@@QEAA@XZ				; Subject::Subject
PUBLIC	??1Subject@@UEAA@XZ				; Subject::~Subject
PUBLIC	?Attach@Subject@@UEAAXPEAVObjector@@@Z		; Subject::Attach
PUBLIC	?Detach@Subject@@UEAAXPEAVObjector@@@Z		; Subject::Detach
PUBLIC	?Notify@Subject@@UEAAXXZ			; Subject::Notify
PUBLIC	??0?$allocator@U?$_List_node@PEAVObjector@@PEAX@std@@@std@@QEAA@XZ ; std::allocator<std::_List_node<Objector *,void *> >::allocator<std::_List_node<Objector *,void *> >
PUBLIC	?deallocate@?$allocator@U?$_List_node@PEAVObjector@@PEAX@std@@@std@@QEAAXQEAU?$_List_node@PEAVObjector@@PEAX@2@_K@Z ; std::allocator<std::_List_node<Objector *,void *> >::deallocate
PUBLIC	?allocate@?$allocator@U?$_List_node@PEAVObjector@@PEAX@std@@@std@@QEAAPEAU?$_List_node@PEAVObjector@@PEAX@2@_K@Z ; std::allocator<std::_List_node<Objector *,void *> >::allocate
PUBLIC	?deallocate@?$_Default_allocator_traits@V?$allocator@U?$_List_node@PEAVObjector@@PEAX@std@@@std@@@std@@SAXAEAV?$allocator@U?$_List_node@PEAVObjector@@PEAX@std@@@2@QEAU?$_List_node@PEAVObjector@@PEAX@2@_K@Z ; std::_Default_allocator_traits<std::allocator<std::_List_node<Objector *,void *> > >::deallocate
PUBLIC	?max_size@?$_Default_allocator_traits@V?$allocator@U?$_List_node@PEAVObjector@@PEAX@std@@@std@@@std@@SA_KAEBV?$allocator@U?$_List_node@PEAVObjector@@PEAX@std@@@2@@Z ; std::_Default_allocator_traits<std::allocator<std::_List_node<Objector *,void *> > >::max_size
PUBLIC	??0?$list@PEAVObjector@@V?$allocator@PEAVObjector@@@std@@@std@@QEAA@XZ ; std::list<Objector *,std::allocator<Objector *> >::list<Objector *,std::allocator<Objector *> >
PUBLIC	??1?$list@PEAVObjector@@V?$allocator@PEAVObjector@@@std@@@std@@QEAA@XZ ; std::list<Objector *,std::allocator<Objector *> >::~list<Objector *,std::allocator<Objector *> >
PUBLIC	?_Unchecked_begin@?$list@PEAVObjector@@V?$allocator@PEAVObjector@@@std@@@std@@QEAA?AV?$_List_unchecked_iterator@V?$_List_val@U?$_List_simple_types@PEAVObjector@@@std@@@std@@@2@XZ ; std::list<Objector *,std::allocator<Objector *> >::_Unchecked_begin
PUBLIC	?_Unchecked_end@?$list@PEAVObjector@@V?$allocator@PEAVObjector@@@std@@@std@@QEAA?AV?$_List_unchecked_iterator@V?$_List_val@U?$_List_simple_types@PEAVObjector@@@std@@@std@@@2@XZ ; std::list<Objector *,std::allocator<Objector *> >::_Unchecked_end
PUBLIC	?max_size@?$list@PEAVObjector@@V?$allocator@PEAVObjector@@@std@@@std@@QEBA_KXZ ; std::list<Objector *,std::allocator<Objector *> >::max_size
PUBLIC	?push_back@?$list@PEAVObjector@@V?$allocator@PEAVObjector@@@std@@@std@@QEAAXAEBQEAVObjector@@@Z ; std::list<Objector *,std::allocator<Objector *> >::push_back
PUBLIC	?_Tidy@?$list@PEAVObjector@@V?$allocator@PEAVObjector@@@std@@@std@@AEAAXXZ ; std::list<Objector *,std::allocator<Objector *> >::_Tidy
PUBLIC	?remove@?$list@PEAVObjector@@V?$allocator@PEAVObjector@@@std@@@std@@QEAA@AEBQEAVObjector@@@Z ; std::list<Objector *,std::allocator<Objector *> >::remove
PUBLIC	?_Alloc_sentinel_and_proxy@?$list@PEAVObjector@@V?$allocator@PEAVObjector@@@std@@@std@@AEAAXXZ ; std::list<Objector *,std::allocator<Objector *> >::_Alloc_sentinel_and_proxy
PUBLIC	?_Getal@?$list@PEAVObjector@@V?$allocator@PEAVObjector@@@std@@@std@@AEAAAEAV?$allocator@U?$_List_node@PEAVObjector@@PEAX@std@@@2@XZ ; std::list<Objector *,std::allocator<Objector *> >::_Getal
PUBLIC	?_Getal@?$list@PEAVObjector@@V?$allocator@PEAVObjector@@@std@@@std@@AEBAAEBV?$allocator@U?$_List_node@PEAVObjector@@PEAX@std@@@2@XZ ; std::list<Objector *,std::allocator<Objector *> >::_Getal
PUBLIC	??0?$_List_val@U?$_List_simple_types@PEAVObjector@@@std@@@std@@QEAA@XZ ; std::_List_val<std::_List_simple_types<Objector *> >::_List_val<std::_List_simple_types<Objector *> >
PUBLIC	?_Orphan_ptr2@?$_List_val@U?$_List_simple_types@PEAVObjector@@@std@@@std@@QEAAXPEAU?$_List_node@PEAVObjector@@PEAX@2@@Z ; std::_List_val<std::_List_simple_types<Objector *> >::_Orphan_ptr2
PUBLIC	?_Get_first@?$_Compressed_pair@V?$allocator@U?$_List_node@PEAVObjector@@PEAX@std@@@std@@V?$_List_val@U?$_List_simple_types@PEAVObjector@@@std@@@2@$00@std@@QEAAAEAV?$allocator@U?$_List_node@PEAVObjector@@PEAX@std@@@2@XZ ; std::_Compressed_pair<std::allocator<std::_List_node<Objector *,void *> >,std::_List_val<std::_List_simple_types<Objector *> >,1>::_Get_first
PUBLIC	?_Get_first@?$_Compressed_pair@V?$allocator@U?$_List_node@PEAVObjector@@PEAX@std@@@std@@V?$_List_val@U?$_List_simple_types@PEAVObjector@@@std@@@2@$00@std@@QEBAAEBV?$allocator@U?$_List_node@PEAVObjector@@PEAX@std@@@2@XZ ; std::_Compressed_pair<std::allocator<std::_List_node<Objector *,void *> >,std::_List_val<std::_List_simple_types<Objector *> >,1>::_Get_first
PUBLIC	?__autoclassinit2@Subject@@QEAAX_K@Z		; Subject::__autoclassinit2
PUBLIC	??_GSubject@@UEAAPEAXI@Z			; Subject::`scalar deleting destructor'
PUBLIC	??R<lambda_1>@?1??remove@?$list@PEAVObjector@@V?$allocator@PEAVObjector@@@std@@@std@@QEAA@AEBQEAVObjector@@@Z@QEBA@0@Z ; `std::list<Objector *,std::allocator<Objector *> >::remove'::`2'::<lambda_1>::operator()
PUBLIC	??0<lambda_1>@?1??remove@?$list@PEAVObjector@@V?$allocator@PEAVObjector@@@std@@@std@@QEAA@AEBQEAVObjector@@@Z@QEAA@0@Z ; `std::list<Objector *,std::allocator<Objector *> >::remove'::`2'::<lambda_1>::<lambda_1>
PUBLIC	??$remove_if@V<lambda_1>@?1??remove@?$list@PEAVObjector@@V?$allocator@PEAVObjector@@@std@@@std@@QEAA@AEBQEAVObjector@@@Z@@?$list@PEAVObjector@@V?$allocator@PEAVObjector@@@std@@@std@@QEAA@V<lambda_1>@?1??remove@01@QEAA@AEBQEAVObjector@@@Z@@Z ; std::list<Objector *,std::allocator<Objector *> >::remove_if<`std::list<Objector *,std::allocator<Objector *> >::remove'::`2'::<lambda_1> >
PUBLIC	??0_List_node_remove_op@?$list@PEAVObjector@@V?$allocator@PEAVObjector@@@std@@@std@@QEAA@AEAV12@@Z ; std::list<Objector *,std::allocator<Objector *> >::_List_node_remove_op::_List_node_remove_op
PUBLIC	?_Transfer_back@_List_node_remove_op@?$list@PEAVObjector@@V?$allocator@PEAVObjector@@@std@@@std@@QEAAPEAU?$_List_node@PEAVObjector@@PEAX@3@QEAU43@@Z ; std::list<Objector *,std::allocator<Objector *> >::_List_node_remove_op::_Transfer_back
PUBLIC	??1_List_node_remove_op@?$list@PEAVObjector@@V?$allocator@PEAVObjector@@@std@@@std@@QEAA@XZ ; std::list<Objector *,std::allocator<Objector *> >::_List_node_remove_op::~_List_node_remove_op
PUBLIC	??0?$_List_unchecked_const_iterator@V?$_List_val@U?$_List_simple_types@PEAVObjector@@@std@@@std@@U_Iterator_base0@2@@std@@QEAA@PEAU?$_List_node@PEAVObjector@@PEAX@1@PEBV?$_List_val@U?$_List_simple_types@PEAVObjector@@@std@@@1@@Z ; std::_List_unchecked_const_iterator<std::_List_val<std::_List_simple_types<Objector *> >,std::_Iterator_base0>::_List_unchecked_const_iterator<std::_List_val<std::_List_simple_types<Objector *> >,std::_Iterator_base0>
PUBLIC	??D?$_List_unchecked_const_iterator@V?$_List_val@U?$_List_simple_types@PEAVObjector@@@std@@@std@@U_Iterator_base0@2@@std@@QEBAAEBQEAVObjector@@XZ ; std::_List_unchecked_const_iterator<std::_List_val<std::_List_simple_types<Objector *> >,std::_Iterator_base0>::operator*
PUBLIC	??E?$_List_unchecked_const_iterator@V?$_List_val@U?$_List_simple_types@PEAVObjector@@@std@@@std@@U_Iterator_base0@2@@std@@QEAAAEAV01@XZ ; std::_List_unchecked_const_iterator<std::_List_val<std::_List_simple_types<Objector *> >,std::_Iterator_base0>::operator++
PUBLIC	??8?$_List_unchecked_const_iterator@V?$_List_val@U?$_List_simple_types@PEAVObjector@@@std@@@std@@U_Iterator_base0@2@@std@@QEBA_NAEBV01@@Z ; std::_List_unchecked_const_iterator<std::_List_val<std::_List_simple_types<Objector *> >,std::_Iterator_base0>::operator==
PUBLIC	??9?$_List_unchecked_const_iterator@V?$_List_val@U?$_List_simple_types@PEAVObjector@@@std@@@std@@U_Iterator_base0@2@@std@@QEBA_NAEBV01@@Z ; std::_List_unchecked_const_iterator<std::_List_val<std::_List_simple_types<Objector *> >,std::_Iterator_base0>::operator!=
PUBLIC	??0?$_List_unchecked_iterator@V?$_List_val@U?$_List_simple_types@PEAVObjector@@@std@@@std@@@std@@QEAA@PEAU?$_List_node@PEAVObjector@@PEAX@1@PEBV?$_List_val@U?$_List_simple_types@PEAVObjector@@@std@@@1@@Z ; std::_List_unchecked_iterator<std::_List_val<std::_List_simple_types<Objector *> > >::_List_unchecked_iterator<std::_List_val<std::_List_simple_types<Objector *> > >
PUBLIC	??D?$_List_unchecked_iterator@V?$_List_val@U?$_List_simple_types@PEAVObjector@@@std@@@std@@@std@@QEBAAEAPEAVObjector@@XZ ; std::_List_unchecked_iterator<std::_List_val<std::_List_simple_types<Objector *> > >::operator*
PUBLIC	??E?$_List_unchecked_iterator@V?$_List_val@U?$_List_simple_types@PEAVObjector@@@std@@@std@@@std@@QEAAAEAV01@XZ ; std::_List_unchecked_iterator<std::_List_val<std::_List_simple_types<Objector *> > >::operator++
PUBLIC	?__autoclassinit2@?$_List_unchecked_iterator@V?$_List_val@U?$_List_simple_types@PEAVObjector@@@std@@@std@@@std@@QEAAX_K@Z ; std::_List_unchecked_iterator<std::_List_val<std::_List_simple_types<Objector *> > >::__autoclassinit2
PUBLIC	??$?6U?$char_traits@D@std@@@std@@YAAEAV?$basic_ostream@DU?$char_traits@D@std@@@0@AEAV10@PEBD@Z ; std::operator<<<std::char_traits<char> >
PUBLIC	??$endl@DU?$char_traits@D@std@@@std@@YAAEAV?$basic_ostream@DU?$char_traits@D@std@@@0@AEAV10@@Z ; std::endl<char,std::char_traits<char> >
PUBLIC	??$addressof@PEAU?$_List_node@PEAVObjector@@PEAX@std@@@std@@YAPEAPEAU?$_List_node@PEAVObjector@@PEAX@0@AEAPEAU10@@Z ; std::addressof<std::_List_node<Objector *,void *> *>
PUBLIC	??$destroy@PEAU?$_List_node@PEAVObjector@@PEAX@std@@@?$_Default_allocator_traits@V?$allocator@U?$_List_node@PEAVObjector@@PEAX@std@@@std@@@std@@SAXAEAV?$allocator@U?$_List_node@PEAVObjector@@PEAX@std@@@1@QEAPEAU?$_List_node@PEAVObjector@@PEAX@1@@Z ; std::_Default_allocator_traits<std::allocator<std::_List_node<Objector *,void *> > >::destroy<std::_List_node<Objector *,void *> *>
PUBLIC	??$addressof@PEAVObjector@@@std@@YAPEAPEAVObjector@@AEAPEAV1@@Z ; std::addressof<Objector *>
PUBLIC	??$destroy@PEAVObjector@@@?$_Default_allocator_traits@V?$allocator@U?$_List_node@PEAVObjector@@PEAX@std@@@std@@@std@@SAXAEAV?$allocator@U?$_List_node@PEAVObjector@@PEAX@std@@@1@QEAPEAVObjector@@@Z ; std::_Default_allocator_traits<std::allocator<std::_List_node<Objector *,void *> > >::destroy<Objector *>
PUBLIC	??$exchange@PEAU?$_List_node@PEAVObjector@@PEAX@std@@PEAU12@@std@@YAPEAU?$_List_node@PEAVObjector@@PEAX@0@AEAPEAU10@$$QEAPEAU10@@Z ; std::exchange<std::_List_node<Objector *,void *> *,std::_List_node<Objector *,void *> *>
PUBLIC	??$_Emplace@AEBQEAVObjector@@@?$list@PEAVObjector@@V?$allocator@PEAVObjector@@@std@@@std@@QEAAPEAU?$_List_node@PEAVObjector@@PEAX@1@QEAU21@AEBQEAVObjector@@@Z ; std::list<Objector *,std::allocator<Objector *> >::_Emplace<Objector * const &>
PUBLIC	?allocate@?$allocator@U_Container_proxy@std@@@std@@QEAAPEAU_Container_proxy@2@_K@Z ; std::allocator<std::_Container_proxy>::allocate
PUBLIC	??$?0U?$_List_node@PEAVObjector@@PEAX@std@@@?$allocator@U_Container_proxy@std@@@std@@QEAA@AEBV?$allocator@U?$_List_node@PEAVObjector@@PEAX@std@@@1@@Z ; std::allocator<std::_Container_proxy>::allocator<std::_Container_proxy><std::_List_node<Objector *,void *> >
PUBLIC	??$_Delete_plain_internal@V?$allocator@U_Container_proxy@std@@@std@@@std@@YAXAEAV?$allocator@U_Container_proxy@std@@@0@QEAU_Container_proxy@0@@Z ; std::_Delete_plain_internal<std::allocator<std::_Container_proxy> >
PUBLIC	??$?0$$V@?$_Compressed_pair@V?$allocator@U?$_List_node@PEAVObjector@@PEAX@std@@@std@@V?$_List_val@U?$_List_simple_types@PEAVObjector@@@std@@@2@$00@std@@QEAA@U_Zero_then_variadic_args_t@1@@Z ; std::_Compressed_pair<std::allocator<std::_List_node<Objector *,void *> >,std::_List_val<std::_List_simple_types<Objector *> >,1>::_Compressed_pair<std::allocator<std::_List_node<Objector *,void *> >,std::_List_val<std::_List_simple_types<Objector *> >,1><>
PUBLIC	??0?$_Container_proxy_ptr12@V?$allocator@U_Container_proxy@std@@@std@@@std@@QEAA@AEAV?$allocator@U_Container_proxy@std@@@1@AEAU_Container_base12@1@@Z ; std::_Container_proxy_ptr12<std::allocator<std::_Container_proxy> >::_Container_proxy_ptr12<std::allocator<std::_Container_proxy> >
PUBLIC	??1?$_Container_proxy_ptr12@V?$allocator@U_Container_proxy@std@@@std@@@std@@QEAA@XZ ; std::_Container_proxy_ptr12<std::allocator<std::_Container_proxy> >::~_Container_proxy_ptr12<std::allocator<std::_Container_proxy> >
PUBLIC	??$_Unfancy@U_Container_proxy@std@@@std@@YAPEAU_Container_proxy@0@PEAU10@@Z ; std::_Unfancy<std::_Container_proxy>
PUBLIC	??$_Construct_in_place@PEAU?$_List_node@PEAVObjector@@PEAX@std@@AEAPEAU12@@std@@YAXAEAPEAU?$_List_node@PEAVObjector@@PEAX@0@0@Z ; std::_Construct_in_place<std::_List_node<Objector *,void *> *,std::_List_node<Objector *,void *> * &>
PUBLIC	??$_Free_non_head@V?$allocator@U?$_List_node@PEAVObjector@@PEAX@std@@@std@@@?$_List_node@PEAVObjector@@PEAX@std@@SAXAEAV?$allocator@U?$_List_node@PEAVObjector@@PEAX@std@@@1@PEAU01@@Z ; std::_List_node<Objector *,void *>::_Free_non_head<std::allocator<std::_List_node<Objector *,void *> > >
PUBLIC	??$_Freenode0@V?$allocator@U?$_List_node@PEAVObjector@@PEAX@std@@@std@@@?$_List_node@PEAVObjector@@PEAX@std@@SAXAEAV?$allocator@U?$_List_node@PEAVObjector@@PEAX@std@@@1@PEAU01@@Z ; std::_List_node<Objector *,void *>::_Freenode0<std::allocator<std::_List_node<Objector *,void *> > >
PUBLIC	??$_Deallocate@$0BA@$0A@@std@@YAXPEAX_K@Z	; std::_Deallocate<16,0>
PUBLIC	??$_Allocate@$0BA@U_Default_allocate_traits@std@@$0A@@std@@YAPEAX_K@Z ; std::_Allocate<16,std::_Default_allocate_traits,0>
PUBLIC	??$_Get_size_of_n@$0BA@@std@@YA_K_K@Z		; std::_Get_size_of_n<16>
PUBLIC	??$_Get_size_of_n@$0BI@@std@@YA_K_K@Z		; std::_Get_size_of_n<24>
PUBLIC	??$addressof@U_Container_proxy@std@@@std@@YAPEAU_Container_proxy@0@AEAU10@@Z ; std::addressof<std::_Container_proxy>
PUBLIC	??$forward@PEAU_Container_base12@std@@@std@@YA$$QEAPEAU_Container_base12@0@AEAPEAU10@@Z ; std::forward<std::_Container_base12 *>
PUBLIC	??0_Sentry_base@?$basic_ostream@DU?$char_traits@D@std@@@std@@QEAA@AEAV12@@Z ; std::basic_ostream<char,std::char_traits<char> >::_Sentry_base::_Sentry_base
PUBLIC	??1_Sentry_base@?$basic_ostream@DU?$char_traits@D@std@@@std@@QEAA@XZ ; std::basic_ostream<char,std::char_traits<char> >::_Sentry_base::~_Sentry_base
PUBLIC	??0sentry@?$basic_ostream@DU?$char_traits@D@std@@@std@@QEAA@AEAV12@@Z ; std::basic_ostream<char,std::char_traits<char> >::sentry::sentry
PUBLIC	??1sentry@?$basic_ostream@DU?$char_traits@D@std@@@std@@QEAA@XZ ; std::basic_ostream<char,std::char_traits<char> >::sentry::~sentry
PUBLIC	??Bsentry@?$basic_ostream@DU?$char_traits@D@std@@@std@@QEBA_NXZ ; std::basic_ostream<char,std::char_traits<char> >::sentry::operator bool
PUBLIC	??0?$_Alloc_construct_ptr@V?$allocator@U?$_List_node@PEAVObjector@@PEAX@std@@@std@@@std@@QEAA@AEAV?$allocator@U?$_List_node@PEAVObjector@@PEAX@std@@@1@@Z ; std::_Alloc_construct_ptr<std::allocator<std::_List_node<Objector *,void *> > >::_Alloc_construct_ptr<std::allocator<std::_List_node<Objector *,void *> > >
PUBLIC	?_Allocate@?$_Alloc_construct_ptr@V?$allocator@U?$_List_node@PEAVObjector@@PEAX@std@@@std@@@std@@QEAAXXZ ; std::_Alloc_construct_ptr<std::allocator<std::_List_node<Objector *,void *> > >::_Allocate
PUBLIC	??1?$_Alloc_construct_ptr@V?$allocator@U?$_List_node@PEAVObjector@@PEAX@std@@@std@@@std@@QEAA@XZ ; std::_Alloc_construct_ptr<std::allocator<std::_List_node<Objector *,void *> > >::~_Alloc_construct_ptr<std::allocator<std::_List_node<Objector *,void *> > >
PUBLIC	??1?$_List_node_emplace_op2@V?$allocator@U?$_List_node@PEAVObjector@@PEAX@std@@@std@@@std@@QEAA@XZ ; std::_List_node_emplace_op2<std::allocator<std::_List_node<Objector *,void *> > >::~_List_node_emplace_op2<std::allocator<std::_List_node<Objector *,void *> > >
PUBLIC	?_Transfer_before@?$_List_node_emplace_op2@V?$allocator@U?$_List_node@PEAVObjector@@PEAX@std@@@std@@@std@@QEAAPEAU?$_List_node@PEAVObjector@@PEAX@2@QEAU32@@Z ; std::_List_node_emplace_op2<std::allocator<std::_List_node<Objector *,void *> > >::_Transfer_before
PUBLIC	??$forward@AEBQEAVObjector@@@std@@YAAEBQEAVObjector@@AEBQEAV1@@Z ; std::forward<Objector * const &>
PUBLIC	??$?0AEBQEAVObjector@@@?$_List_node_emplace_op2@V?$allocator@U?$_List_node@PEAVObjector@@PEAX@std@@@std@@@std@@QEAA@AEAV?$allocator@U?$_List_node@PEAVObjector@@PEAX@std@@@1@AEBQEAVObjector@@@Z ; std::_List_node_emplace_op2<std::allocator<std::_List_node<Objector *,void *> > >::_List_node_emplace_op2<std::allocator<std::_List_node<Objector *,void *> > ><Objector * const &>
PUBLIC	??$_Deallocate_plain@V?$allocator@U_Container_proxy@std@@@std@@@std@@YAXAEAV?$allocator@U_Container_proxy@std@@@0@QEAU_Container_proxy@0@@Z ; std::_Deallocate_plain<std::allocator<std::_Container_proxy> >
PUBLIC	??$forward@AEAPEAU?$_List_node@PEAVObjector@@PEAX@std@@@std@@YAAEAPEAU?$_List_node@PEAVObjector@@PEAX@0@AEAPEAU10@@Z ; std::forward<std::_List_node<Objector *,void *> * &>
PUBLIC	??$_Freenode@V?$allocator@U?$_List_node@PEAVObjector@@PEAX@std@@@std@@@?$_List_node@PEAVObjector@@PEAX@std@@SAXAEAV?$allocator@U?$_List_node@PEAVObjector@@PEAX@std@@@1@PEAU01@@Z ; std::_List_node<Objector *,void *>::_Freenode<std::allocator<std::_List_node<Objector *,void *> > >
PUBLIC	??$_Destroy_in_place@PEAU?$_List_node@PEAVObjector@@PEAX@std@@@std@@YAXAEAPEAU?$_List_node@PEAVObjector@@PEAX@0@@Z ; std::_Destroy_in_place<std::_List_node<Objector *,void *> *>
PUBLIC	??$_Allocate_manually_vector_aligned@U_Default_allocate_traits@std@@@std@@YAPEAX_K@Z ; std::_Allocate_manually_vector_aligned<std::_Default_allocate_traits>
PUBLIC	??$_Construct_in_place@PEAU?$_List_node@PEAVObjector@@PEAX@std@@AEBQEAU12@@std@@YAXAEAPEAU?$_List_node@PEAVObjector@@PEAX@0@AEBQEAU10@@Z ; std::_Construct_in_place<std::_List_node<Objector *,void *> *,std::_List_node<Objector *,void *> * const &>
PUBLIC	??$construct@PEAVObjector@@AEBQEAV1@@?$_Default_allocator_traits@V?$allocator@U?$_List_node@PEAVObjector@@PEAX@std@@@std@@@std@@SAXAEAV?$allocator@U?$_List_node@PEAVObjector@@PEAX@std@@@1@QEAPEAVObjector@@AEBQEAV3@@Z ; std::_Default_allocator_traits<std::allocator<std::_List_node<Objector *,void *> > >::construct<Objector *,Objector * const &>
PUBLIC	?deallocate@?$_Default_allocator_traits@V?$allocator@U_Container_proxy@std@@@std@@@std@@SAXAEAV?$allocator@U_Container_proxy@std@@@2@QEAU_Container_proxy@2@_K@Z ; std::_Default_allocator_traits<std::allocator<std::_Container_proxy> >::deallocate
PUBLIC	??$forward@AEBQEAU?$_List_node@PEAVObjector@@PEAX@std@@@std@@YAAEBQEAU?$_List_node@PEAVObjector@@PEAX@0@AEBQEAU10@@Z ; std::forward<std::_List_node<Objector *,void *> * const &>
PUBLIC	__JustMyCode_Default
PUBLIC	??_7exception@std@@6B@				; std::exception::`vftable'
PUBLIC	??_C@_0BC@EOODALEL@Unknown?5exception@		; `string'
PUBLIC	??_7bad_alloc@std@@6B@				; std::bad_alloc::`vftable'
PUBLIC	??_7bad_array_new_length@std@@6B@		; std::bad_array_new_length::`vftable'
PUBLIC	??_C@_0BF@KINCDENJ@bad?5array?5new?5length@	; `string'
PUBLIC	_TI3?AVbad_array_new_length@std@@
PUBLIC	_CTA3?AVbad_array_new_length@std@@
PUBLIC	??_R0?AVbad_array_new_length@std@@@8		; std::bad_array_new_length `RTTI Type Descriptor'
PUBLIC	_CT??_R0?AVbad_array_new_length@std@@@8??0bad_array_new_length@std@@QEAA@AEBV01@@Z24
PUBLIC	??_R0?AVbad_alloc@std@@@8			; std::bad_alloc `RTTI Type Descriptor'
PUBLIC	_CT??_R0?AVbad_alloc@std@@@8??0bad_alloc@std@@QEAA@AEBV01@@Z24
PUBLIC	??_R0?AVexception@std@@@8			; std::exception `RTTI Type Descriptor'
PUBLIC	_CT??_R0?AVexception@std@@@8??0exception@std@@QEAA@AEBV01@@Z24
PUBLIC	?__LINE__Var@?0??_Adjust_manually_vector_aligned@std@@YAXAEAPEAXAEA_K@Z@4JA ; `std::_Adjust_manually_vector_aligned'::`1'::__LINE__Var
PUBLIC	??_C@_0BB@FCMFBGOM@invalid?5argument@		; `string'
PUBLIC	??_C@_02DKCKIIND@?$CFs@				; `string'
PUBLIC	??_C@_0GJ@ICFCEKIN@C?3?2Program?5Files?5?$CIx86?$CJ?2Microsof@ ; `string'
PUBLIC	??_C@_1NC@MGDJFDEK@?$AAC?$AA?3?$AA?2?$AAP?$AAr?$AAo?$AAg?$AAr?$AAa?$AAm?$AA?5?$AAF?$AAi?$AAl?$AAe@ ; `string'
PUBLIC	??_C@_1EK@NIFDJFDG@?$AAs?$AAt?$AAd?$AA?3?$AA?3?$AA_?$AAA?$AAd?$AAj?$AAu?$AAs?$AAt?$AA_?$AAm?$AAa@ ; `string'
PUBLIC	??_C@_1CG@JNLFBNGN@?$AA?$CC?$AAi?$AAn?$AAv?$AAa?$AAl?$AAi?$AAd?$AA?5?$AAa?$AAr?$AAg?$AAu?$AAm?$AAe@ ; `string'
PUBLIC	??_7Objector@@6B@				; Objector::`vftable'
PUBLIC	??_7Subject@@6B@				; Subject::`vftable'
PUBLIC	??_C@_0BD@HAHFOGAN@Objector?5do?5Update@	; `string'
PUBLIC	??_C@_0BB@MOGOBHAF@list?$DMT?$DO?5too?5long@	; `string'
PUBLIC	??_C@_1EO@GFNCMDLA@?$AAs?$AAt?$AAd?$AA?3?$AA?3?$AA_?$AAA?$AAl?$AAl?$AAo?$AAc?$AAa?$AAt?$AAe?$AA_@ ; `string'
PUBLIC	??_R4exception@std@@6B@				; std::exception::`RTTI Complete Object Locator'
PUBLIC	??_R3exception@std@@8				; std::exception::`RTTI Class Hierarchy Descriptor'
PUBLIC	??_R2exception@std@@8				; std::exception::`RTTI Base Class Array'
PUBLIC	??_R1A@?0A@EA@exception@std@@8			; std::exception::`RTTI Base Class Descriptor at (0,-1,0,64)'
PUBLIC	??_R4bad_alloc@std@@6B@				; std::bad_alloc::`RTTI Complete Object Locator'
PUBLIC	??_R3bad_alloc@std@@8				; std::bad_alloc::`RTTI Class Hierarchy Descriptor'
PUBLIC	??_R2bad_alloc@std@@8				; std::bad_alloc::`RTTI Base Class Array'
PUBLIC	??_R1A@?0A@EA@bad_alloc@std@@8			; std::bad_alloc::`RTTI Base Class Descriptor at (0,-1,0,64)'
PUBLIC	??_R4bad_array_new_length@std@@6B@		; std::bad_array_new_length::`RTTI Complete Object Locator'
PUBLIC	??_R3bad_array_new_length@std@@8		; std::bad_array_new_length::`RTTI Class Hierarchy Descriptor'
PUBLIC	??_R2bad_array_new_length@std@@8		; std::bad_array_new_length::`RTTI Base Class Array'
PUBLIC	??_R1A@?0A@EA@bad_array_new_length@std@@8	; std::bad_array_new_length::`RTTI Base Class Descriptor at (0,-1,0,64)'
PUBLIC	??_R4Subject@@6B@				; Subject::`RTTI Complete Object Locator'
PUBLIC	??_R0?AVSubject@@@8				; Subject `RTTI Type Descriptor'
PUBLIC	??_R3Subject@@8					; Subject::`RTTI Class Hierarchy Descriptor'
PUBLIC	??_R2Subject@@8					; Subject::`RTTI Base Class Array'
PUBLIC	??_R1A@?0A@EA@Subject@@8			; Subject::`RTTI Base Class Descriptor at (0,-1,0,64)'
PUBLIC	??_R4Objector@@6B@				; Objector::`RTTI Complete Object Locator'
PUBLIC	??_R0?AVObjector@@@8				; Objector `RTTI Type Descriptor'
PUBLIC	??_R3Objector@@8				; Objector::`RTTI Class Hierarchy Descriptor'
PUBLIC	??_R2Objector@@8				; Objector::`RTTI Base Class Array'
PUBLIC	??_R1A@?0A@EA@Objector@@8			; Objector::`RTTI Base Class Descriptor at (0,-1,0,64)'
EXTRN	??2@YAPEAX_K@Z:PROC				; operator new
EXTRN	??3@YAXPEAX_K@Z:PROC				; operator delete
EXTRN	__imp__invalid_parameter:PROC
EXTRN	__imp__CrtDbgReport:PROC
EXTRN	__imp_??0_Lockit@std@@QEAA@H@Z:PROC
EXTRN	__imp_??1_Lockit@std@@QEAA@XZ:PROC
EXTRN	?uncaught_exception@std@@YA_NXZ:PROC		; std::uncaught_exception
EXTRN	__std_exception_copy:PROC
EXTRN	__std_exception_destroy:PROC
EXTRN	??_Eexception@std@@UEAAPEAXI@Z:PROC		; std::exception::`vector deleting destructor'
EXTRN	??_Ebad_alloc@std@@UEAAPEAXI@Z:PROC		; std::bad_alloc::`vector deleting destructor'
EXTRN	??_Ebad_array_new_length@std@@UEAAPEAXI@Z:PROC	; std::bad_array_new_length::`vector deleting destructor'
EXTRN	?_Xlength_error@std@@YAXPEBD@Z:PROC		; std::_Xlength_error
EXTRN	__imp_?good@ios_base@std@@QEBA_NXZ:PROC
EXTRN	__imp_?flags@ios_base@std@@QEBAHXZ:PROC
EXTRN	__imp_?width@ios_base@std@@QEBA_JXZ:PROC
EXTRN	__imp_?width@ios_base@std@@QEAA_J_J@Z:PROC
EXTRN	__imp_?sputc@?$basic_streambuf@DU?$char_traits@D@std@@@std@@QEAAHD@Z:PROC
EXTRN	__imp_?sputn@?$basic_streambuf@DU?$char_traits@D@std@@@std@@QEAA_JPEBD_J@Z:PROC
EXTRN	__imp_?setstate@?$basic_ios@DU?$char_traits@D@std@@@std@@QEAAXH_N@Z:PROC
EXTRN	__imp_?tie@?$basic_ios@DU?$char_traits@D@std@@@std@@QEBAPEAV?$basic_ostream@DU?$char_traits@D@std@@@2@XZ:PROC
EXTRN	__imp_?rdbuf@?$basic_ios@DU?$char_traits@D@std@@@std@@QEBAPEAV?$basic_streambuf@DU?$char_traits@D@std@@@2@XZ:PROC
EXTRN	__imp_?fill@?$basic_ios@DU?$char_traits@D@std@@@std@@QEBADXZ:PROC
EXTRN	__imp_?widen@?$basic_ios@DU?$char_traits@D@std@@@std@@QEBADD@Z:PROC
EXTRN	__imp_?_Osfx@?$basic_ostream@DU?$char_traits@D@std@@@std@@QEAAXXZ:PROC
EXTRN	__imp_??6?$basic_ostream@DU?$char_traits@D@std@@@std@@QEAAAEAV01@P6AAEAV01@AEAV01@@Z@Z:PROC
EXTRN	__imp_?put@?$basic_ostream@DU?$char_traits@D@std@@@std@@QEAAAEAV12@D@Z:PROC
EXTRN	__imp_?flush@?$basic_ostream@DU?$char_traits@D@std@@@std@@QEAAAEAV12@XZ:PROC
EXTRN	??_EObjector@@UEAAPEAXI@Z:PROC			; Objector::`vector deleting destructor'
EXTRN	??_ESubject@@UEAAPEAXI@Z:PROC			; Subject::`vector deleting destructor'
EXTRN	_CxxThrowException:PROC
EXTRN	_RTC_CheckStackVars:PROC
EXTRN	_RTC_InitBase:PROC
EXTRN	_RTC_Shutdown:PROC
EXTRN	__CheckForDebuggerJustMyCode:PROC
EXTRN	__CxxFrameHandler4:PROC
EXTRN	__GSHandlerCheck:PROC
EXTRN	__GSHandlerCheck_EH4:PROC
EXTRN	__security_check_cookie:PROC
EXTRN	??_7type_info@@6B@:BYTE				; type_info::`vftable'
EXTRN	__imp_?cout@std@@3V?$basic_ostream@DU?$char_traits@D@std@@@1@A:BYTE
EXTRN	__security_cookie:QWORD
;	COMDAT pdata
pdata	SEGMENT
$pdata$?__empty_global_delete@@YAXPEAX@Z DD imagerel $LN3
	DD	imagerel $LN3+65
	DD	imagerel $unwind$?__empty_global_delete@@YAXPEAX@Z
pdata	ENDS
;	COMDAT pdata
pdata	SEGMENT
$pdata$?__empty_global_delete@@YAXPEAX_K@Z DD imagerel $LN3
	DD	imagerel $LN3+70
	DD	imagerel $unwind$?__empty_global_delete@@YAXPEAX_K@Z
pdata	ENDS
;	COMDAT pdata
pdata	SEGMENT
$pdata$?__empty_global_delete@@YAXPEAXW4align_val_t@std@@@Z DD imagerel $LN3
	DD	imagerel $LN3+70
	DD	imagerel $unwind$?__empty_global_delete@@YAXPEAXW4align_val_t@std@@@Z
pdata	ENDS
;	COMDAT pdata
pdata	SEGMENT
$pdata$?__empty_global_delete@@YAXPEAX_KW4align_val_t@std@@@Z DD imagerel $LN3
	DD	imagerel $LN3+75
	DD	imagerel $unwind$?__empty_global_delete@@YAXPEAX_KW4align_val_t@std@@@Z
pdata	ENDS
;	COMDAT pdata
pdata	SEGMENT
$pdata$??2@YAPEAX_KPEAX@Z DD imagerel $LN3
	DD	imagerel $LN3+77
	DD	imagerel $unwind$??2@YAPEAX_KPEAX@Z
pdata	ENDS
;	COMDAT pdata
pdata	SEGMENT
$pdata$?max@?$numeric_limits@_J@std@@SA_JXZ DD imagerel $LN3
	DD	imagerel $LN3+63
	DD	imagerel $unwind$?max@?$numeric_limits@_J@std@@SA_JXZ
pdata	ENDS
;	COMDAT pdata
pdata	SEGMENT
$pdata$??0exception@std@@QEAA@QEBDH@Z DD imagerel $LN3
	DD	imagerel $LN3+140
	DD	imagerel $unwind$??0exception@std@@QEAA@QEBDH@Z
pdata	ENDS
;	COMDAT pdata
pdata	SEGMENT
$pdata$??0exception@std@@QEAA@AEBV01@@Z DD imagerel $LN3
	DD	imagerel $LN3+148
	DD	imagerel $unwind$??0exception@std@@QEAA@AEBV01@@Z
pdata	ENDS
;	COMDAT pdata
pdata	SEGMENT
$pdata$??1exception@std@@UEAA@XZ DD imagerel $LN3
	DD	imagerel $LN3+102
	DD	imagerel $unwind$??1exception@std@@UEAA@XZ
pdata	ENDS
;	COMDAT pdata
pdata	SEGMENT
$pdata$?what@exception@std@@UEBAPEBDXZ DD imagerel $LN5
	DD	imagerel $LN5+119
	DD	imagerel $unwind$?what@exception@std@@UEBAPEBDXZ
pdata	ENDS
;	COMDAT pdata
pdata	SEGMENT
$pdata$??_Gexception@std@@UEAAPEAXI@Z DD imagerel $LN4
	DD	imagerel $LN4+105
	DD	imagerel $unwind$??_Gexception@std@@UEAAPEAXI@Z
pdata	ENDS
;	COMDAT pdata
pdata	SEGMENT
$pdata$??0bad_alloc@std@@AEAA@QEBD@Z DD imagerel $LN3
	DD	imagerel $LN3+120
	DD	imagerel $unwind$??0bad_alloc@std@@AEAA@QEBD@Z
pdata	ENDS
;	COMDAT pdata
pdata	SEGMENT
$pdata$??1bad_alloc@std@@UEAA@XZ DD imagerel $LN3
	DD	imagerel $LN3+64
	DD	imagerel $unwind$??1bad_alloc@std@@UEAA@XZ
pdata	ENDS
;	COMDAT pdata
pdata	SEGMENT
$pdata$??0bad_alloc@std@@QEAA@AEBV01@@Z DD imagerel $LN3
	DD	imagerel $LN3+100
	DD	imagerel $unwind$??0bad_alloc@std@@QEAA@AEBV01@@Z
pdata	ENDS
;	COMDAT pdata
pdata	SEGMENT
$pdata$??_Gbad_alloc@std@@UEAAPEAXI@Z DD imagerel $LN4
	DD	imagerel $LN4+105
	DD	imagerel $unwind$??_Gbad_alloc@std@@UEAAPEAXI@Z
pdata	ENDS
;	COMDAT pdata
pdata	SEGMENT
$pdata$??0bad_array_new_length@std@@QEAA@XZ DD imagerel $LN3
	DD	imagerel $LN3+109
	DD	imagerel $unwind$??0bad_array_new_length@std@@QEAA@XZ
pdata	ENDS
;	COMDAT pdata
pdata	SEGMENT
$pdata$??1bad_array_new_length@std@@UEAA@XZ DD imagerel $LN3
	DD	imagerel $LN3+64
	DD	imagerel $unwind$??1bad_array_new_length@std@@UEAA@XZ
pdata	ENDS
;	COMDAT pdata
pdata	SEGMENT
$pdata$??0bad_array_new_length@std@@QEAA@AEBV01@@Z DD imagerel $LN3
	DD	imagerel $LN3+100
	DD	imagerel $unwind$??0bad_array_new_length@std@@QEAA@AEBV01@@Z
pdata	ENDS
;	COMDAT pdata
pdata	SEGMENT
$pdata$??_Gbad_array_new_length@std@@UEAAPEAXI@Z DD imagerel $LN4
	DD	imagerel $LN4+105
	DD	imagerel $unwind$??_Gbad_array_new_length@std@@UEAAPEAXI@Z
pdata	ENDS
;	COMDAT pdata
pdata	SEGMENT
$pdata$?_Throw_bad_array_new_length@std@@YAXXZ DD imagerel $LN3
	DD	imagerel $LN3+83
	DD	imagerel $unwind$?_Throw_bad_array_new_length@std@@YAXXZ
pdata	ENDS
;	COMDAT pdata
pdata	SEGMENT
$pdata$?_Allocate@_Default_allocate_traits@std@@SAPEAX_K@Z DD imagerel $LN3
	DD	imagerel $LN3+76
	DD	imagerel $unwind$?_Allocate@_Default_allocate_traits@std@@SAPEAX_K@Z
pdata	ENDS
;	COMDAT pdata
pdata	SEGMENT
$pdata$?_Adjust_manually_vector_aligned@std@@YAXAEAPEAXAEA_K@Z DD imagerel $LN21
	DD	imagerel $LN21+476
	DD	imagerel $unwind$?_Adjust_manually_vector_aligned@std@@YAXAEAPEAXAEA_K@Z
pdata	ENDS
;	COMDAT pdata
pdata	SEGMENT
$pdata$?_Adopt@_Iterator_base0@std@@QEAAXPEBX@Z DD imagerel $LN3
	DD	imagerel $LN3+70
	DD	imagerel $unwind$?_Adopt@_Iterator_base0@std@@QEAAXPEBX@Z
pdata	ENDS
;	COMDAT pdata
pdata	SEGMENT
$pdata$??0_Container_proxy@std@@QEAA@PEAU_Container_base12@1@@Z DD imagerel $LN3
	DD	imagerel $LN3+109
	DD	imagerel $unwind$??0_Container_proxy@std@@QEAA@PEAU_Container_base12@1@@Z
pdata	ENDS
;	COMDAT pdata
pdata	SEGMENT
$pdata$??0_Container_base12@std@@QEAA@XZ DD imagerel $LN3
	DD	imagerel $LN3+85
	DD	imagerel $unwind$??0_Container_base12@std@@QEAA@XZ
pdata	ENDS
;	COMDAT pdata
pdata	SEGMENT
$pdata$?_Orphan_all@_Container_base12@std@@QEAAXXZ DD imagerel $LN7
	DD	imagerel $LN7+237
	DD	imagerel $unwind$?_Orphan_all@_Container_base12@std@@QEAAXXZ
pdata	ENDS
;	COMDAT pdata
pdata	SEGMENT
$pdata$??$_Construct_in_place@U_Container_proxy@std@@PEAU_Container_base12@2@@std@@YAXAEAU_Container_proxy@0@$$QEAPEAU_Container_base12@0@@Z DD imagerel $LN3
	DD	imagerel $LN3+147
	DD	imagerel $unwind$??$_Construct_in_place@U_Container_proxy@std@@PEAU_Container_base12@2@@std@@YAXAEAU_Container_proxy@0@$$QEAPEAU_Container_base12@0@@Z
pdata	ENDS
;	COMDAT pdata
pdata	SEGMENT
$pdata$?_Release@_Basic_container_proxy_ptr12@std@@QEAAXXZ DD imagerel $LN3
	DD	imagerel $LN3+79
	DD	imagerel $unwind$?_Release@_Basic_container_proxy_ptr12@std@@QEAAXXZ
pdata	ENDS
;	COMDAT pdata
pdata	SEGMENT
$pdata$??$addressof@U_Container_base12@std@@@std@@YAPEAU_Container_base12@0@AEAU10@@Z DD imagerel $LN3
	DD	imagerel $LN3+72
	DD	imagerel $unwind$??$addressof@U_Container_base12@std@@@std@@YAPEAU_Container_base12@0@AEAU10@@Z
pdata	ENDS
;	COMDAT pdata
pdata	SEGMENT
$pdata$?length@?$_Narrow_char_traits@DH@std@@SA_KQEBD@Z DD imagerel $LN4
	DD	imagerel $LN4+124
	DD	imagerel $unwind$?length@?$_Narrow_char_traits@DH@std@@SA_KQEBD@Z
pdata	ENDS
;	COMDAT pdata
pdata	SEGMENT
$pdata$?eq_int_type@?$_Narrow_char_traits@DH@std@@SA_NAEBH0@Z DD imagerel $LN5
	DD	imagerel $LN5+119
	DD	imagerel $unwind$?eq_int_type@?$_Narrow_char_traits@DH@std@@SA_NAEBH0@Z
pdata	ENDS
;	COMDAT pdata
pdata	SEGMENT
$pdata$?eof@?$_Narrow_char_traits@DH@std@@SAHXZ DD imagerel $LN3
	DD	imagerel $LN3+58
	DD	imagerel $unwind$?eof@?$_Narrow_char_traits@DH@std@@SAHXZ
pdata	ENDS
;	COMDAT pdata
pdata	SEGMENT
$pdata$??$_Min_value@_K@std@@YAAEB_KAEB_K0@Z DD imagerel $LN5
	DD	imagerel $LN5+143
	DD	imagerel $unwind$??$_Min_value@_K@std@@YAAEB_KAEB_K0@Z
pdata	ENDS
;	COMDAT pdata
pdata	SEGMENT
$pdata$?objector_run@@YAXXZ DD imagerel $LN9
	DD	imagerel $LN9+259
	DD	imagerel $unwind$?objector_run@@YAXXZ
pdata	ENDS
;	COMDAT pdata
pdata	SEGMENT
$pdata$?dtor$0@?0??objector_run@@YAXXZ@4HA DD imagerel ?dtor$0@?0??objector_run@@YAXXZ@4HA
	DD	imagerel ?dtor$0@?0??objector_run@@YAXXZ@4HA+36
	DD	imagerel $unwind$?dtor$0@?0??objector_run@@YAXXZ@4HA
pdata	ENDS
;	COMDAT pdata
pdata	SEGMENT
$pdata$??1Objector@@UEAA@XZ DD imagerel $LN3
	DD	imagerel $LN3+82
	DD	imagerel $unwind$??1Objector@@UEAA@XZ
pdata	ENDS
;	COMDAT pdata
pdata	SEGMENT
$pdata$?Update@Objector@@UEAAXQEAVSubject@@@Z DD imagerel $LN3
	DD	imagerel $LN3+115
	DD	imagerel $unwind$?Update@Objector@@UEAAXQEAVSubject@@@Z
pdata	ENDS
;	COMDAT pdata
pdata	SEGMENT
$pdata$??0Objector@@QEAA@XZ DD imagerel $LN3
	DD	imagerel $LN3+74
	DD	imagerel $unwind$??0Objector@@QEAA@XZ
pdata	ENDS
;	COMDAT pdata
pdata	SEGMENT
$pdata$??_GObjector@@UEAAPEAXI@Z DD imagerel $LN4
	DD	imagerel $LN4+105
	DD	imagerel $unwind$??_GObjector@@UEAAPEAXI@Z
pdata	ENDS
;	COMDAT pdata
pdata	SEGMENT
$pdata$??0Subject@@QEAA@XZ DD imagerel $LN4
	DD	imagerel $LN4+107
	DD	imagerel $unwind$??0Subject@@QEAA@XZ
pdata	ENDS
;	COMDAT pdata
pdata	SEGMENT
$pdata$??1Subject@@UEAA@XZ DD imagerel $LN3
	DD	imagerel $LN3+102
	DD	imagerel $unwind$??1Subject@@UEAA@XZ
pdata	ENDS
;	COMDAT pdata
pdata	SEGMENT
$pdata$?Attach@Subject@@UEAAXPEAVObjector@@@Z DD imagerel $LN3
	DD	imagerel $LN3+106
	DD	imagerel $unwind$?Attach@Subject@@UEAAXPEAVObjector@@@Z
pdata	ENDS
;	COMDAT pdata
pdata	SEGMENT
$pdata$?Detach@Subject@@UEAAXPEAVObjector@@@Z DD imagerel $LN3
	DD	imagerel $LN3+106
	DD	imagerel $unwind$?Detach@Subject@@UEAAXPEAVObjector@@@Z
pdata	ENDS
;	COMDAT pdata
pdata	SEGMENT
$pdata$?Notify@Subject@@UEAAXXZ DD imagerel $LN6
	DD	imagerel $LN6+265
	DD	imagerel $unwind$?Notify@Subject@@UEAAXXZ
pdata	ENDS
;	COMDAT pdata
pdata	SEGMENT
$pdata$??0?$allocator@U?$_List_node@PEAVObjector@@PEAX@std@@@std@@QEAA@XZ DD imagerel $LN3
	DD	imagerel $LN3+72
	DD	imagerel $unwind$??0?$allocator@U?$_List_node@PEAVObjector@@PEAX@std@@@std@@QEAA@XZ
pdata	ENDS
;	COMDAT pdata
pdata	SEGMENT
$pdata$?deallocate@?$allocator@U?$_List_node@PEAVObjector@@PEAX@std@@@std@@QEAAXQEAU?$_List_node@PEAVObjector@@PEAX@2@_K@Z DD imagerel $LN3
	DD	imagerel $LN3+97
	DD	imagerel $unwind$?deallocate@?$allocator@U?$_List_node@PEAVObjector@@PEAX@std@@@std@@QEAAXQEAU?$_List_node@PEAVObjector@@PEAX@2@_K@Z
pdata	ENDS
;	COMDAT pdata
pdata	SEGMENT
$pdata$?allocate@?$allocator@U?$_List_node@PEAVObjector@@PEAX@std@@@std@@QEAAPEAU?$_List_node@PEAVObjector@@PEAX@2@_K@Z DD imagerel $LN3
	DD	imagerel $LN3+89
	DD	imagerel $unwind$?allocate@?$allocator@U?$_List_node@PEAVObjector@@PEAX@std@@@std@@QEAAPEAU?$_List_node@PEAVObjector@@PEAX@2@_K@Z
pdata	ENDS
;	COMDAT pdata
pdata	SEGMENT
$pdata$?deallocate@?$_Default_allocator_traits@V?$allocator@U?$_List_node@PEAVObjector@@PEAX@std@@@std@@@std@@SAXAEAV?$allocator@U?$_List_node@PEAVObjector@@PEAX@std@@@2@QEAU?$_List_node@PEAVObjector@@PEAX@2@_K@Z DD imagerel $LN3
	DD	imagerel $LN3+97
	DD	imagerel $unwind$?deallocate@?$_Default_allocator_traits@V?$allocator@U?$_List_node@PEAVObjector@@PEAX@std@@@std@@@std@@SAXAEAV?$allocator@U?$_List_node@PEAVObjector@@PEAX@std@@@2@QEAU?$_List_node@PEAVObjector@@PEAX@2@_K@Z
pdata	ENDS
;	COMDAT pdata
pdata	SEGMENT
$pdata$?max_size@?$_Default_allocator_traits@V?$allocator@U?$_List_node@PEAVObjector@@PEAX@std@@@std@@@std@@SA_KAEBV?$allocator@U?$_List_node@PEAVObjector@@PEAX@std@@@2@@Z DD imagerel $LN3
	DD	imagerel $LN3+75
	DD	imagerel $unwind$?max_size@?$_Default_allocator_traits@V?$allocator@U?$_List_node@PEAVObjector@@PEAX@std@@@std@@@std@@SA_KAEBV?$allocator@U?$_List_node@PEAVObjector@@PEAX@std@@@2@@Z
pdata	ENDS
;	COMDAT pdata
pdata	SEGMENT
$pdata$??0?$list@PEAVObjector@@V?$allocator@PEAVObjector@@@std@@@std@@QEAA@XZ DD imagerel $LN3
	DD	imagerel $LN3+116
	DD	imagerel $unwind$??0?$list@PEAVObjector@@V?$allocator@PEAVObjector@@@std@@@std@@QEAA@XZ
pdata	ENDS
;	COMDAT pdata
pdata	SEGMENT
$pdata$??1?$list@PEAVObjector@@V?$allocator@PEAVObjector@@@std@@@std@@QEAA@XZ DD imagerel $LN3
	DD	imagerel $LN3+182
	DD	imagerel $unwind$??1?$list@PEAVObjector@@V?$allocator@PEAVObjector@@@std@@@std@@QEAA@XZ
pdata	ENDS
;	COMDAT pdata
pdata	SEGMENT
$pdata$?_Unchecked_begin@?$list@PEAVObjector@@V?$allocator@PEAVObjector@@@std@@@std@@QEAA?AV?$_List_unchecked_iterator@V?$_List_val@U?$_List_simple_types@PEAVObjector@@@std@@@std@@@2@XZ DD imagerel $LN3
	DD	imagerel $LN3+105
	DD	imagerel $unwind$?_Unchecked_begin@?$list@PEAVObjector@@V?$allocator@PEAVObjector@@@std@@@std@@QEAA?AV?$_List_unchecked_iterator@V?$_List_val@U?$_List_simple_types@PEAVObjector@@@std@@@std@@@2@XZ
pdata	ENDS
;	COMDAT pdata
pdata	SEGMENT
$pdata$?_Unchecked_end@?$list@PEAVObjector@@V?$allocator@PEAVObjector@@@std@@@std@@QEAA?AV?$_List_unchecked_iterator@V?$_List_val@U?$_List_simple_types@PEAVObjector@@@std@@@std@@@2@XZ DD imagerel $LN3
	DD	imagerel $LN3+102
	DD	imagerel $unwind$?_Unchecked_end@?$list@PEAVObjector@@V?$allocator@PEAVObjector@@@std@@@std@@QEAA?AV?$_List_unchecked_iterator@V?$_List_val@U?$_List_simple_types@PEAVObjector@@@std@@@std@@@2@XZ
pdata	ENDS
;	COMDAT pdata
pdata	SEGMENT
$pdata$?max_size@?$list@PEAVObjector@@V?$allocator@PEAVObjector@@@std@@@std@@QEBA_KXZ DD imagerel $LN3
	DD	imagerel $LN3+130
	DD	imagerel $unwind$?max_size@?$list@PEAVObjector@@V?$allocator@PEAVObjector@@@std@@@std@@QEBA_KXZ
pdata	ENDS
;	COMDAT pdata
pdata	SEGMENT
$pdata$?push_back@?$list@PEAVObjector@@V?$allocator@PEAVObjector@@@std@@@std@@QEAAXAEBQEAVObjector@@@Z DD imagerel $LN3
	DD	imagerel $LN3+99
	DD	imagerel $unwind$?push_back@?$list@PEAVObjector@@V?$allocator@PEAVObjector@@@std@@@std@@QEAAXAEBQEAVObjector@@@Z
pdata	ENDS
;	COMDAT pdata
pdata	SEGMENT
$pdata$?_Tidy@?$list@PEAVObjector@@V?$allocator@PEAVObjector@@@std@@@std@@AEAAXXZ DD imagerel $LN3
	DD	imagerel $LN3+139
	DD	imagerel $unwind$?_Tidy@?$list@PEAVObjector@@V?$allocator@PEAVObjector@@@std@@@std@@AEAAXXZ
pdata	ENDS
;	COMDAT pdata
pdata	SEGMENT
$pdata$?remove@?$list@PEAVObjector@@V?$allocator@PEAVObjector@@@std@@@std@@QEAA@AEBQEAVObjector@@@Z DD imagerel $LN3
	DD	imagerel $LN3+103
	DD	imagerel $unwind$?remove@?$list@PEAVObjector@@V?$allocator@PEAVObjector@@@std@@@std@@QEAA@AEBQEAVObjector@@@Z
pdata	ENDS
;	COMDAT pdata
pdata	SEGMENT
$pdata$?_Alloc_sentinel_and_proxy@?$list@PEAVObjector@@V?$allocator@PEAVObjector@@@std@@@std@@AEAAXXZ DD imagerel $LN4
	DD	imagerel $LN4+290
	DD	imagerel $unwind$?_Alloc_sentinel_and_proxy@?$list@PEAVObjector@@V?$allocator@PEAVObjector@@@std@@@std@@AEAAXXZ
pdata	ENDS
;	COMDAT pdata
pdata	SEGMENT
$pdata$?dtor$0@?0??_Alloc_sentinel_and_proxy@?$list@PEAVObjector@@V?$allocator@PEAVObjector@@@std@@@std@@AEAAXXZ@4HA DD imagerel ?dtor$0@?0??_Alloc_sentinel_and_proxy@?$list@PEAVObjector@@V?$allocator@PEAVObjector@@@std@@@std@@AEAAXXZ@4HA
	DD	imagerel ?dtor$0@?0??_Alloc_sentinel_and_proxy@?$list@PEAVObjector@@V?$allocator@PEAVObjector@@@std@@@std@@AEAAXXZ@4HA+36
	DD	imagerel $unwind$?dtor$0@?0??_Alloc_sentinel_and_proxy@?$list@PEAVObjector@@V?$allocator@PEAVObjector@@@std@@@std@@AEAAXXZ@4HA
pdata	ENDS
;	COMDAT pdata
pdata	SEGMENT
$pdata$?_Getal@?$list@PEAVObjector@@V?$allocator@PEAVObjector@@@std@@@std@@AEAAAEAV?$allocator@U?$_List_node@PEAVObjector@@PEAX@std@@@2@XZ DD imagerel $LN3
	DD	imagerel $LN3+81
	DD	imagerel $unwind$?_Getal@?$list@PEAVObjector@@V?$allocator@PEAVObjector@@@std@@@std@@AEAAAEAV?$allocator@U?$_List_node@PEAVObjector@@PEAX@std@@@2@XZ
pdata	ENDS
;	COMDAT pdata
pdata	SEGMENT
$pdata$?_Getal@?$list@PEAVObjector@@V?$allocator@PEAVObjector@@@std@@@std@@AEBAAEBV?$allocator@U?$_List_node@PEAVObjector@@PEAX@std@@@2@XZ DD imagerel $LN3
	DD	imagerel $LN3+81
	DD	imagerel $unwind$?_Getal@?$list@PEAVObjector@@V?$allocator@PEAVObjector@@@std@@@std@@AEBAAEBV?$allocator@U?$_List_node@PEAVObjector@@PEAX@std@@@2@XZ
pdata	ENDS
;	COMDAT pdata
pdata	SEGMENT
$pdata$??0?$_List_val@U?$_List_simple_types@PEAVObjector@@@std@@@std@@QEAA@XZ DD imagerel $LN3
	DD	imagerel $LN3+113
	DD	imagerel $unwind$??0?$_List_val@U?$_List_simple_types@PEAVObjector@@@std@@@std@@QEAA@XZ
pdata	ENDS
;	COMDAT pdata
pdata	SEGMENT
$pdata$?_Orphan_ptr2@?$_List_val@U?$_List_simple_types@PEAVObjector@@@std@@@std@@QEAAXPEAU?$_List_node@PEAVObjector@@PEAX@2@@Z DD imagerel $LN8
	DD	imagerel $LN8+292
	DD	imagerel $unwind$?_Orphan_ptr2@?$_List_val@U?$_List_simple_types@PEAVObjector@@@std@@@std@@QEAAXPEAU?$_List_node@PEAVObjector@@PEAX@2@@Z
pdata	ENDS
;	COMDAT pdata
pdata	SEGMENT
$pdata$?_Get_first@?$_Compressed_pair@V?$allocator@U?$_List_node@PEAVObjector@@PEAX@std@@@std@@V?$_List_val@U?$_List_simple_types@PEAVObjector@@@std@@@2@$00@std@@QEAAAEAV?$allocator@U?$_List_node@PEAVObjector@@PEAX@std@@@2@XZ DD imagerel $LN3
	DD	imagerel $LN3+72
	DD	imagerel $unwind$?_Get_first@?$_Compressed_pair@V?$allocator@U?$_List_node@PEAVObjector@@PEAX@std@@@std@@V?$_List_val@U?$_List_simple_types@PEAVObjector@@@std@@@2@$00@std@@QEAAAEAV?$allocator@U?$_List_node@PEAVObjector@@PEAX@std@@@2@XZ
pdata	ENDS
;	COMDAT pdata
pdata	SEGMENT
$pdata$?_Get_first@?$_Compressed_pair@V?$allocator@U?$_List_node@PEAVObjector@@PEAX@std@@@std@@V?$_List_val@U?$_List_simple_types@PEAVObjector@@@std@@@2@$00@std@@QEBAAEBV?$allocator@U?$_List_node@PEAVObjector@@PEAX@std@@@2@XZ DD imagerel $LN3
	DD	imagerel $LN3+72
	DD	imagerel $unwind$?_Get_first@?$_Compressed_pair@V?$allocator@U?$_List_node@PEAVObjector@@PEAX@std@@@std@@V?$_List_val@U?$_List_simple_types@PEAVObjector@@@std@@@2@$00@std@@QEBAAEBV?$allocator@U?$_List_node@PEAVObjector@@PEAX@std@@@2@XZ
pdata	ENDS
;	COMDAT pdata
pdata	SEGMENT
$pdata$?__autoclassinit2@Subject@@QEAAX_K@Z DD imagerel $LN3
	DD	imagerel $LN3+73
	DD	imagerel $unwind$?__autoclassinit2@Subject@@QEAAX_K@Z
pdata	ENDS
;	COMDAT pdata
pdata	SEGMENT
$pdata$??_GSubject@@UEAAPEAXI@Z DD imagerel $LN4
	DD	imagerel $LN4+105
	DD	imagerel $unwind$??_GSubject@@UEAAPEAXI@Z
pdata	ENDS
;	COMDAT pdata
pdata	SEGMENT
$pdata$??R<lambda_1>@?1??remove@?$list@PEAVObjector@@V?$allocator@PEAVObjector@@@std@@@std@@QEAA@AEBQEAVObjector@@@Z@QEBA@0@Z DD imagerel $LN5
	DD	imagerel $LN5+123
	DD	imagerel $unwind$??R<lambda_1>@?1??remove@?$list@PEAVObjector@@V?$allocator@PEAVObjector@@@std@@@std@@QEAA@AEBQEAVObjector@@@Z@QEBA@0@Z
pdata	ENDS
;	COMDAT pdata
pdata	SEGMENT
$pdata$??0<lambda_1>@?1??remove@?$list@PEAVObjector@@V?$allocator@PEAVObjector@@@std@@@std@@QEAA@AEBQEAVObjector@@@Z@QEAA@0@Z DD imagerel $LN3
	DD	imagerel $LN3+93
	DD	imagerel $unwind$??0<lambda_1>@?1??remove@?$list@PEAVObjector@@V?$allocator@PEAVObjector@@@std@@@std@@QEAA@AEBQEAVObjector@@@Z@QEAA@0@Z
pdata	ENDS
;	COMDAT pdata
pdata	SEGMENT
$pdata$??$remove_if@V<lambda_1>@?1??remove@?$list@PEAVObjector@@V?$allocator@PEAVObjector@@@std@@@std@@QEAA@AEBQEAVObjector@@@Z@@?$list@PEAVObjector@@V?$allocator@PEAVObjector@@@std@@@std@@QEAA@V<lambda_1>@?1??remove@01@QEAA@AEBQEAVObjector@@@Z@@Z DD imagerel $LN8
	DD	imagerel $LN8+325
	DD	imagerel $unwind$??$remove_if@V<lambda_1>@?1??remove@?$list@PEAVObjector@@V?$allocator@PEAVObjector@@@std@@@std@@QEAA@AEBQEAVObjector@@@Z@@?$list@PEAVObjector@@V?$allocator@PEAVObjector@@@std@@@std@@QEAA@V<lambda_1>@?1??remove@01@QEAA@AEBQEAVObjector@@@Z@@Z
pdata	ENDS
;	COMDAT pdata
pdata	SEGMENT
$pdata$?dtor$0@?0???$remove_if@V<lambda_1>@?1??remove@?$list@PEAVObjector@@V?$allocator@PEAVObjector@@@std@@@std@@QEAA@AEBQEAVObjector@@@Z@@?$list@PEAVObjector@@V?$allocator@PEAVObjector@@@std@@@std@@QEAA@V<lambda_1>@?1??remove@01@QEAA@AEBQEAVObjector@@@Z@@Z@4HA DD imagerel ?dtor$0@?0???$remove_if@V<lambda_1>@?1??remove@?$list@PEAVObjector@@V?$allocator@PEAVObjector@@@std@@@std@@QEAA@AEBQEAVObjector@@@Z@@?$list@PEAVObjector@@V?$allocator@PEAVObjector@@@std@@@std@@QEAA@V<lambda_1>@?1??remove@01@QEAA@AEBQEAVObjector@@@Z@@Z@4HA
	DD	imagerel ?dtor$0@?0???$remove_if@V<lambda_1>@?1??remove@?$list@PEAVObjector@@V?$allocator@PEAVObjector@@@std@@@std@@QEAA@AEBQEAVObjector@@@Z@@?$list@PEAVObjector@@V?$allocator@PEAVObjector@@@std@@@std@@QEAA@V<lambda_1>@?1??remove@01@QEAA@AEBQEAVObjector@@@Z@@Z@4HA+36
	DD	imagerel $unwind$?dtor$0@?0???$remove_if@V<lambda_1>@?1??remove@?$list@PEAVObjector@@V?$allocator@PEAVObjector@@@std@@@std@@QEAA@AEBQEAVObjector@@@Z@@?$list@PEAVObjector@@V?$allocator@PEAVObjector@@@std@@@std@@QEAA@V<lambda_1>@?1??remove@01@QEAA@AEBQEAVObjector@@@Z@@Z@4HA
pdata	ENDS
;	COMDAT pdata
pdata	SEGMENT
$pdata$??0_List_node_remove_op@?$list@PEAVObjector@@V?$allocator@PEAVObjector@@@std@@@std@@QEAA@AEAV12@@Z DD imagerel $LN3
	DD	imagerel $LN3+140
	DD	imagerel $unwind$??0_List_node_remove_op@?$list@PEAVObjector@@V?$allocator@PEAVObjector@@@std@@@std@@QEAA@AEAV12@@Z
pdata	ENDS
;	COMDAT pdata
pdata	SEGMENT
$pdata$?_Transfer_back@_List_node_remove_op@?$list@PEAVObjector@@V?$allocator@PEAVObjector@@@std@@@std@@QEAAPEAU?$_List_node@PEAVObjector@@PEAX@3@QEAU43@@Z DD imagerel $LN3
	DD	imagerel $LN3+244
	DD	imagerel $unwind$?_Transfer_back@_List_node_remove_op@?$list@PEAVObjector@@V?$allocator@PEAVObjector@@@std@@@std@@QEAAPEAU?$_List_node@PEAVObjector@@PEAX@3@QEAU43@@Z
pdata	ENDS
;	COMDAT pdata
pdata	SEGMENT
$pdata$??1_List_node_remove_op@?$list@PEAVObjector@@V?$allocator@PEAVObjector@@@std@@@std@@QEAA@XZ DD imagerel $LN9
	DD	imagerel $LN9+503
	DD	imagerel $unwind$??1_List_node_remove_op@?$list@PEAVObjector@@V?$allocator@PEAVObjector@@@std@@@std@@QEAA@XZ
pdata	ENDS
;	COMDAT pdata
pdata	SEGMENT
$pdata$??0?$_List_unchecked_const_iterator@V?$_List_val@U?$_List_simple_types@PEAVObjector@@@std@@@std@@U_Iterator_base0@2@@std@@QEAA@PEAU?$_List_node@PEAVObjector@@PEAX@1@PEBV?$_List_val@U?$_List_simple_types@PEAVObjector@@@std@@@1@@Z DD imagerel $LN3
	DD	imagerel $LN3+117
	DD	imagerel $unwind$??0?$_List_unchecked_const_iterator@V?$_List_val@U?$_List_simple_types@PEAVObjector@@@std@@@std@@U_Iterator_base0@2@@std@@QEAA@PEAU?$_List_node@PEAVObjector@@PEAX@1@PEBV?$_List_val@U?$_List_simple_types@PEAVObjector@@@std@@@1@@Z
pdata	ENDS
;	COMDAT pdata
pdata	SEGMENT
$pdata$??D?$_List_unchecked_const_iterator@V?$_List_val@U?$_List_simple_types@PEAVObjector@@@std@@@std@@U_Iterator_base0@2@@std@@QEBAAEBQEAVObjector@@XZ DD imagerel $LN3
	DD	imagerel $LN3+78
	DD	imagerel $unwind$??D?$_List_unchecked_const_iterator@V?$_List_val@U?$_List_simple_types@PEAVObjector@@@std@@@std@@U_Iterator_base0@2@@std@@QEBAAEBQEAVObjector@@XZ
pdata	ENDS
;	COMDAT pdata
pdata	SEGMENT
$pdata$??E?$_List_unchecked_const_iterator@V?$_List_val@U?$_List_simple_types@PEAVObjector@@@std@@@std@@U_Iterator_base0@2@@std@@QEAAAEAV01@XZ DD imagerel $LN3
	DD	imagerel $LN3+94
	DD	imagerel $unwind$??E?$_List_unchecked_const_iterator@V?$_List_val@U?$_List_simple_types@PEAVObjector@@@std@@@std@@U_Iterator_base0@2@@std@@QEAAAEAV01@XZ
pdata	ENDS
;	COMDAT pdata
pdata	SEGMENT
$pdata$??8?$_List_unchecked_const_iterator@V?$_List_val@U?$_List_simple_types@PEAVObjector@@@std@@@std@@U_Iterator_base0@2@@std@@QEBA_NAEBV01@@Z DD imagerel $LN5
	DD	imagerel $LN5+120
	DD	imagerel $unwind$??8?$_List_unchecked_const_iterator@V?$_List_val@U?$_List_simple_types@PEAVObjector@@@std@@@std@@U_Iterator_base0@2@@std@@QEBA_NAEBV01@@Z
pdata	ENDS
;	COMDAT pdata
pdata	SEGMENT
$pdata$??9?$_List_unchecked_const_iterator@V?$_List_val@U?$_List_simple_types@PEAVObjector@@@std@@@std@@U_Iterator_base0@2@@std@@QEBA_NAEBV01@@Z DD imagerel $LN5
	DD	imagerel $LN5+124
	DD	imagerel $unwind$??9?$_List_unchecked_const_iterator@V?$_List_val@U?$_List_simple_types@PEAVObjector@@@std@@@std@@U_Iterator_base0@2@@std@@QEBA_NAEBV01@@Z
pdata	ENDS
;	COMDAT pdata
pdata	SEGMENT
$pdata$??0?$_List_unchecked_iterator@V?$_List_val@U?$_List_simple_types@PEAVObjector@@@std@@@std@@@std@@QEAA@PEAU?$_List_node@PEAVObjector@@PEAX@1@PEBV?$_List_val@U?$_List_simple_types@PEAVObjector@@@std@@@1@@Z DD imagerel $LN3
	DD	imagerel $LN3+107
	DD	imagerel $unwind$??0?$_List_unchecked_iterator@V?$_List_val@U?$_List_simple_types@PEAVObjector@@@std@@@std@@@std@@QEAA@PEAU?$_List_node@PEAVObjector@@PEAX@1@PEBV?$_List_val@U?$_List_simple_types@PEAVObjector@@@std@@@1@@Z
pdata	ENDS
;	COMDAT pdata
pdata	SEGMENT
$pdata$??D?$_List_unchecked_iterator@V?$_List_val@U?$_List_simple_types@PEAVObjector@@@std@@@std@@@std@@QEBAAEAPEAVObjector@@XZ DD imagerel $LN3
	DD	imagerel $LN3+76
	DD	imagerel $unwind$??D?$_List_unchecked_iterator@V?$_List_val@U?$_List_simple_types@PEAVObjector@@@std@@@std@@@std@@QEBAAEAPEAVObjector@@XZ
pdata	ENDS
;	COMDAT pdata
pdata	SEGMENT
$pdata$??E?$_List_unchecked_iterator@V?$_List_val@U?$_List_simple_types@PEAVObjector@@@std@@@std@@@std@@QEAAAEAV01@XZ DD imagerel $LN3
	DD	imagerel $LN3+83
	DD	imagerel $unwind$??E?$_List_unchecked_iterator@V?$_List_val@U?$_List_simple_types@PEAVObjector@@@std@@@std@@@std@@QEAAAEAV01@XZ
pdata	ENDS
;	COMDAT pdata
pdata	SEGMENT
$pdata$?__autoclassinit2@?$_List_unchecked_iterator@V?$_List_val@U?$_List_simple_types@PEAVObjector@@@std@@@std@@@std@@QEAAX_K@Z DD imagerel $LN3
	DD	imagerel $LN3+73
	DD	imagerel $unwind$?__autoclassinit2@?$_List_unchecked_iterator@V?$_List_val@U?$_List_simple_types@PEAVObjector@@@std@@@std@@@std@@QEAAX_K@Z
pdata	ENDS
;	COMDAT pdata
pdata	SEGMENT
$pdata$??$?6U?$char_traits@D@std@@@std@@YAAEAV?$basic_ostream@DU?$char_traits@D@std@@@0@AEAV10@PEBD@Z DD imagerel $LN25
	DD	imagerel $LN25+1124
	DD	imagerel $unwind$??$?6U?$char_traits@D@std@@@std@@YAAEAV?$basic_ostream@DU?$char_traits@D@std@@@0@AEAV10@PEBD@Z
pdata	ENDS
;	COMDAT pdata
pdata	SEGMENT
$pdata$?dtor$0@?0???$?6U?$char_traits@D@std@@@std@@YAAEAV?$basic_ostream@DU?$char_traits@D@std@@@0@AEAV10@PEBD@Z@4HA DD imagerel ?dtor$0@?0???$?6U?$char_traits@D@std@@@std@@YAAEAV?$basic_ostream@DU?$char_traits@D@std@@@0@AEAV10@PEBD@Z@4HA
	DD	imagerel ?dtor$0@?0???$?6U?$char_traits@D@std@@@std@@YAAEAV?$basic_ostream@DU?$char_traits@D@std@@@0@AEAV10@PEBD@Z@4HA+36
	DD	imagerel $unwind$?dtor$0@?0???$?6U?$char_traits@D@std@@@std@@YAAEAV?$basic_ostream@DU?$char_traits@D@std@@@0@AEAV10@PEBD@Z@4HA
pdata	ENDS
;	COMDAT pdata
pdata	SEGMENT
$pdata$?catch$1@?0???$?6U?$char_traits@D@std@@@std@@YAAEAV?$basic_ostream@DU?$char_traits@D@std@@@0@AEAV10@PEBD@Z@4HA DD imagerel ?catch$1@?0???$?6U?$char_traits@D@std@@@std@@YAAEAV?$basic_ostream@DU?$char_traits@D@std@@@0@AEAV10@PEBD@Z@4HA
	DD	imagerel ?catch$1@?0???$?6U?$char_traits@D@std@@@std@@YAAEAV?$basic_ostream@DU?$char_traits@D@std@@@0@AEAV10@PEBD@Z@4HA+91
	DD	imagerel $unwind$?catch$1@?0???$?6U?$char_traits@D@std@@@std@@YAAEAV?$basic_ostream@DU?$char_traits@D@std@@@0@AEAV10@PEBD@Z@4HA
pdata	ENDS
;	COMDAT pdata
pdata	SEGMENT
$pdata$??$endl@DU?$char_traits@D@std@@@std@@YAAEAV?$basic_ostream@DU?$char_traits@D@std@@@0@AEAV10@@Z DD imagerel $LN3
	DD	imagerel $LN3+149
	DD	imagerel $unwind$??$endl@DU?$char_traits@D@std@@@std@@YAAEAV?$basic_ostream@DU?$char_traits@D@std@@@0@AEAV10@@Z
pdata	ENDS
;	COMDAT pdata
pdata	SEGMENT
$pdata$??$addressof@PEAU?$_List_node@PEAVObjector@@PEAX@std@@@std@@YAPEAPEAU?$_List_node@PEAVObjector@@PEAX@0@AEAPEAU10@@Z DD imagerel $LN3
	DD	imagerel $LN3+72
	DD	imagerel $unwind$??$addressof@PEAU?$_List_node@PEAVObjector@@PEAX@std@@@std@@YAPEAPEAU?$_List_node@PEAVObjector@@PEAX@0@AEAPEAU10@@Z
pdata	ENDS
;	COMDAT pdata
pdata	SEGMENT
$pdata$??$destroy@PEAU?$_List_node@PEAVObjector@@PEAX@std@@@?$_Default_allocator_traits@V?$allocator@U?$_List_node@PEAVObjector@@PEAX@std@@@std@@@std@@SAXAEAV?$allocator@U?$_List_node@PEAVObjector@@PEAX@std@@@1@QEAPEAU?$_List_node@PEAVObjector@@PEAX@1@@Z DD imagerel $LN3
	DD	imagerel $LN3+69
	DD	imagerel $unwind$??$destroy@PEAU?$_List_node@PEAVObjector@@PEAX@std@@@?$_Default_allocator_traits@V?$allocator@U?$_List_node@PEAVObjector@@PEAX@std@@@std@@@std@@SAXAEAV?$allocator@U?$_List_node@PEAVObjector@@PEAX@std@@@1@QEAPEAU?$_List_node@PEAVObjector@@PEAX@1@@Z
pdata	ENDS
;	COMDAT pdata
pdata	SEGMENT
$pdata$??$addressof@PEAVObjector@@@std@@YAPEAPEAVObjector@@AEAPEAV1@@Z DD imagerel $LN3
	DD	imagerel $LN3+72
	DD	imagerel $unwind$??$addressof@PEAVObjector@@@std@@YAPEAPEAVObjector@@AEAPEAV1@@Z
pdata	ENDS
;	COMDAT pdata
pdata	SEGMENT
$pdata$??$destroy@PEAVObjector@@@?$_Default_allocator_traits@V?$allocator@U?$_List_node@PEAVObjector@@PEAX@std@@@std@@@std@@SAXAEAV?$allocator@U?$_List_node@PEAVObjector@@PEAX@std@@@1@QEAPEAVObjector@@@Z DD imagerel $LN3
	DD	imagerel $LN3+69
	DD	imagerel $unwind$??$destroy@PEAVObjector@@@?$_Default_allocator_traits@V?$allocator@U?$_List_node@PEAVObjector@@PEAX@std@@@std@@@std@@SAXAEAV?$allocator@U?$_List_node@PEAVObjector@@PEAX@std@@@1@QEAPEAVObjector@@@Z
pdata	ENDS
;	COMDAT pdata
pdata	SEGMENT
$pdata$??$exchange@PEAU?$_List_node@PEAVObjector@@PEAX@std@@PEAU12@@std@@YAPEAU?$_List_node@PEAVObjector@@PEAX@0@AEAPEAU10@$$QEAPEAU10@@Z DD imagerel $LN3
	DD	imagerel $LN3+107
	DD	imagerel $unwind$??$exchange@PEAU?$_List_node@PEAVObjector@@PEAX@std@@PEAU12@@std@@YAPEAU?$_List_node@PEAVObjector@@PEAX@0@AEAPEAU10@$$QEAPEAU10@@Z
pdata	ENDS
;	COMDAT pdata
pdata	SEGMENT
$pdata$??$_Emplace@AEBQEAVObjector@@@?$list@PEAVObjector@@V?$allocator@PEAVObjector@@@std@@@std@@QEAAPEAU?$_List_node@PEAVObjector@@PEAX@1@QEAU21@AEBQEAVObjector@@@Z DD imagerel $LN5
	DD	imagerel $LN5+293
	DD	imagerel $unwind$??$_Emplace@AEBQEAVObjector@@@?$list@PEAVObjector@@V?$allocator@PEAVObjector@@@std@@@std@@QEAAPEAU?$_List_node@PEAVObjector@@PEAX@1@QEAU21@AEBQEAVObjector@@@Z
pdata	ENDS
;	COMDAT pdata
pdata	SEGMENT
$pdata$?allocate@?$allocator@U_Container_proxy@std@@@std@@QEAAPEAU_Container_proxy@2@_K@Z DD imagerel $LN3
	DD	imagerel $LN3+89
	DD	imagerel $unwind$?allocate@?$allocator@U_Container_proxy@std@@@std@@QEAAPEAU_Container_proxy@2@_K@Z
pdata	ENDS
;	COMDAT pdata
pdata	SEGMENT
$pdata$??$?0U?$_List_node@PEAVObjector@@PEAX@std@@@?$allocator@U_Container_proxy@std@@@std@@QEAA@AEBV?$allocator@U?$_List_node@PEAVObjector@@PEAX@std@@@1@@Z DD imagerel $LN3
	DD	imagerel $LN3+77
	DD	imagerel $unwind$??$?0U?$_List_node@PEAVObjector@@PEAX@std@@@?$allocator@U_Container_proxy@std@@@std@@QEAA@AEBV?$allocator@U?$_List_node@PEAVObjector@@PEAX@std@@@1@@Z
pdata	ENDS
;	COMDAT pdata
pdata	SEGMENT
$pdata$??$_Delete_plain_internal@V?$allocator@U_Container_proxy@std@@@std@@@std@@YAXAEAV?$allocator@U_Container_proxy@std@@@0@QEAU_Container_proxy@0@@Z DD imagerel $LN3
	DD	imagerel $LN3+90
	DD	imagerel $unwind$??$_Delete_plain_internal@V?$allocator@U_Container_proxy@std@@@std@@@std@@YAXAEAV?$allocator@U_Container_proxy@std@@@0@QEAU_Container_proxy@0@@Z
pdata	ENDS
;	COMDAT pdata
pdata	SEGMENT
$pdata$??$?0$$V@?$_Compressed_pair@V?$allocator@U?$_List_node@PEAVObjector@@PEAX@std@@@std@@V?$_List_val@U?$_List_simple_types@PEAVObjector@@@std@@@2@$00@std@@QEAA@U_Zero_then_variadic_args_t@1@@Z DD imagerel $LN3
	DD	imagerel $LN3+102
	DD	imagerel $unwind$??$?0$$V@?$_Compressed_pair@V?$allocator@U?$_List_node@PEAVObjector@@PEAX@std@@@std@@V?$_List_val@U?$_List_simple_types@PEAVObjector@@@std@@@2@$00@std@@QEAA@U_Zero_then_variadic_args_t@1@@Z
pdata	ENDS
;	COMDAT pdata
pdata	SEGMENT
$pdata$??0?$_Container_proxy_ptr12@V?$allocator@U_Container_proxy@std@@@std@@@std@@QEAA@AEAV?$allocator@U_Container_proxy@std@@@1@AEAU_Container_base12@1@@Z DD imagerel $LN3
	DD	imagerel $LN3+195
	DD	imagerel $unwind$??0?$_Container_proxy_ptr12@V?$allocator@U_Container_proxy@std@@@std@@@std@@QEAA@AEAV?$allocator@U_Container_proxy@std@@@1@AEAU_Container_base12@1@@Z
pdata	ENDS
;	COMDAT pdata
pdata	SEGMENT
$pdata$??1?$_Container_proxy_ptr12@V?$allocator@U_Container_proxy@std@@@std@@@std@@QEAA@XZ DD imagerel $LN4
	DD	imagerel $LN4+105
	DD	imagerel $unwind$??1?$_Container_proxy_ptr12@V?$allocator@U_Container_proxy@std@@@std@@@std@@QEAA@XZ
pdata	ENDS
;	COMDAT pdata
pdata	SEGMENT
$pdata$??$_Unfancy@U_Container_proxy@std@@@std@@YAPEAU_Container_proxy@0@PEAU10@@Z DD imagerel $LN3
	DD	imagerel $LN3+71
	DD	imagerel $unwind$??$_Unfancy@U_Container_proxy@std@@@std@@YAPEAU_Container_proxy@0@PEAU10@@Z
pdata	ENDS
;	COMDAT pdata
pdata	SEGMENT
$pdata$??$_Construct_in_place@PEAU?$_List_node@PEAVObjector@@PEAX@std@@AEAPEAU12@@std@@YAXAEAPEAU?$_List_node@PEAVObjector@@PEAX@0@0@Z DD imagerel $LN3
	DD	imagerel $LN3+130
	DD	imagerel $unwind$??$_Construct_in_place@PEAU?$_List_node@PEAVObjector@@PEAX@std@@AEAPEAU12@@std@@YAXAEAPEAU?$_List_node@PEAVObjector@@PEAX@0@0@Z
pdata	ENDS
;	COMDAT pdata
pdata	SEGMENT
$pdata$??$_Free_non_head@V?$allocator@U?$_List_node@PEAVObjector@@PEAX@std@@@std@@@?$_List_node@PEAVObjector@@PEAX@std@@SAXAEAV?$allocator@U?$_List_node@PEAVObjector@@PEAX@std@@@1@PEAU01@@Z DD imagerel $LN6
	DD	imagerel $LN6+149
	DD	imagerel $unwind$??$_Free_non_head@V?$allocator@U?$_List_node@PEAVObjector@@PEAX@std@@@std@@@?$_List_node@PEAVObjector@@PEAX@std@@SAXAEAV?$allocator@U?$_List_node@PEAVObjector@@PEAX@std@@@1@PEAU01@@Z
pdata	ENDS
;	COMDAT pdata
pdata	SEGMENT
$pdata$??$_Freenode0@V?$allocator@U?$_List_node@PEAVObjector@@PEAX@std@@@std@@@?$_List_node@PEAVObjector@@PEAX@std@@SAXAEAV?$allocator@U?$_List_node@PEAVObjector@@PEAX@std@@@1@PEAU01@@Z DD imagerel $LN3
	DD	imagerel $LN3+132
	DD	imagerel $unwind$??$_Freenode0@V?$allocator@U?$_List_node@PEAVObjector@@PEAX@std@@@std@@@?$_List_node@PEAVObjector@@PEAX@std@@SAXAEAV?$allocator@U?$_List_node@PEAVObjector@@PEAX@std@@@1@PEAU01@@Z
pdata	ENDS
;	COMDAT pdata
pdata	SEGMENT
$pdata$??$_Deallocate@$0BA@$0A@@std@@YAXPEAX_K@Z DD imagerel $LN4
	DD	imagerel $LN4+123
	DD	imagerel $unwind$??$_Deallocate@$0BA@$0A@@std@@YAXPEAX_K@Z
pdata	ENDS
;	COMDAT pdata
pdata	SEGMENT
$pdata$??$_Allocate@$0BA@U_Default_allocate_traits@std@@$0A@@std@@YAPEAX_K@Z DD imagerel $LN5
	DD	imagerel $LN5+117
	DD	imagerel $unwind$??$_Allocate@$0BA@U_Default_allocate_traits@std@@$0A@@std@@YAPEAX_K@Z
pdata	ENDS
;	COMDAT pdata
pdata	SEGMENT
$pdata$??$_Get_size_of_n@$0BA@@std@@YA_K_K@Z DD imagerel $LN4
	DD	imagerel $LN4+114
	DD	imagerel $unwind$??$_Get_size_of_n@$0BA@@std@@YA_K_K@Z
pdata	ENDS
;	COMDAT pdata
pdata	SEGMENT
$pdata$??$_Get_size_of_n@$0BI@@std@@YA_K_K@Z DD imagerel $LN4
	DD	imagerel $LN4+114
	DD	imagerel $unwind$??$_Get_size_of_n@$0BI@@std@@YA_K_K@Z
pdata	ENDS
;	COMDAT pdata
pdata	SEGMENT
$pdata$??$addressof@U_Container_proxy@std@@@std@@YAPEAU_Container_proxy@0@AEAU10@@Z DD imagerel $LN3
	DD	imagerel $LN3+72
	DD	imagerel $unwind$??$addressof@U_Container_proxy@std@@@std@@YAPEAU_Container_proxy@0@AEAU10@@Z
pdata	ENDS
;	COMDAT pdata
pdata	SEGMENT
$pdata$??$forward@PEAU_Container_base12@std@@@std@@YA$$QEAPEAU_Container_base12@0@AEAPEAU10@@Z DD imagerel $LN3
	DD	imagerel $LN3+72
	DD	imagerel $unwind$??$forward@PEAU_Container_base12@std@@@std@@YA$$QEAPEAU_Container_base12@0@AEAPEAU10@@Z
pdata	ENDS
;	COMDAT pdata
pdata	SEGMENT
$pdata$??0_Sentry_base@?$basic_ostream@DU?$char_traits@D@std@@@std@@QEAA@AEAV12@@Z DD imagerel $LN4
	DD	imagerel $LN4+171
	DD	imagerel $unwind$??0_Sentry_base@?$basic_ostream@DU?$char_traits@D@std@@@std@@QEAA@AEAV12@@Z
pdata	ENDS
;	COMDAT pdata
pdata	SEGMENT
$pdata$??1_Sentry_base@?$basic_ostream@DU?$char_traits@D@std@@@std@@QEAA@XZ DD imagerel $LN4
	DD	imagerel $LN4+145
	DD	imagerel $unwind$??1_Sentry_base@?$basic_ostream@DU?$char_traits@D@std@@@std@@QEAA@XZ
pdata	ENDS
;	COMDAT pdata
pdata	SEGMENT
$pdata$??0sentry@?$basic_ostream@DU?$char_traits@D@std@@@std@@QEAA@AEAV12@@Z DD imagerel $LN7
	DD	imagerel $LN7+284
	DD	imagerel $unwind$??0sentry@?$basic_ostream@DU?$char_traits@D@std@@@std@@QEAA@AEAV12@@Z
pdata	ENDS
;	COMDAT pdata
pdata	SEGMENT
$pdata$?dtor$0@?0???0sentry@?$basic_ostream@DU?$char_traits@D@std@@@std@@QEAA@AEAV12@@Z@4HA DD imagerel ?dtor$0@?0???0sentry@?$basic_ostream@DU?$char_traits@D@std@@@std@@QEAA@AEAV12@@Z@4HA
	DD	imagerel ?dtor$0@?0???0sentry@?$basic_ostream@DU?$char_traits@D@std@@@std@@QEAA@AEAV12@@Z@4HA+39
	DD	imagerel $unwind$?dtor$0@?0???0sentry@?$basic_ostream@DU?$char_traits@D@std@@@std@@QEAA@AEAV12@@Z@4HA
pdata	ENDS
;	COMDAT pdata
pdata	SEGMENT
$pdata$??1sentry@?$basic_ostream@DU?$char_traits@D@std@@@std@@QEAA@XZ DD imagerel $LN4
	DD	imagerel $LN4+108
	DD	imagerel $unwind$??1sentry@?$basic_ostream@DU?$char_traits@D@std@@@std@@QEAA@XZ
pdata	ENDS
;	COMDAT pdata
pdata	SEGMENT
$pdata$??Bsentry@?$basic_ostream@DU?$char_traits@D@std@@@std@@QEBA_NXZ DD imagerel $LN3
	DD	imagerel $LN3+75
	DD	imagerel $unwind$??Bsentry@?$basic_ostream@DU?$char_traits@D@std@@@std@@QEBA_NXZ
pdata	ENDS
;	COMDAT pdata
pdata	SEGMENT
$pdata$??0?$_Alloc_construct_ptr@V?$allocator@U?$_List_node@PEAVObjector@@PEAX@std@@@std@@@std@@QEAA@AEAV?$allocator@U?$_List_node@PEAVObjector@@PEAX@std@@@1@@Z DD imagerel $LN3
	DD	imagerel $LN3+108
	DD	imagerel $unwind$??0?$_Alloc_construct_ptr@V?$allocator@U?$_List_node@PEAVObjector@@PEAX@std@@@std@@@std@@QEAA@AEAV?$allocator@U?$_List_node@PEAVObjector@@PEAX@std@@@1@@Z
pdata	ENDS
;	COMDAT pdata
pdata	SEGMENT
$pdata$?_Allocate@?$_Alloc_construct_ptr@V?$allocator@U?$_List_node@PEAVObjector@@PEAX@std@@@std@@@std@@QEAAXXZ DD imagerel $LN3
	DD	imagerel $LN3+124
	DD	imagerel $unwind$?_Allocate@?$_Alloc_construct_ptr@V?$allocator@U?$_List_node@PEAVObjector@@PEAX@std@@@std@@@std@@QEAAXXZ
pdata	ENDS
;	COMDAT pdata
pdata	SEGMENT
$pdata$??1?$_Alloc_construct_ptr@V?$allocator@U?$_List_node@PEAVObjector@@PEAX@std@@@std@@@std@@QEAA@XZ DD imagerel $LN4
	DD	imagerel $LN4+126
	DD	imagerel $unwind$??1?$_Alloc_construct_ptr@V?$allocator@U?$_List_node@PEAVObjector@@PEAX@std@@@std@@@std@@QEAA@XZ
pdata	ENDS
;	COMDAT pdata
pdata	SEGMENT
$pdata$??1?$_List_node_emplace_op2@V?$allocator@U?$_List_node@PEAVObjector@@PEAX@std@@@std@@@std@@QEAA@XZ DD imagerel $LN4
	DD	imagerel $LN4+160
	DD	imagerel $unwind$??1?$_List_node_emplace_op2@V?$allocator@U?$_List_node@PEAVObjector@@PEAX@std@@@std@@@std@@QEAA@XZ
pdata	ENDS
;	COMDAT pdata
pdata	SEGMENT
$pdata$?_Transfer_before@?$_List_node_emplace_op2@V?$allocator@U?$_List_node@PEAVObjector@@PEAX@std@@@std@@@std@@QEAAPEAU?$_List_node@PEAVObjector@@PEAX@2@QEAU32@@Z DD imagerel $LN3
	DD	imagerel $LN3+256
	DD	imagerel $unwind$?_Transfer_before@?$_List_node_emplace_op2@V?$allocator@U?$_List_node@PEAVObjector@@PEAX@std@@@std@@@std@@QEAAPEAU?$_List_node@PEAVObjector@@PEAX@2@QEAU32@@Z
pdata	ENDS
;	COMDAT pdata
pdata	SEGMENT
$pdata$??$forward@AEBQEAVObjector@@@std@@YAAEBQEAVObjector@@AEBQEAV1@@Z DD imagerel $LN3
	DD	imagerel $LN3+72
	DD	imagerel $unwind$??$forward@AEBQEAVObjector@@@std@@YAAEBQEAVObjector@@AEBQEAV1@@Z
pdata	ENDS
;	COMDAT pdata
pdata	SEGMENT
$pdata$??$?0AEBQEAVObjector@@@?$_List_node_emplace_op2@V?$allocator@U?$_List_node@PEAVObjector@@PEAX@std@@@std@@@std@@QEAA@AEAV?$allocator@U?$_List_node@PEAVObjector@@PEAX@std@@@1@AEBQEAVObjector@@@Z DD imagerel $LN4
	DD	imagerel $LN4+206
	DD	imagerel $unwind$??$?0AEBQEAVObjector@@@?$_List_node_emplace_op2@V?$allocator@U?$_List_node@PEAVObjector@@PEAX@std@@@std@@@std@@QEAA@AEAV?$allocator@U?$_List_node@PEAVObjector@@PEAX@std@@@1@AEBQEAVObjector@@@Z
pdata	ENDS
;	COMDAT pdata
pdata	SEGMENT
$pdata$?dtor$0@?0???$?0AEBQEAVObjector@@@?$_List_node_emplace_op2@V?$allocator@U?$_List_node@PEAVObjector@@PEAX@std@@@std@@@std@@QEAA@AEAV?$allocator@U?$_List_node@PEAVObjector@@PEAX@std@@@1@AEBQEAVObjector@@@Z@4HA DD imagerel ?dtor$0@?0???$?0AEBQEAVObjector@@@?$_List_node_emplace_op2@V?$allocator@U?$_List_node@PEAVObjector@@PEAX@std@@@std@@@std@@QEAA@AEAV?$allocator@U?$_List_node@PEAVObjector@@PEAX@std@@@1@AEBQEAVObjector@@@Z@4HA
	DD	imagerel ?dtor$0@?0???$?0AEBQEAVObjector@@@?$_List_node_emplace_op2@V?$allocator@U?$_List_node@PEAVObjector@@PEAX@std@@@std@@@std@@QEAA@AEAV?$allocator@U?$_List_node@PEAVObjector@@PEAX@std@@@1@AEBQEAVObjector@@@Z@4HA+39
	DD	imagerel $unwind$?dtor$0@?0???$?0AEBQEAVObjector@@@?$_List_node_emplace_op2@V?$allocator@U?$_List_node@PEAVObjector@@PEAX@std@@@std@@@std@@QEAA@AEAV?$allocator@U?$_List_node@PEAVObjector@@PEAX@std@@@1@AEBQEAVObjector@@@Z@4HA
pdata	ENDS
;	COMDAT pdata
pdata	SEGMENT
$pdata$??$_Deallocate_plain@V?$allocator@U_Container_proxy@std@@@std@@@std@@YAXAEAV?$allocator@U_Container_proxy@std@@@0@QEAU_Container_proxy@0@@Z DD imagerel $LN3
	DD	imagerel $LN3+96
	DD	imagerel $unwind$??$_Deallocate_plain@V?$allocator@U_Container_proxy@std@@@std@@@std@@YAXAEAV?$allocator@U_Container_proxy@std@@@0@QEAU_Container_proxy@0@@Z
pdata	ENDS
;	COMDAT pdata
pdata	SEGMENT
$pdata$??$forward@AEAPEAU?$_List_node@PEAVObjector@@PEAX@std@@@std@@YAAEAPEAU?$_List_node@PEAVObjector@@PEAX@0@AEAPEAU10@@Z DD imagerel $LN3
	DD	imagerel $LN3+72
	DD	imagerel $unwind$??$forward@AEAPEAU?$_List_node@PEAVObjector@@PEAX@std@@@std@@YAAEAPEAU?$_List_node@PEAVObjector@@PEAX@0@AEAPEAU10@@Z
pdata	ENDS
;	COMDAT pdata
pdata	SEGMENT
$pdata$??$_Freenode@V?$allocator@U?$_List_node@PEAVObjector@@PEAX@std@@@std@@@?$_List_node@PEAVObjector@@PEAX@std@@SAXAEAV?$allocator@U?$_List_node@PEAVObjector@@PEAX@std@@@1@PEAU01@@Z DD imagerel $LN3
	DD	imagerel $LN3+126
	DD	imagerel $unwind$??$_Freenode@V?$allocator@U?$_List_node@PEAVObjector@@PEAX@std@@@std@@@?$_List_node@PEAVObjector@@PEAX@std@@SAXAEAV?$allocator@U?$_List_node@PEAVObjector@@PEAX@std@@@1@PEAU01@@Z
pdata	ENDS
;	COMDAT pdata
pdata	SEGMENT
$pdata$??$_Destroy_in_place@PEAU?$_List_node@PEAVObjector@@PEAX@std@@@std@@YAXAEAPEAU?$_List_node@PEAVObjector@@PEAX@0@@Z DD imagerel $LN3
	DD	imagerel $LN3+65
	DD	imagerel $unwind$??$_Destroy_in_place@PEAU?$_List_node@PEAVObjector@@PEAX@std@@@std@@YAXAEAPEAU?$_List_node@PEAVObjector@@PEAX@0@@Z
pdata	ENDS
;	COMDAT pdata
pdata	SEGMENT
$pdata$??$_Allocate_manually_vector_aligned@U_Default_allocate_traits@std@@@std@@YAPEAX_K@Z DD imagerel $LN13
	DD	imagerel $LN13+300
	DD	imagerel $unwind$??$_Allocate_manually_vector_aligned@U_Default_allocate_traits@std@@@std@@YAPEAX_K@Z
pdata	ENDS
;	COMDAT pdata
pdata	SEGMENT
$pdata$??$_Construct_in_place@PEAU?$_List_node@PEAVObjector@@PEAX@std@@AEBQEAU12@@std@@YAXAEAPEAU?$_List_node@PEAVObjector@@PEAX@0@AEBQEAU10@@Z DD imagerel $LN3
	DD	imagerel $LN3+130
	DD	imagerel $unwind$??$_Construct_in_place@PEAU?$_List_node@PEAVObjector@@PEAX@std@@AEBQEAU12@@std@@YAXAEAPEAU?$_List_node@PEAVObjector@@PEAX@0@AEBQEAU10@@Z
pdata	ENDS
;	COMDAT pdata
pdata	SEGMENT
$pdata$??$construct@PEAVObjector@@AEBQEAV1@@?$_Default_allocator_traits@V?$allocator@U?$_List_node@PEAVObjector@@PEAX@std@@@std@@@std@@SAXAEAV?$allocator@U?$_List_node@PEAVObjector@@PEAX@std@@@1@QEAPEAVObjector@@AEBQEAV3@@Z DD imagerel $LN3
	DD	imagerel $LN3+123
	DD	imagerel $unwind$??$construct@PEAVObjector@@AEBQEAV1@@?$_Default_allocator_traits@V?$allocator@U?$_List_node@PEAVObjector@@PEAX@std@@@std@@@std@@SAXAEAV?$allocator@U?$_List_node@PEAVObjector@@PEAX@std@@@1@QEAPEAVObjector@@AEBQEAV3@@Z
pdata	ENDS
;	COMDAT pdata
pdata	SEGMENT
$pdata$?deallocate@?$_Default_allocator_traits@V?$allocator@U_Container_proxy@std@@@std@@@std@@SAXAEAV?$allocator@U_Container_proxy@std@@@2@QEAU_Container_proxy@2@_K@Z DD imagerel $LN3
	DD	imagerel $LN3+97
	DD	imagerel $unwind$?deallocate@?$_Default_allocator_traits@V?$allocator@U_Container_proxy@std@@@std@@@std@@SAXAEAV?$allocator@U_Container_proxy@std@@@2@QEAU_Container_proxy@2@_K@Z
pdata	ENDS
;	COMDAT pdata
pdata	SEGMENT
$pdata$??$forward@AEBQEAU?$_List_node@PEAVObjector@@PEAX@std@@@std@@YAAEBQEAU?$_List_node@PEAVObjector@@PEAX@0@AEBQEAU10@@Z DD imagerel $LN3
	DD	imagerel $LN3+72
	DD	imagerel $unwind$??$forward@AEBQEAU?$_List_node@PEAVObjector@@PEAX@std@@@std@@YAAEBQEAU?$_List_node@PEAVObjector@@PEAX@0@AEBQEAU10@@Z
pdata	ENDS
;	COMDAT rtc$TMZ
rtc$TMZ	SEGMENT
_RTC_Shutdown.rtc$TMZ DQ FLAT:_RTC_Shutdown
rtc$TMZ	ENDS
;	COMDAT rtc$IMZ
rtc$IMZ	SEGMENT
_RTC_InitBase.rtc$IMZ DQ FLAT:_RTC_InitBase
rtc$IMZ	ENDS
;	COMDAT ??_R1A@?0A@EA@Objector@@8
rdata$r	SEGMENT
??_R1A@?0A@EA@Objector@@8 DD imagerel ??_R0?AVObjector@@@8 ; Objector::`RTTI Base Class Descriptor at (0,-1,0,64)'
	DD	00H
	DD	00H
	DD	0ffffffffH
	DD	00H
	DD	040H
	DD	imagerel ??_R3Objector@@8
rdata$r	ENDS
;	COMDAT ??_R2Objector@@8
rdata$r	SEGMENT
??_R2Objector@@8 DD imagerel ??_R1A@?0A@EA@Objector@@8	; Objector::`RTTI Base Class Array'
	ORG $+3
rdata$r	ENDS
;	COMDAT ??_R3Objector@@8
rdata$r	SEGMENT
??_R3Objector@@8 DD 00H					; Objector::`RTTI Class Hierarchy Descriptor'
	DD	00H
	DD	01H
	DD	imagerel ??_R2Objector@@8
rdata$r	ENDS
;	COMDAT ??_R0?AVObjector@@@8
data$r	SEGMENT
??_R0?AVObjector@@@8 DQ FLAT:??_7type_info@@6B@		; Objector `RTTI Type Descriptor'
	DQ	0000000000000000H
	DB	'.?AVObjector@@', 00H
data$r	ENDS
;	COMDAT ??_R4Objector@@6B@
rdata$r	SEGMENT
??_R4Objector@@6B@ DD 01H				; Objector::`RTTI Complete Object Locator'
	DD	00H
	DD	00H
	DD	imagerel ??_R0?AVObjector@@@8
	DD	imagerel ??_R3Objector@@8
	DD	imagerel ??_R4Objector@@6B@
rdata$r	ENDS
;	COMDAT ??_R1A@?0A@EA@Subject@@8
rdata$r	SEGMENT
??_R1A@?0A@EA@Subject@@8 DD imagerel ??_R0?AVSubject@@@8 ; Subject::`RTTI Base Class Descriptor at (0,-1,0,64)'
	DD	00H
	DD	00H
	DD	0ffffffffH
	DD	00H
	DD	040H
	DD	imagerel ??_R3Subject@@8
rdata$r	ENDS
;	COMDAT ??_R2Subject@@8
rdata$r	SEGMENT
??_R2Subject@@8 DD imagerel ??_R1A@?0A@EA@Subject@@8	; Subject::`RTTI Base Class Array'
	ORG $+3
rdata$r	ENDS
;	COMDAT ??_R3Subject@@8
rdata$r	SEGMENT
??_R3Subject@@8 DD 00H					; Subject::`RTTI Class Hierarchy Descriptor'
	DD	00H
	DD	01H
	DD	imagerel ??_R2Subject@@8
rdata$r	ENDS
;	COMDAT ??_R0?AVSubject@@@8
data$r	SEGMENT
??_R0?AVSubject@@@8 DQ FLAT:??_7type_info@@6B@		; Subject `RTTI Type Descriptor'
	DQ	0000000000000000H
	DB	'.?AVSubject@@', 00H
data$r	ENDS
;	COMDAT ??_R4Subject@@6B@
rdata$r	SEGMENT
??_R4Subject@@6B@ DD 01H				; Subject::`RTTI Complete Object Locator'
	DD	00H
	DD	00H
	DD	imagerel ??_R0?AVSubject@@@8
	DD	imagerel ??_R3Subject@@8
	DD	imagerel ??_R4Subject@@6B@
rdata$r	ENDS
;	COMDAT ??_R1A@?0A@EA@bad_array_new_length@std@@8
rdata$r	SEGMENT
??_R1A@?0A@EA@bad_array_new_length@std@@8 DD imagerel ??_R0?AVbad_array_new_length@std@@@8 ; std::bad_array_new_length::`RTTI Base Class Descriptor at (0,-1,0,64)'
	DD	02H
	DD	00H
	DD	0ffffffffH
	DD	00H
	DD	040H
	DD	imagerel ??_R3bad_array_new_length@std@@8
rdata$r	ENDS
;	COMDAT ??_R2bad_array_new_length@std@@8
rdata$r	SEGMENT
??_R2bad_array_new_length@std@@8 DD imagerel ??_R1A@?0A@EA@bad_array_new_length@std@@8 ; std::bad_array_new_length::`RTTI Base Class Array'
	DD	imagerel ??_R1A@?0A@EA@bad_alloc@std@@8
	DD	imagerel ??_R1A@?0A@EA@exception@std@@8
	ORG $+3
rdata$r	ENDS
;	COMDAT ??_R3bad_array_new_length@std@@8
rdata$r	SEGMENT
??_R3bad_array_new_length@std@@8 DD 00H			; std::bad_array_new_length::`RTTI Class Hierarchy Descriptor'
	DD	00H
	DD	03H
	DD	imagerel ??_R2bad_array_new_length@std@@8
rdata$r	ENDS
;	COMDAT ??_R4bad_array_new_length@std@@6B@
rdata$r	SEGMENT
??_R4bad_array_new_length@std@@6B@ DD 01H		; std::bad_array_new_length::`RTTI Complete Object Locator'
	DD	00H
	DD	00H
	DD	imagerel ??_R0?AVbad_array_new_length@std@@@8
	DD	imagerel ??_R3bad_array_new_length@std@@8
	DD	imagerel ??_R4bad_array_new_length@std@@6B@
rdata$r	ENDS
;	COMDAT ??_R1A@?0A@EA@bad_alloc@std@@8
rdata$r	SEGMENT
??_R1A@?0A@EA@bad_alloc@std@@8 DD imagerel ??_R0?AVbad_alloc@std@@@8 ; std::bad_alloc::`RTTI Base Class Descriptor at (0,-1,0,64)'
	DD	01H
	DD	00H
	DD	0ffffffffH
	DD	00H
	DD	040H
	DD	imagerel ??_R3bad_alloc@std@@8
rdata$r	ENDS
;	COMDAT ??_R2bad_alloc@std@@8
rdata$r	SEGMENT
??_R2bad_alloc@std@@8 DD imagerel ??_R1A@?0A@EA@bad_alloc@std@@8 ; std::bad_alloc::`RTTI Base Class Array'
	DD	imagerel ??_R1A@?0A@EA@exception@std@@8
	ORG $+3
rdata$r	ENDS
;	COMDAT ??_R3bad_alloc@std@@8
rdata$r	SEGMENT
??_R3bad_alloc@std@@8 DD 00H				; std::bad_alloc::`RTTI Class Hierarchy Descriptor'
	DD	00H
	DD	02H
	DD	imagerel ??_R2bad_alloc@std@@8
rdata$r	ENDS
;	COMDAT ??_R4bad_alloc@std@@6B@
rdata$r	SEGMENT
??_R4bad_alloc@std@@6B@ DD 01H				; std::bad_alloc::`RTTI Complete Object Locator'
	DD	00H
	DD	00H
	DD	imagerel ??_R0?AVbad_alloc@std@@@8
	DD	imagerel ??_R3bad_alloc@std@@8
	DD	imagerel ??_R4bad_alloc@std@@6B@
rdata$r	ENDS
;	COMDAT ??_R1A@?0A@EA@exception@std@@8
rdata$r	SEGMENT
??_R1A@?0A@EA@exception@std@@8 DD imagerel ??_R0?AVexception@std@@@8 ; std::exception::`RTTI Base Class Descriptor at (0,-1,0,64)'
	DD	00H
	DD	00H
	DD	0ffffffffH
	DD	00H
	DD	040H
	DD	imagerel ??_R3exception@std@@8
rdata$r	ENDS
;	COMDAT ??_R2exception@std@@8
rdata$r	SEGMENT
??_R2exception@std@@8 DD imagerel ??_R1A@?0A@EA@exception@std@@8 ; std::exception::`RTTI Base Class Array'
	ORG $+3
rdata$r	ENDS
;	COMDAT ??_R3exception@std@@8
rdata$r	SEGMENT
??_R3exception@std@@8 DD 00H				; std::exception::`RTTI Class Hierarchy Descriptor'
	DD	00H
	DD	01H
	DD	imagerel ??_R2exception@std@@8
rdata$r	ENDS
;	COMDAT ??_R4exception@std@@6B@
rdata$r	SEGMENT
??_R4exception@std@@6B@ DD 01H				; std::exception::`RTTI Complete Object Locator'
	DD	00H
	DD	00H
	DD	imagerel ??_R0?AVexception@std@@@8
	DD	imagerel ??_R3exception@std@@8
	DD	imagerel ??_R4exception@std@@6B@
rdata$r	ENDS
;	COMDAT ??_C@_1EO@GFNCMDLA@?$AAs?$AAt?$AAd?$AA?3?$AA?3?$AA_?$AAA?$AAl?$AAl?$AAo?$AAc?$AAa?$AAt?$AAe?$AA_@
CONST	SEGMENT
??_C@_1EO@GFNCMDLA@?$AAs?$AAt?$AAd?$AA?3?$AA?3?$AA_?$AAA?$AAl?$AAl?$AAo?$AAc?$AAa?$AAt?$AAe?$AA_@ DB 's'
	DB	00H, 't', 00H, 'd', 00H, ':', 00H, ':', 00H, '_', 00H, 'A', 00H
	DB	'l', 00H, 'l', 00H, 'o', 00H, 'c', 00H, 'a', 00H, 't', 00H, 'e'
	DB	00H, '_', 00H, 'm', 00H, 'a', 00H, 'n', 00H, 'u', 00H, 'a', 00H
	DB	'l', 00H, 'l', 00H, 'y', 00H, '_', 00H, 'v', 00H, 'e', 00H, 'c'
	DB	00H, 't', 00H, 'o', 00H, 'r', 00H, '_', 00H, 'a', 00H, 'l', 00H
	DB	'i', 00H, 'g', 00H, 'n', 00H, 'e', 00H, 'd', 00H, 00H, 00H ; `string'
CONST	ENDS
;	COMDAT ??_C@_0BB@MOGOBHAF@list?$DMT?$DO?5too?5long@
CONST	SEGMENT
??_C@_0BB@MOGOBHAF@list?$DMT?$DO?5too?5long@ DB 'list<T> too long', 00H ; `string'
CONST	ENDS
;	COMDAT ??_C@_0BD@HAHFOGAN@Objector?5do?5Update@
CONST	SEGMENT
??_C@_0BD@HAHFOGAN@Objector?5do?5Update@ DB 'Objector do Update', 00H ; `string'
CONST	ENDS
;	COMDAT ??_7Subject@@6B@
CONST	SEGMENT
??_7Subject@@6B@ DQ FLAT:??_R4Subject@@6B@		; Subject::`vftable'
	DQ	FLAT:??_ESubject@@UEAAPEAXI@Z
	DQ	FLAT:?Attach@Subject@@UEAAXPEAVObjector@@@Z
	DQ	FLAT:?Detach@Subject@@UEAAXPEAVObjector@@@Z
	DQ	FLAT:?Notify@Subject@@UEAAXXZ
CONST	ENDS
;	COMDAT ??_7Objector@@6B@
CONST	SEGMENT
??_7Objector@@6B@ DQ FLAT:??_R4Objector@@6B@		; Objector::`vftable'
	DQ	FLAT:??_EObjector@@UEAAPEAXI@Z
	DQ	FLAT:?Update@Objector@@UEAAXQEAVSubject@@@Z
CONST	ENDS
;	COMDAT ??_C@_1CG@JNLFBNGN@?$AA?$CC?$AAi?$AAn?$AAv?$AAa?$AAl?$AAi?$AAd?$AA?5?$AAa?$AAr?$AAg?$AAu?$AAm?$AAe@
CONST	SEGMENT
??_C@_1CG@JNLFBNGN@?$AA?$CC?$AAi?$AAn?$AAv?$AAa?$AAl?$AAi?$AAd?$AA?5?$AAa?$AAr?$AAg?$AAu?$AAm?$AAe@ DB '"'
	DB	00H, 'i', 00H, 'n', 00H, 'v', 00H, 'a', 00H, 'l', 00H, 'i', 00H
	DB	'd', 00H, ' ', 00H, 'a', 00H, 'r', 00H, 'g', 00H, 'u', 00H, 'm'
	DB	00H, 'e', 00H, 'n', 00H, 't', 00H, '"', 00H, 00H, 00H ; `string'
CONST	ENDS
;	COMDAT ??_C@_1EK@NIFDJFDG@?$AAs?$AAt?$AAd?$AA?3?$AA?3?$AA_?$AAA?$AAd?$AAj?$AAu?$AAs?$AAt?$AA_?$AAm?$AAa@
CONST	SEGMENT
??_C@_1EK@NIFDJFDG@?$AAs?$AAt?$AAd?$AA?3?$AA?3?$AA_?$AAA?$AAd?$AAj?$AAu?$AAs?$AAt?$AA_?$AAm?$AAa@ DB 's'
	DB	00H, 't', 00H, 'd', 00H, ':', 00H, ':', 00H, '_', 00H, 'A', 00H
	DB	'd', 00H, 'j', 00H, 'u', 00H, 's', 00H, 't', 00H, '_', 00H, 'm'
	DB	00H, 'a', 00H, 'n', 00H, 'u', 00H, 'a', 00H, 'l', 00H, 'l', 00H
	DB	'y', 00H, '_', 00H, 'v', 00H, 'e', 00H, 'c', 00H, 't', 00H, 'o'
	DB	00H, 'r', 00H, '_', 00H, 'a', 00H, 'l', 00H, 'i', 00H, 'g', 00H
	DB	'n', 00H, 'e', 00H, 'd', 00H, 00H, 00H	; `string'
CONST	ENDS
;	COMDAT ??_C@_1NC@MGDJFDEK@?$AAC?$AA?3?$AA?2?$AAP?$AAr?$AAo?$AAg?$AAr?$AAa?$AAm?$AA?5?$AAF?$AAi?$AAl?$AAe@
CONST	SEGMENT
??_C@_1NC@MGDJFDEK@?$AAC?$AA?3?$AA?2?$AAP?$AAr?$AAo?$AAg?$AAr?$AAa?$AAm?$AA?5?$AAF?$AAi?$AAl?$AAe@ DB 'C'
	DB	00H, ':', 00H, '\', 00H, 'P', 00H, 'r', 00H, 'o', 00H, 'g', 00H
	DB	'r', 00H, 'a', 00H, 'm', 00H, ' ', 00H, 'F', 00H, 'i', 00H, 'l'
	DB	00H, 'e', 00H, 's', 00H, ' ', 00H, '(', 00H, 'x', 00H, '8', 00H
	DB	'6', 00H, ')', 00H, '\', 00H, 'M', 00H, 'i', 00H, 'c', 00H, 'r'
	DB	00H, 'o', 00H, 's', 00H, 'o', 00H, 'f', 00H, 't', 00H, ' ', 00H
	DB	'V', 00H, 'i', 00H, 's', 00H, 'u', 00H, 'a', 00H, 'l', 00H, ' '
	DB	00H, 'S', 00H, 't', 00H, 'u', 00H, 'd', 00H, 'i', 00H, 'o', 00H
	DB	'\', 00H, '2', 00H, '0', 00H, '1', 00H, '9', 00H, '\', 00H, 'E'
	DB	00H, 'n', 00H, 't', 00H, 'e', 00H, 'r', 00H, 'p', 00H, 'r', 00H
	DB	'i', 00H, 's', 00H, 'e', 00H, '\', 00H, 'V', 00H, 'C', 00H, '\'
	DB	00H, 'T', 00H, 'o', 00H, 'o', 00H, 'l', 00H, 's', 00H, '\', 00H
	DB	'M', 00H, 'S', 00H, 'V', 00H, 'C', 00H, '\', 00H, '1', 00H, '4'
	DB	00H, '.', 00H, '2', 00H, '3', 00H, '.', 00H, '2', 00H, '8', 00H
	DB	'1', 00H, '0', 00H, '5', 00H, '\', 00H, 'i', 00H, 'n', 00H, 'c'
	DB	00H, 'l', 00H, 'u', 00H, 'd', 00H, 'e', 00H, '\', 00H, 'x', 00H
	DB	'm', 00H, 'e', 00H, 'm', 00H, 'o', 00H, 'r', 00H, 'y', 00H, 00H
	DB	00H						; `string'
CONST	ENDS
;	COMDAT ??_C@_0GJ@ICFCEKIN@C?3?2Program?5Files?5?$CIx86?$CJ?2Microsof@
CONST	SEGMENT
??_C@_0GJ@ICFCEKIN@C?3?2Program?5Files?5?$CIx86?$CJ?2Microsof@ DB 'C:\Pro'
	DB	'gram Files (x86)\Microsoft Visual Studio\2019\Enterprise\VC\T'
	DB	'ools\MSVC\14.23.28105\include\xmemory', 00H	; `string'
CONST	ENDS
;	COMDAT ??_C@_02DKCKIIND@?$CFs@
CONST	SEGMENT
??_C@_02DKCKIIND@?$CFs@ DB '%s', 00H			; `string'
CONST	ENDS
;	COMDAT ??_C@_0BB@FCMFBGOM@invalid?5argument@
CONST	SEGMENT
??_C@_0BB@FCMFBGOM@invalid?5argument@ DB 'invalid argument', 00H ; `string'
CONST	ENDS
;	COMDAT ?__LINE__Var@?0??_Adjust_manually_vector_aligned@std@@YAXAEAPEAXAEA_K@Z@4JA
_DATA	SEGMENT
?__LINE__Var@?0??_Adjust_manually_vector_aligned@std@@YAXAEAPEAXAEA_K@Z@4JA DD 066H ; `std::_Adjust_manually_vector_aligned'::`1'::__LINE__Var
_DATA	ENDS
;	COMDAT _CT??_R0?AVexception@std@@@8??0exception@std@@QEAA@AEBV01@@Z24
xdata$x	SEGMENT
_CT??_R0?AVexception@std@@@8??0exception@std@@QEAA@AEBV01@@Z24 DD 00H
	DD	imagerel ??_R0?AVexception@std@@@8
	DD	00H
	DD	0ffffffffH
	ORG $+4
	DD	018H
	DD	imagerel ??0exception@std@@QEAA@AEBV01@@Z
xdata$x	ENDS
;	COMDAT ??_R0?AVexception@std@@@8
data$r	SEGMENT
??_R0?AVexception@std@@@8 DQ FLAT:??_7type_info@@6B@	; std::exception `RTTI Type Descriptor'
	DQ	0000000000000000H
	DB	'.?AVexception@std@@', 00H
data$r	ENDS
;	COMDAT _CT??_R0?AVbad_alloc@std@@@8??0bad_alloc@std@@QEAA@AEBV01@@Z24
xdata$x	SEGMENT
_CT??_R0?AVbad_alloc@std@@@8??0bad_alloc@std@@QEAA@AEBV01@@Z24 DD 010H
	DD	imagerel ??_R0?AVbad_alloc@std@@@8
	DD	00H
	DD	0ffffffffH
	ORG $+4
	DD	018H
	DD	imagerel ??0bad_alloc@std@@QEAA@AEBV01@@Z
xdata$x	ENDS
;	COMDAT ??_R0?AVbad_alloc@std@@@8
data$r	SEGMENT
??_R0?AVbad_alloc@std@@@8 DQ FLAT:??_7type_info@@6B@	; std::bad_alloc `RTTI Type Descriptor'
	DQ	0000000000000000H
	DB	'.?AVbad_alloc@std@@', 00H
data$r	ENDS
;	COMDAT _CT??_R0?AVbad_array_new_length@std@@@8??0bad_array_new_length@std@@QEAA@AEBV01@@Z24
xdata$x	SEGMENT
_CT??_R0?AVbad_array_new_length@std@@@8??0bad_array_new_length@std@@QEAA@AEBV01@@Z24 DD 00H
	DD	imagerel ??_R0?AVbad_array_new_length@std@@@8
	DD	00H
	DD	0ffffffffH
	ORG $+4
	DD	018H
	DD	imagerel ??0bad_array_new_length@std@@QEAA@AEBV01@@Z
xdata$x	ENDS
;	COMDAT ??_R0?AVbad_array_new_length@std@@@8
data$r	SEGMENT
??_R0?AVbad_array_new_length@std@@@8 DQ FLAT:??_7type_info@@6B@ ; std::bad_array_new_length `RTTI Type Descriptor'
	DQ	0000000000000000H
	DB	'.?AVbad_array_new_length@std@@', 00H
data$r	ENDS
;	COMDAT _CTA3?AVbad_array_new_length@std@@
xdata$x	SEGMENT
_CTA3?AVbad_array_new_length@std@@ DD 03H
	DD	imagerel _CT??_R0?AVbad_array_new_length@std@@@8??0bad_array_new_length@std@@QEAA@AEBV01@@Z24
	DD	imagerel _CT??_R0?AVbad_alloc@std@@@8??0bad_alloc@std@@QEAA@AEBV01@@Z24
	DD	imagerel _CT??_R0?AVexception@std@@@8??0exception@std@@QEAA@AEBV01@@Z24
xdata$x	ENDS
;	COMDAT _TI3?AVbad_array_new_length@std@@
xdata$x	SEGMENT
_TI3?AVbad_array_new_length@std@@ DD 00H
	DD	imagerel ??1bad_array_new_length@std@@UEAA@XZ
	DD	00H
	DD	imagerel _CTA3?AVbad_array_new_length@std@@
xdata$x	ENDS
;	COMDAT ??_C@_0BF@KINCDENJ@bad?5array?5new?5length@
CONST	SEGMENT
??_C@_0BF@KINCDENJ@bad?5array?5new?5length@ DB 'bad array new length', 00H ; `string'
CONST	ENDS
;	COMDAT ??_7bad_array_new_length@std@@6B@
CONST	SEGMENT
??_7bad_array_new_length@std@@6B@ DQ FLAT:??_R4bad_array_new_length@std@@6B@ ; std::bad_array_new_length::`vftable'
	DQ	FLAT:??_Ebad_array_new_length@std@@UEAAPEAXI@Z
	DQ	FLAT:?what@exception@std@@UEBAPEBDXZ
CONST	ENDS
;	COMDAT ??_7bad_alloc@std@@6B@
CONST	SEGMENT
??_7bad_alloc@std@@6B@ DQ FLAT:??_R4bad_alloc@std@@6B@	; std::bad_alloc::`vftable'
	DQ	FLAT:??_Ebad_alloc@std@@UEAAPEAXI@Z
	DQ	FLAT:?what@exception@std@@UEBAPEBDXZ
CONST	ENDS
;	COMDAT ??_C@_0BC@EOODALEL@Unknown?5exception@
CONST	SEGMENT
??_C@_0BC@EOODALEL@Unknown?5exception@ DB 'Unknown exception', 00H ; `string'
CONST	ENDS
;	COMDAT ??_7exception@std@@6B@
CONST	SEGMENT
??_7exception@std@@6B@ DQ FLAT:??_R4exception@std@@6B@	; std::exception::`vftable'
	DQ	FLAT:??_Eexception@std@@UEAAPEAXI@Z
	DQ	FLAT:?what@exception@std@@UEBAPEBDXZ
CONST	ENDS
;	COMDAT xdata
xdata	SEGMENT
$ip2state$??$forward@AEBQEAU?$_List_node@PEAVObjector@@PEAX@std@@@std@@YAAEBQEAU?$_List_node@PEAVObjector@@PEAX@0@AEBQEAU10@@Z DB 02H
	DB	00H
	DB	00H
xdata	ENDS
;	COMDAT xdata
xdata	SEGMENT
$cppxdata$??$forward@AEBQEAU?$_List_node@PEAVObjector@@PEAX@std@@@std@@YAAEBQEAU?$_List_node@PEAVObjector@@PEAX@0@AEBQEAU10@@Z DB 060H
	DD	imagerel $ip2state$??$forward@AEBQEAU?$_List_node@PEAVObjector@@PEAX@std@@@std@@YAAEBQEAU?$_List_node@PEAVObjector@@PEAX@0@AEBQEAU10@@Z
xdata	ENDS
;	COMDAT xdata
xdata	SEGMENT
$unwind$??$forward@AEBQEAU?$_List_node@PEAVObjector@@PEAX@std@@@std@@YAAEBQEAU?$_List_node@PEAVObjector@@PEAX@0@AEBQEAU10@@Z DD 025052a19H
	DD	010e2313H
	DD	07007001dH
	DD	05006H
	DD	imagerel __CxxFrameHandler4
	DD	imagerel $cppxdata$??$forward@AEBQEAU?$_List_node@PEAVObjector@@PEAX@std@@@std@@YAAEBQEAU?$_List_node@PEAVObjector@@PEAX@0@AEBQEAU10@@Z
xdata	ENDS
;	COMDAT xdata
xdata	SEGMENT
$unwind$?deallocate@?$_Default_allocator_traits@V?$allocator@U_Container_proxy@std@@@std@@@std@@SAXAEAV?$allocator@U_Container_proxy@std@@@2@QEAU_Container_proxy@2@_K@Z DD 025053401H
	DD	0118231dH
	DD	07011001dH
	DD	05010H
xdata	ENDS
;	COMDAT xdata
xdata	SEGMENT
$unwind$??$construct@PEAVObjector@@AEBQEAV1@@?$_Default_allocator_traits@V?$allocator@U?$_List_node@PEAVObjector@@PEAX@std@@@std@@@std@@SAXAEAV?$allocator@U?$_List_node@PEAVObjector@@PEAX@std@@@1@QEAPEAVObjector@@AEBQEAV3@@Z DD 025053401H
	DD	0118231dH
	DD	070110021H
	DD	05010H
xdata	ENDS
;	COMDAT xdata
xdata	SEGMENT
$ip2state$??$_Construct_in_place@PEAU?$_List_node@PEAVObjector@@PEAX@std@@AEBQEAU12@@std@@YAXAEAPEAU?$_List_node@PEAVObjector@@PEAX@0@AEBQEAU10@@Z DB 02H
	DB	00H
	DB	00H
xdata	ENDS
;	COMDAT xdata
xdata	SEGMENT
$cppxdata$??$_Construct_in_place@PEAU?$_List_node@PEAVObjector@@PEAX@std@@AEBQEAU12@@std@@YAXAEAPEAU?$_List_node@PEAVObjector@@PEAX@0@AEBQEAU10@@Z DB 060H
	DD	imagerel $ip2state$??$_Construct_in_place@PEAU?$_List_node@PEAVObjector@@PEAX@std@@AEBQEAU12@@std@@YAXAEAPEAU?$_List_node@PEAVObjector@@PEAX@0@AEBQEAU10@@Z
xdata	ENDS
;	COMDAT xdata
xdata	SEGMENT
$unwind$??$_Construct_in_place@PEAU?$_List_node@PEAVObjector@@PEAX@std@@AEBQEAU12@@std@@YAXAEAPEAU?$_List_node@PEAVObjector@@PEAX@0@AEBQEAU10@@Z DD 025052f19H
	DD	01132318H
	DD	0700c0021H
	DD	0500bH
	DD	imagerel __CxxFrameHandler4
	DD	imagerel $cppxdata$??$_Construct_in_place@PEAU?$_List_node@PEAVObjector@@PEAX@std@@AEBQEAU12@@std@@YAXAEAPEAU?$_List_node@PEAVObjector@@PEAX@0@AEBQEAU10@@Z
xdata	ENDS
;	COMDAT xdata
xdata	SEGMENT
$unwind$??$_Allocate_manually_vector_aligned@U_Default_allocate_traits@std@@@std@@YAPEAX_K@Z DD 035052a01H
	DD	010e3313H
	DD	07007002bH
	DD	05006H
xdata	ENDS
;	COMDAT xdata
xdata	SEGMENT
$ip2state$??$_Destroy_in_place@PEAU?$_List_node@PEAVObjector@@PEAX@std@@@std@@YAXAEAPEAU?$_List_node@PEAVObjector@@PEAX@0@@Z DB 02H
	DB	00H
	DB	00H
xdata	ENDS
;	COMDAT xdata
xdata	SEGMENT
$cppxdata$??$_Destroy_in_place@PEAU?$_List_node@PEAVObjector@@PEAX@std@@@std@@YAXAEAPEAU?$_List_node@PEAVObjector@@PEAX@0@@Z DB 060H
	DD	imagerel $ip2state$??$_Destroy_in_place@PEAU?$_List_node@PEAVObjector@@PEAX@std@@@std@@YAXAEAPEAU?$_List_node@PEAVObjector@@PEAX@0@@Z
xdata	ENDS
;	COMDAT xdata
xdata	SEGMENT
$unwind$??$_Destroy_in_place@PEAU?$_List_node@PEAVObjector@@PEAX@std@@@std@@YAXAEAPEAU?$_List_node@PEAVObjector@@PEAX@0@@Z DD 025052a19H
	DD	010e2313H
	DD	07007001dH
	DD	05006H
	DD	imagerel __CxxFrameHandler4
	DD	imagerel $cppxdata$??$_Destroy_in_place@PEAU?$_List_node@PEAVObjector@@PEAX@std@@@std@@YAXAEAPEAU?$_List_node@PEAVObjector@@PEAX@0@@Z
xdata	ENDS
;	COMDAT xdata
xdata	SEGMENT
$ip2state$??$_Freenode@V?$allocator@U?$_List_node@PEAVObjector@@PEAX@std@@@std@@@?$_List_node@PEAVObjector@@PEAX@std@@SAXAEAV?$allocator@U?$_List_node@PEAVObjector@@PEAX@std@@@1@PEAU01@@Z DB 02H
	DB	00H
	DB	00H
xdata	ENDS
;	COMDAT xdata
xdata	SEGMENT
$cppxdata$??$_Freenode@V?$allocator@U?$_List_node@PEAVObjector@@PEAX@std@@@std@@@?$_List_node@PEAVObjector@@PEAX@std@@SAXAEAV?$allocator@U?$_List_node@PEAVObjector@@PEAX@std@@@1@PEAU01@@Z DB 060H
	DD	imagerel $ip2state$??$_Freenode@V?$allocator@U?$_List_node@PEAVObjector@@PEAX@std@@@std@@@?$_List_node@PEAVObjector@@PEAX@std@@SAXAEAV?$allocator@U?$_List_node@PEAVObjector@@PEAX@std@@@1@PEAU01@@Z
xdata	ENDS
;	COMDAT xdata
xdata	SEGMENT
$unwind$??$_Freenode@V?$allocator@U?$_List_node@PEAVObjector@@PEAX@std@@@std@@@?$_List_node@PEAVObjector@@PEAX@std@@SAXAEAV?$allocator@U?$_List_node@PEAVObjector@@PEAX@std@@@1@PEAU01@@Z DD 025052f19H
	DD	01132318H
	DD	0700c001dH
	DD	0500bH
	DD	imagerel __CxxFrameHandler4
	DD	imagerel $cppxdata$??$_Freenode@V?$allocator@U?$_List_node@PEAVObjector@@PEAX@std@@@std@@@?$_List_node@PEAVObjector@@PEAX@std@@SAXAEAV?$allocator@U?$_List_node@PEAVObjector@@PEAX@std@@@1@PEAU01@@Z
xdata	ENDS
;	COMDAT xdata
xdata	SEGMENT
$ip2state$??$forward@AEAPEAU?$_List_node@PEAVObjector@@PEAX@std@@@std@@YAAEAPEAU?$_List_node@PEAVObjector@@PEAX@0@AEAPEAU10@@Z DB 02H
	DB	00H
	DB	00H
xdata	ENDS
;	COMDAT xdata
xdata	SEGMENT
$cppxdata$??$forward@AEAPEAU?$_List_node@PEAVObjector@@PEAX@std@@@std@@YAAEAPEAU?$_List_node@PEAVObjector@@PEAX@0@AEAPEAU10@@Z DB 060H
	DD	imagerel $ip2state$??$forward@AEAPEAU?$_List_node@PEAVObjector@@PEAX@std@@@std@@YAAEAPEAU?$_List_node@PEAVObjector@@PEAX@0@AEAPEAU10@@Z
xdata	ENDS
;	COMDAT xdata
xdata	SEGMENT
$unwind$??$forward@AEAPEAU?$_List_node@PEAVObjector@@PEAX@std@@@std@@YAAEAPEAU?$_List_node@PEAVObjector@@PEAX@0@AEAPEAU10@@Z DD 025052a19H
	DD	010e2313H
	DD	07007001dH
	DD	05006H
	DD	imagerel __CxxFrameHandler4
	DD	imagerel $cppxdata$??$forward@AEAPEAU?$_List_node@PEAVObjector@@PEAX@std@@@std@@YAAEAPEAU?$_List_node@PEAVObjector@@PEAX@0@AEAPEAU10@@Z
xdata	ENDS
;	COMDAT xdata
xdata	SEGMENT
$ip2state$??$_Deallocate_plain@V?$allocator@U_Container_proxy@std@@@std@@@std@@YAXAEAV?$allocator@U_Container_proxy@std@@@0@QEAU_Container_proxy@0@@Z DB 02H
	DB	00H
	DB	00H
xdata	ENDS
;	COMDAT xdata
xdata	SEGMENT
$cppxdata$??$_Deallocate_plain@V?$allocator@U_Container_proxy@std@@@std@@@std@@YAXAEAV?$allocator@U_Container_proxy@std@@@0@QEAU_Container_proxy@0@@Z DB 060H
	DD	imagerel $ip2state$??$_Deallocate_plain@V?$allocator@U_Container_proxy@std@@@std@@@std@@YAXAEAV?$allocator@U_Container_proxy@std@@@0@QEAU_Container_proxy@0@@Z
xdata	ENDS
;	COMDAT xdata
xdata	SEGMENT
$unwind$??$_Deallocate_plain@V?$allocator@U_Container_proxy@std@@@std@@@std@@YAXAEAV?$allocator@U_Container_proxy@std@@@0@QEAU_Container_proxy@0@@Z DD 025052f19H
	DD	01132318H
	DD	0700c001dH
	DD	0500bH
	DD	imagerel __CxxFrameHandler4
	DD	imagerel $cppxdata$??$_Deallocate_plain@V?$allocator@U_Container_proxy@std@@@std@@@std@@YAXAEAV?$allocator@U_Container_proxy@std@@@0@QEAU_Container_proxy@0@@Z
xdata	ENDS
;	COMDAT xdata
xdata	SEGMENT
$unwind$?dtor$0@?0???$?0AEBQEAVObjector@@@?$_List_node_emplace_op2@V?$allocator@U?$_List_node@PEAVObjector@@PEAX@std@@@std@@@std@@QEAA@AEAV?$allocator@U?$_List_node@PEAVObjector@@PEAX@std@@@1@AEBQEAVObjector@@@Z@4HA DD 031001H
	DD	0700c4210H
	DD	0500bH
xdata	ENDS
;	COMDAT xdata
xdata	SEGMENT
$ip2state$??$?0AEBQEAVObjector@@@?$_List_node_emplace_op2@V?$allocator@U?$_List_node@PEAVObjector@@PEAX@std@@@std@@@std@@QEAA@AEAV?$allocator@U?$_List_node@PEAVObjector@@PEAX@std@@@1@AEBQEAVObjector@@@Z DB 06H
	DB	00H
	DB	00H
	DB	0a8H
	DB	02H
	DB	0d2H
	DB	00H
xdata	ENDS
;	COMDAT xdata
xdata	SEGMENT
$stateUnwindMap$??$?0AEBQEAVObjector@@@?$_List_node_emplace_op2@V?$allocator@U?$_List_node@PEAVObjector@@PEAX@std@@@std@@@std@@QEAA@AEAV?$allocator@U?$_List_node@PEAVObjector@@PEAX@std@@@1@AEBQEAVObjector@@@Z DB 02H
	DB	0eH
	DD	imagerel ?dtor$0@?0???$?0AEBQEAVObjector@@@?$_List_node_emplace_op2@V?$allocator@U?$_List_node@PEAVObjector@@PEAX@std@@@std@@@std@@QEAA@AEAV?$allocator@U?$_List_node@PEAVObjector@@PEAX@std@@@1@AEBQEAVObjector@@@Z@4HA
xdata	ENDS
;	COMDAT xdata
xdata	SEGMENT
$cppxdata$??$?0AEBQEAVObjector@@@?$_List_node_emplace_op2@V?$allocator@U?$_List_node@PEAVObjector@@PEAX@std@@@std@@@std@@QEAA@AEAV?$allocator@U?$_List_node@PEAVObjector@@PEAX@std@@@1@AEBQEAVObjector@@@Z DB 028H
	DD	imagerel $stateUnwindMap$??$?0AEBQEAVObjector@@@?$_List_node_emplace_op2@V?$allocator@U?$_List_node@PEAVObjector@@PEAX@std@@@std@@@std@@QEAA@AEAV?$allocator@U?$_List_node@PEAVObjector@@PEAX@std@@@1@AEBQEAVObjector@@@Z
	DD	imagerel $ip2state$??$?0AEBQEAVObjector@@@?$_List_node_emplace_op2@V?$allocator@U?$_List_node@PEAVObjector@@PEAX@std@@@std@@@std@@QEAA@AEAV?$allocator@U?$_List_node@PEAVObjector@@PEAX@std@@@1@AEBQEAVObjector@@@Z
xdata	ENDS
;	COMDAT xdata
xdata	SEGMENT
$unwind$??$?0AEBQEAVObjector@@@?$_List_node_emplace_op2@V?$allocator@U?$_List_node@PEAVObjector@@PEAX@std@@@std@@@std@@QEAA@AEAV?$allocator@U?$_List_node@PEAVObjector@@PEAX@std@@@1@AEBQEAVObjector@@@Z DD 025053411H
	DD	0118231dH
	DD	070110021H
	DD	05010H
	DD	imagerel __CxxFrameHandler4
	DD	imagerel $cppxdata$??$?0AEBQEAVObjector@@@?$_List_node_emplace_op2@V?$allocator@U?$_List_node@PEAVObjector@@PEAX@std@@@std@@@std@@QEAA@AEAV?$allocator@U?$_List_node@PEAVObjector@@PEAX@std@@@1@AEBQEAVObjector@@@Z
xdata	ENDS
;	COMDAT xdata
xdata	SEGMENT
$ip2state$??$forward@AEBQEAVObjector@@@std@@YAAEBQEAVObjector@@AEBQEAV1@@Z DB 02H
	DB	00H
	DB	00H
xdata	ENDS
;	COMDAT xdata
xdata	SEGMENT
$cppxdata$??$forward@AEBQEAVObjector@@@std@@YAAEBQEAVObjector@@AEBQEAV1@@Z DB 060H
	DD	imagerel $ip2state$??$forward@AEBQEAVObjector@@@std@@YAAEBQEAVObjector@@AEBQEAV1@@Z
xdata	ENDS
;	COMDAT xdata
xdata	SEGMENT
$unwind$??$forward@AEBQEAVObjector@@@std@@YAAEBQEAVObjector@@AEBQEAV1@@Z DD 025052a19H
	DD	010e2313H
	DD	07007001dH
	DD	05006H
	DD	imagerel __CxxFrameHandler4
	DD	imagerel $cppxdata$??$forward@AEBQEAVObjector@@@std@@YAAEBQEAVObjector@@AEBQEAV1@@Z
xdata	ENDS
;	COMDAT xdata
xdata	SEGMENT
$ip2state$?_Transfer_before@?$_List_node_emplace_op2@V?$allocator@U?$_List_node@PEAVObjector@@PEAX@std@@@std@@@std@@QEAAPEAU?$_List_node@PEAVObjector@@PEAX@2@QEAU32@@Z DB 02H
	DB	00H
	DB	00H
xdata	ENDS
;	COMDAT xdata
xdata	SEGMENT
$cppxdata$?_Transfer_before@?$_List_node_emplace_op2@V?$allocator@U?$_List_node@PEAVObjector@@PEAX@std@@@std@@@std@@QEAAPEAU?$_List_node@PEAVObjector@@PEAX@2@QEAU32@@Z DB 060H
	DD	imagerel $ip2state$?_Transfer_before@?$_List_node_emplace_op2@V?$allocator@U?$_List_node@PEAVObjector@@PEAX@std@@@std@@@std@@QEAAPEAU?$_List_node@PEAVObjector@@PEAX@2@QEAU32@@Z
xdata	ENDS
;	COMDAT xdata
xdata	SEGMENT
$unwind$?_Transfer_before@?$_List_node_emplace_op2@V?$allocator@U?$_List_node@PEAVObjector@@PEAX@std@@@std@@@std@@QEAAPEAU?$_List_node@PEAVObjector@@PEAX@2@QEAU32@@Z DD 025054019H
	DD	01132318H
	DD	0700c0025H
	DD	0500bH
	DD	imagerel __GSHandlerCheck_EH4
	DD	imagerel $cppxdata$?_Transfer_before@?$_List_node_emplace_op2@V?$allocator@U?$_List_node@PEAVObjector@@PEAX@std@@@std@@@std@@QEAAPEAU?$_List_node@PEAVObjector@@PEAX@2@QEAU32@@Z
	DD	011bH
xdata	ENDS
;	COMDAT CONST
CONST	SEGMENT
?_Transfer_before@?$_List_node_emplace_op2@V?$allocator@U?$_List_node@PEAVObjector@@PEAX@std@@@std@@@std@@QEAAPEAU?$_List_node@PEAVObjector@@PEAX@2@QEAU32@@Z$rtcName$0 DB 05fH ; std::_List_node_emplace_op2<std::allocator<std::_List_node<Objector *,void *> > >::_Transfer_before
	DB	049H
	DB	06eH
	DB	073H
	DB	065H
	DB	072H
	DB	074H
	DB	05fH
	DB	061H
	DB	066H
	DB	074H
	DB	065H
	DB	072H
	DB	00H
	ORG $+2
?_Transfer_before@?$_List_node_emplace_op2@V?$allocator@U?$_List_node@PEAVObjector@@PEAX@std@@@std@@@std@@QEAAPEAU?$_List_node@PEAVObjector@@PEAX@2@QEAU32@@Z$rtcVarDesc DD 028H ; std::_List_node_emplace_op2<std::allocator<std::_List_node<Objector *,void *> > >::_Transfer_before
	DD	08H
	DQ	FLAT:?_Transfer_before@?$_List_node_emplace_op2@V?$allocator@U?$_List_node@PEAVObjector@@PEAX@std@@@std@@@std@@QEAAPEAU?$_List_node@PEAVObjector@@PEAX@2@QEAU32@@Z$rtcName$0
	ORG $+48
?_Transfer_before@?$_List_node_emplace_op2@V?$allocator@U?$_List_node@PEAVObjector@@PEAX@std@@@std@@@std@@QEAAPEAU?$_List_node@PEAVObjector@@PEAX@2@QEAU32@@Z$rtcFrameData DD 01H ; std::_List_node_emplace_op2<std::allocator<std::_List_node<Objector *,void *> > >::_Transfer_before
	DD	00H
	DQ	FLAT:?_Transfer_before@?$_List_node_emplace_op2@V?$allocator@U?$_List_node@PEAVObjector@@PEAX@std@@@std@@@std@@QEAAPEAU?$_List_node@PEAVObjector@@PEAX@2@QEAU32@@Z$rtcVarDesc
CONST	ENDS
;	COMDAT xdata
xdata	SEGMENT
$ip2state$??1?$_List_node_emplace_op2@V?$allocator@U?$_List_node@PEAVObjector@@PEAX@std@@@std@@@std@@QEAA@XZ DB 02H
	DB	00H
	DB	00H
xdata	ENDS
;	COMDAT xdata
xdata	SEGMENT
$cppxdata$??1?$_List_node_emplace_op2@V?$allocator@U?$_List_node@PEAVObjector@@PEAX@std@@@std@@@std@@QEAA@XZ DB 060H
	DD	imagerel $ip2state$??1?$_List_node_emplace_op2@V?$allocator@U?$_List_node@PEAVObjector@@PEAX@std@@@std@@@std@@QEAA@XZ
xdata	ENDS
;	COMDAT xdata
xdata	SEGMENT
$unwind$??1?$_List_node_emplace_op2@V?$allocator@U?$_List_node@PEAVObjector@@PEAX@std@@@std@@@std@@QEAA@XZ DD 025052a19H
	DD	010e2313H
	DD	07007001fH
	DD	05006H
	DD	imagerel __CxxFrameHandler4
	DD	imagerel $cppxdata$??1?$_List_node_emplace_op2@V?$allocator@U?$_List_node@PEAVObjector@@PEAX@std@@@std@@@std@@QEAA@XZ
xdata	ENDS
;	COMDAT xdata
xdata	SEGMENT
$ip2state$??1?$_Alloc_construct_ptr@V?$allocator@U?$_List_node@PEAVObjector@@PEAX@std@@@std@@@std@@QEAA@XZ DB 02H
	DB	00H
	DB	00H
xdata	ENDS
;	COMDAT xdata
xdata	SEGMENT
$cppxdata$??1?$_Alloc_construct_ptr@V?$allocator@U?$_List_node@PEAVObjector@@PEAX@std@@@std@@@std@@QEAA@XZ DB 060H
	DD	imagerel $ip2state$??1?$_Alloc_construct_ptr@V?$allocator@U?$_List_node@PEAVObjector@@PEAX@std@@@std@@@std@@QEAA@XZ
xdata	ENDS
;	COMDAT xdata
xdata	SEGMENT
$unwind$??1?$_Alloc_construct_ptr@V?$allocator@U?$_List_node@PEAVObjector@@PEAX@std@@@std@@@std@@QEAA@XZ DD 025052a19H
	DD	010e2313H
	DD	07007001fH
	DD	05006H
	DD	imagerel __CxxFrameHandler4
	DD	imagerel $cppxdata$??1?$_Alloc_construct_ptr@V?$allocator@U?$_List_node@PEAVObjector@@PEAX@std@@@std@@@std@@QEAA@XZ
xdata	ENDS
;	COMDAT xdata
xdata	SEGMENT
$unwind$?_Allocate@?$_Alloc_construct_ptr@V?$allocator@U?$_List_node@PEAVObjector@@PEAX@std@@@std@@@std@@QEAAXXZ DD 025052a01H
	DD	010e2313H
	DD	07007001fH
	DD	05006H
xdata	ENDS
;	COMDAT xdata
xdata	SEGMENT
$unwind$??0?$_Alloc_construct_ptr@V?$allocator@U?$_List_node@PEAVObjector@@PEAX@std@@@std@@@std@@QEAA@AEAV?$allocator@U?$_List_node@PEAVObjector@@PEAX@std@@@1@@Z DD 025052f01H
	DD	01132318H
	DD	0700c001dH
	DD	0500bH
xdata	ENDS
;	COMDAT xdata
xdata	SEGMENT
$unwind$??Bsentry@?$basic_ostream@DU?$char_traits@D@std@@@std@@QEBA_NXZ DD 025052a01H
	DD	010e2313H
	DD	07007001dH
	DD	05006H
xdata	ENDS
;	COMDAT xdata
xdata	SEGMENT
$ip2state$??1sentry@?$basic_ostream@DU?$char_traits@D@std@@@std@@QEAA@XZ DB 02H
	DB	00H
	DB	00H
xdata	ENDS
;	COMDAT xdata
xdata	SEGMENT
$cppxdata$??1sentry@?$basic_ostream@DU?$char_traits@D@std@@@std@@QEAA@XZ DB 060H
	DD	imagerel $ip2state$??1sentry@?$basic_ostream@DU?$char_traits@D@std@@@std@@QEAA@XZ
xdata	ENDS
;	COMDAT xdata
xdata	SEGMENT
$unwind$??1sentry@?$basic_ostream@DU?$char_traits@D@std@@@std@@QEAA@XZ DD 025052a19H
	DD	010e2313H
	DD	07007001dH
	DD	05006H
	DD	imagerel __CxxFrameHandler4
	DD	imagerel $cppxdata$??1sentry@?$basic_ostream@DU?$char_traits@D@std@@@std@@QEAA@XZ
xdata	ENDS
;	COMDAT xdata
xdata	SEGMENT
$unwind$?dtor$0@?0???0sentry@?$basic_ostream@DU?$char_traits@D@std@@@std@@QEAA@AEAV12@@Z@4HA DD 031001H
	DD	0700c4210H
	DD	0500bH
xdata	ENDS
;	COMDAT xdata
xdata	SEGMENT
$ip2state$??0sentry@?$basic_ostream@DU?$char_traits@D@std@@@std@@QEAA@AEAV12@@Z DB 06H
	DB	00H
	DB	00H
	DB	09eH
	DB	02H
	DB	0f1H, 02H
	DB	00H
xdata	ENDS
;	COMDAT xdata
xdata	SEGMENT
$stateUnwindMap$??0sentry@?$basic_ostream@DU?$char_traits@D@std@@@std@@QEAA@AEAV12@@Z DB 02H
	DB	0eH
	DD	imagerel ?dtor$0@?0???0sentry@?$basic_ostream@DU?$char_traits@D@std@@@std@@QEAA@AEAV12@@Z@4HA
xdata	ENDS
;	COMDAT xdata
xdata	SEGMENT
$cppxdata$??0sentry@?$basic_ostream@DU?$char_traits@D@std@@@std@@QEAA@AEAV12@@Z DB 028H
	DD	imagerel $stateUnwindMap$??0sentry@?$basic_ostream@DU?$char_traits@D@std@@@std@@QEAA@AEAV12@@Z
	DD	imagerel $ip2state$??0sentry@?$basic_ostream@DU?$char_traits@D@std@@@std@@QEAA@AEAV12@@Z
xdata	ENDS
;	COMDAT xdata
xdata	SEGMENT
$unwind$??0sentry@?$basic_ostream@DU?$char_traits@D@std@@@std@@QEAA@AEAV12@@Z DD 025052f11H
	DD	01132318H
	DD	0700c0021H
	DD	0500bH
	DD	imagerel __CxxFrameHandler4
	DD	imagerel $cppxdata$??0sentry@?$basic_ostream@DU?$char_traits@D@std@@@std@@QEAA@AEAV12@@Z
xdata	ENDS
;	COMDAT xdata
xdata	SEGMENT
$ip2state$??1_Sentry_base@?$basic_ostream@DU?$char_traits@D@std@@@std@@QEAA@XZ DB 02H
	DB	00H
	DB	00H
xdata	ENDS
;	COMDAT xdata
xdata	SEGMENT
$cppxdata$??1_Sentry_base@?$basic_ostream@DU?$char_traits@D@std@@@std@@QEAA@XZ DB 060H
	DD	imagerel $ip2state$??1_Sentry_base@?$basic_ostream@DU?$char_traits@D@std@@@std@@QEAA@XZ
xdata	ENDS
;	COMDAT xdata
xdata	SEGMENT
$unwind$??1_Sentry_base@?$basic_ostream@DU?$char_traits@D@std@@@std@@QEAA@XZ DD 025052a19H
	DD	010e2313H
	DD	070070021H
	DD	05006H
	DD	imagerel __CxxFrameHandler4
	DD	imagerel $cppxdata$??1_Sentry_base@?$basic_ostream@DU?$char_traits@D@std@@@std@@QEAA@XZ
xdata	ENDS
;	COMDAT xdata
xdata	SEGMENT
$unwind$??0_Sentry_base@?$basic_ostream@DU?$char_traits@D@std@@@std@@QEAA@AEAV12@@Z DD 025052f01H
	DD	01132318H
	DD	0700c0021H
	DD	0500bH
xdata	ENDS
;	COMDAT xdata
xdata	SEGMENT
$ip2state$??$forward@PEAU_Container_base12@std@@@std@@YA$$QEAPEAU_Container_base12@0@AEAPEAU10@@Z DB 02H
	DB	00H
	DB	00H
xdata	ENDS
;	COMDAT xdata
xdata	SEGMENT
$cppxdata$??$forward@PEAU_Container_base12@std@@@std@@YA$$QEAPEAU_Container_base12@0@AEAPEAU10@@Z DB 060H
	DD	imagerel $ip2state$??$forward@PEAU_Container_base12@std@@@std@@YA$$QEAPEAU_Container_base12@0@AEAPEAU10@@Z
xdata	ENDS
;	COMDAT xdata
xdata	SEGMENT
$unwind$??$forward@PEAU_Container_base12@std@@@std@@YA$$QEAPEAU_Container_base12@0@AEAPEAU10@@Z DD 025052a19H
	DD	010e2313H
	DD	07007001dH
	DD	05006H
	DD	imagerel __CxxFrameHandler4
	DD	imagerel $cppxdata$??$forward@PEAU_Container_base12@std@@@std@@YA$$QEAPEAU_Container_base12@0@AEAPEAU10@@Z
xdata	ENDS
;	COMDAT xdata
xdata	SEGMENT
$ip2state$??$addressof@U_Container_proxy@std@@@std@@YAPEAU_Container_proxy@0@AEAU10@@Z DB 02H
	DB	00H
	DB	00H
xdata	ENDS
;	COMDAT xdata
xdata	SEGMENT
$cppxdata$??$addressof@U_Container_proxy@std@@@std@@YAPEAU_Container_proxy@0@AEAU10@@Z DB 060H
	DD	imagerel $ip2state$??$addressof@U_Container_proxy@std@@@std@@YAPEAU_Container_proxy@0@AEAU10@@Z
xdata	ENDS
;	COMDAT xdata
xdata	SEGMENT
$unwind$??$addressof@U_Container_proxy@std@@@std@@YAPEAU_Container_proxy@0@AEAU10@@Z DD 025052a19H
	DD	010e2313H
	DD	07007001dH
	DD	05006H
	DD	imagerel __CxxFrameHandler4
	DD	imagerel $cppxdata$??$addressof@U_Container_proxy@std@@@std@@YAPEAU_Container_proxy@0@AEAU10@@Z
xdata	ENDS
;	COMDAT xdata
xdata	SEGMENT
$unwind$??$_Get_size_of_n@$0BI@@std@@YA_K_K@Z DD 025052a01H
	DD	010e2313H
	DD	070070025H
	DD	05006H
xdata	ENDS
;	COMDAT xdata
xdata	SEGMENT
$unwind$??$_Get_size_of_n@$0BA@@std@@YA_K_K@Z DD 025052a01H
	DD	010e2313H
	DD	070070025H
	DD	05006H
xdata	ENDS
;	COMDAT xdata
xdata	SEGMENT
$unwind$??$_Allocate@$0BA@U_Default_allocate_traits@std@@$0A@@std@@YAPEAX_K@Z DD 025052a01H
	DD	010e2313H
	DD	07007001dH
	DD	05006H
xdata	ENDS
;	COMDAT xdata
xdata	SEGMENT
$ip2state$??$_Deallocate@$0BA@$0A@@std@@YAXPEAX_K@Z DB 02H
	DB	00H
	DB	00H
xdata	ENDS
;	COMDAT xdata
xdata	SEGMENT
$cppxdata$??$_Deallocate@$0BA@$0A@@std@@YAXPEAX_K@Z DB 060H
	DD	imagerel $ip2state$??$_Deallocate@$0BA@$0A@@std@@YAXPEAX_K@Z
xdata	ENDS
;	COMDAT xdata
xdata	SEGMENT
$unwind$??$_Deallocate@$0BA@$0A@@std@@YAXPEAX_K@Z DD 025052f19H
	DD	01132318H
	DD	0700c001dH
	DD	0500bH
	DD	imagerel __CxxFrameHandler4
	DD	imagerel $cppxdata$??$_Deallocate@$0BA@$0A@@std@@YAXPEAX_K@Z
xdata	ENDS
;	COMDAT xdata
xdata	SEGMENT
$ip2state$??$_Freenode0@V?$allocator@U?$_List_node@PEAVObjector@@PEAX@std@@@std@@@?$_List_node@PEAVObjector@@PEAX@std@@SAXAEAV?$allocator@U?$_List_node@PEAVObjector@@PEAX@std@@@1@PEAU01@@Z DB 02H
	DB	00H
	DB	00H
xdata	ENDS
;	COMDAT xdata
xdata	SEGMENT
$cppxdata$??$_Freenode0@V?$allocator@U?$_List_node@PEAVObjector@@PEAX@std@@@std@@@?$_List_node@PEAVObjector@@PEAX@std@@SAXAEAV?$allocator@U?$_List_node@PEAVObjector@@PEAX@std@@@1@PEAU01@@Z DB 060H
	DD	imagerel $ip2state$??$_Freenode0@V?$allocator@U?$_List_node@PEAVObjector@@PEAX@std@@@std@@@?$_List_node@PEAVObjector@@PEAX@std@@SAXAEAV?$allocator@U?$_List_node@PEAVObjector@@PEAX@std@@@1@PEAU01@@Z
xdata	ENDS
;	COMDAT xdata
xdata	SEGMENT
$unwind$??$_Freenode0@V?$allocator@U?$_List_node@PEAVObjector@@PEAX@std@@@std@@@?$_List_node@PEAVObjector@@PEAX@std@@SAXAEAV?$allocator@U?$_List_node@PEAVObjector@@PEAX@std@@@1@PEAU01@@Z DD 025052f19H
	DD	01132318H
	DD	0700c001dH
	DD	0500bH
	DD	imagerel __CxxFrameHandler4
	DD	imagerel $cppxdata$??$_Freenode0@V?$allocator@U?$_List_node@PEAVObjector@@PEAX@std@@@std@@@?$_List_node@PEAVObjector@@PEAX@std@@SAXAEAV?$allocator@U?$_List_node@PEAVObjector@@PEAX@std@@@1@PEAU01@@Z
xdata	ENDS
;	COMDAT xdata
xdata	SEGMENT
$ip2state$??$_Free_non_head@V?$allocator@U?$_List_node@PEAVObjector@@PEAX@std@@@std@@@?$_List_node@PEAVObjector@@PEAX@std@@SAXAEAV?$allocator@U?$_List_node@PEAVObjector@@PEAX@std@@@1@PEAU01@@Z DB 02H
	DB	00H
	DB	00H
xdata	ENDS
;	COMDAT xdata
xdata	SEGMENT
$cppxdata$??$_Free_non_head@V?$allocator@U?$_List_node@PEAVObjector@@PEAX@std@@@std@@@?$_List_node@PEAVObjector@@PEAX@std@@SAXAEAV?$allocator@U?$_List_node@PEAVObjector@@PEAX@std@@@1@PEAU01@@Z DB 060H
	DD	imagerel $ip2state$??$_Free_non_head@V?$allocator@U?$_List_node@PEAVObjector@@PEAX@std@@@std@@@?$_List_node@PEAVObjector@@PEAX@std@@SAXAEAV?$allocator@U?$_List_node@PEAVObjector@@PEAX@std@@@1@PEAU01@@Z
xdata	ENDS
;	COMDAT xdata
xdata	SEGMENT
$unwind$??$_Free_non_head@V?$allocator@U?$_List_node@PEAVObjector@@PEAX@std@@@std@@@?$_List_node@PEAVObjector@@PEAX@std@@SAXAEAV?$allocator@U?$_List_node@PEAVObjector@@PEAX@std@@@1@PEAU01@@Z DD 025052f19H
	DD	01132318H
	DD	0700c0025H
	DD	0500bH
	DD	imagerel __CxxFrameHandler4
	DD	imagerel $cppxdata$??$_Free_non_head@V?$allocator@U?$_List_node@PEAVObjector@@PEAX@std@@@std@@@?$_List_node@PEAVObjector@@PEAX@std@@SAXAEAV?$allocator@U?$_List_node@PEAVObjector@@PEAX@std@@@1@PEAU01@@Z
xdata	ENDS
;	COMDAT xdata
xdata	SEGMENT
$ip2state$??$_Construct_in_place@PEAU?$_List_node@PEAVObjector@@PEAX@std@@AEAPEAU12@@std@@YAXAEAPEAU?$_List_node@PEAVObjector@@PEAX@0@0@Z DB 02H
	DB	00H
	DB	00H
xdata	ENDS
;	COMDAT xdata
xdata	SEGMENT
$cppxdata$??$_Construct_in_place@PEAU?$_List_node@PEAVObjector@@PEAX@std@@AEAPEAU12@@std@@YAXAEAPEAU?$_List_node@PEAVObjector@@PEAX@0@0@Z DB 060H
	DD	imagerel $ip2state$??$_Construct_in_place@PEAU?$_List_node@PEAVObjector@@PEAX@std@@AEAPEAU12@@std@@YAXAEAPEAU?$_List_node@PEAVObjector@@PEAX@0@0@Z
xdata	ENDS
;	COMDAT xdata
xdata	SEGMENT
$unwind$??$_Construct_in_place@PEAU?$_List_node@PEAVObjector@@PEAX@std@@AEAPEAU12@@std@@YAXAEAPEAU?$_List_node@PEAVObjector@@PEAX@0@0@Z DD 025052f19H
	DD	01132318H
	DD	0700c0021H
	DD	0500bH
	DD	imagerel __CxxFrameHandler4
	DD	imagerel $cppxdata$??$_Construct_in_place@PEAU?$_List_node@PEAVObjector@@PEAX@std@@AEAPEAU12@@std@@YAXAEAPEAU?$_List_node@PEAVObjector@@PEAX@0@0@Z
xdata	ENDS
;	COMDAT xdata
xdata	SEGMENT
$unwind$??$_Unfancy@U_Container_proxy@std@@@std@@YAPEAU_Container_proxy@0@PEAU10@@Z DD 025052a01H
	DD	010e2313H
	DD	07007001dH
	DD	05006H
xdata	ENDS
;	COMDAT xdata
xdata	SEGMENT
$ip2state$??1?$_Container_proxy_ptr12@V?$allocator@U_Container_proxy@std@@@std@@@std@@QEAA@XZ DB 02H
	DB	00H
	DB	00H
xdata	ENDS
;	COMDAT xdata
xdata	SEGMENT
$cppxdata$??1?$_Container_proxy_ptr12@V?$allocator@U_Container_proxy@std@@@std@@@std@@QEAA@XZ DB 060H
	DD	imagerel $ip2state$??1?$_Container_proxy_ptr12@V?$allocator@U_Container_proxy@std@@@std@@@std@@QEAA@XZ
xdata	ENDS
;	COMDAT xdata
xdata	SEGMENT
$unwind$??1?$_Container_proxy_ptr12@V?$allocator@U_Container_proxy@std@@@std@@@std@@QEAA@XZ DD 025052a19H
	DD	010e2313H
	DD	07007001dH
	DD	05006H
	DD	imagerel __CxxFrameHandler4
	DD	imagerel $cppxdata$??1?$_Container_proxy_ptr12@V?$allocator@U_Container_proxy@std@@@std@@@std@@QEAA@XZ
xdata	ENDS
;	COMDAT xdata
xdata	SEGMENT
$unwind$??0?$_Container_proxy_ptr12@V?$allocator@U_Container_proxy@std@@@std@@@std@@QEAA@AEAV?$allocator@U_Container_proxy@std@@@1@AEAU_Container_base12@1@@Z DD 025053401H
	DD	0118231dH
	DD	070110021H
	DD	05010H
xdata	ENDS
;	COMDAT xdata
xdata	SEGMENT
$unwind$??$?0$$V@?$_Compressed_pair@V?$allocator@U?$_List_node@PEAVObjector@@PEAX@std@@@std@@V?$_List_val@U?$_List_simple_types@PEAVObjector@@@std@@@2@$00@std@@QEAA@U_Zero_then_variadic_args_t@1@@Z DD 025052e01H
	DD	01122317H
	DD	0700b001dH
	DD	0500aH
xdata	ENDS
;	COMDAT xdata
xdata	SEGMENT
$ip2state$??$_Delete_plain_internal@V?$allocator@U_Container_proxy@std@@@std@@@std@@YAXAEAV?$allocator@U_Container_proxy@std@@@0@QEAU_Container_proxy@0@@Z DB 02H
	DB	00H
	DB	00H
xdata	ENDS
;	COMDAT xdata
xdata	SEGMENT
$cppxdata$??$_Delete_plain_internal@V?$allocator@U_Container_proxy@std@@@std@@@std@@YAXAEAV?$allocator@U_Container_proxy@std@@@0@QEAU_Container_proxy@0@@Z DB 060H
	DD	imagerel $ip2state$??$_Delete_plain_internal@V?$allocator@U_Container_proxy@std@@@std@@@std@@YAXAEAV?$allocator@U_Container_proxy@std@@@0@QEAU_Container_proxy@0@@Z
xdata	ENDS
;	COMDAT xdata
xdata	SEGMENT
$unwind$??$_Delete_plain_internal@V?$allocator@U_Container_proxy@std@@@std@@@std@@YAXAEAV?$allocator@U_Container_proxy@std@@@0@QEAU_Container_proxy@0@@Z DD 025052f19H
	DD	01132318H
	DD	0700c001dH
	DD	0500bH
	DD	imagerel __CxxFrameHandler4
	DD	imagerel $cppxdata$??$_Delete_plain_internal@V?$allocator@U_Container_proxy@std@@@std@@@std@@YAXAEAV?$allocator@U_Container_proxy@std@@@0@QEAU_Container_proxy@0@@Z
xdata	ENDS
;	COMDAT xdata
xdata	SEGMENT
$ip2state$??$?0U?$_List_node@PEAVObjector@@PEAX@std@@@?$allocator@U_Container_proxy@std@@@std@@QEAA@AEBV?$allocator@U?$_List_node@PEAVObjector@@PEAX@std@@@1@@Z DB 02H
	DB	00H
	DB	00H
xdata	ENDS
;	COMDAT xdata
xdata	SEGMENT
$cppxdata$??$?0U?$_List_node@PEAVObjector@@PEAX@std@@@?$allocator@U_Container_proxy@std@@@std@@QEAA@AEBV?$allocator@U?$_List_node@PEAVObjector@@PEAX@std@@@1@@Z DB 060H
	DD	imagerel $ip2state$??$?0U?$_List_node@PEAVObjector@@PEAX@std@@@?$allocator@U_Container_proxy@std@@@std@@QEAA@AEBV?$allocator@U?$_List_node@PEAVObjector@@PEAX@std@@@1@@Z
xdata	ENDS
;	COMDAT xdata
xdata	SEGMENT
$unwind$??$?0U?$_List_node@PEAVObjector@@PEAX@std@@@?$allocator@U_Container_proxy@std@@@std@@QEAA@AEBV?$allocator@U?$_List_node@PEAVObjector@@PEAX@std@@@1@@Z DD 025052f19H
	DD	01132318H
	DD	0700c001dH
	DD	0500bH
	DD	imagerel __CxxFrameHandler4
	DD	imagerel $cppxdata$??$?0U?$_List_node@PEAVObjector@@PEAX@std@@@?$allocator@U_Container_proxy@std@@@std@@QEAA@AEBV?$allocator@U?$_List_node@PEAVObjector@@PEAX@std@@@1@@Z
xdata	ENDS
;	COMDAT xdata
xdata	SEGMENT
$unwind$?allocate@?$allocator@U_Container_proxy@std@@@std@@QEAAPEAU_Container_proxy@2@_K@Z DD 025052f01H
	DD	01132318H
	DD	0700c001dH
	DD	0500bH
xdata	ENDS
;	COMDAT xdata
xdata	SEGMENT
$unwind$??$_Emplace@AEBQEAVObjector@@@?$list@PEAVObjector@@V?$allocator@PEAVObjector@@@std@@@std@@QEAAPEAU?$_List_node@PEAVObjector@@PEAX@1@QEAU21@AEBQEAVObjector@@@Z DD 025054519H
	DD	0118231dH
	DD	07011002dH
	DD	05010H
	DD	imagerel __GSHandlerCheck
	DD	0158H
xdata	ENDS
;	COMDAT CONST
CONST	SEGMENT
??$_Emplace@AEBQEAVObjector@@@?$list@PEAVObjector@@V?$allocator@PEAVObjector@@@std@@@std@@QEAAPEAU?$_List_node@PEAVObjector@@PEAX@1@QEAU21@AEBQEAVObjector@@@Z$rtcName$0 DB 05fH ; std::list<Objector *,std::allocator<Objector *> >::_Emplace<Objector * const &>
	DB	04fH
	DB	070H
	DB	00H
	ORG $+12
??$_Emplace@AEBQEAVObjector@@@?$list@PEAVObjector@@V?$allocator@PEAVObjector@@@std@@@std@@QEAAPEAU?$_List_node@PEAVObjector@@PEAX@1@QEAU21@AEBQEAVObjector@@@Z$rtcVarDesc DD 048H ; std::list<Objector *,std::allocator<Objector *> >::_Emplace<Objector * const &>
	DD	010H
	DQ	FLAT:??$_Emplace@AEBQEAVObjector@@@?$list@PEAVObjector@@V?$allocator@PEAVObjector@@@std@@@std@@QEAAPEAU?$_List_node@PEAVObjector@@PEAX@1@QEAU21@AEBQEAVObjector@@@Z$rtcName$0
	ORG $+48
??$_Emplace@AEBQEAVObjector@@@?$list@PEAVObjector@@V?$allocator@PEAVObjector@@@std@@@std@@QEAAPEAU?$_List_node@PEAVObjector@@PEAX@1@QEAU21@AEBQEAVObjector@@@Z$rtcFrameData DD 01H ; std::list<Objector *,std::allocator<Objector *> >::_Emplace<Objector * const &>
	DD	00H
	DQ	FLAT:??$_Emplace@AEBQEAVObjector@@@?$list@PEAVObjector@@V?$allocator@PEAVObjector@@@std@@@std@@QEAAPEAU?$_List_node@PEAVObjector@@PEAX@1@QEAU21@AEBQEAVObjector@@@Z$rtcVarDesc
CONST	ENDS
;	COMDAT xdata
xdata	SEGMENT
$unwind$??$exchange@PEAU?$_List_node@PEAVObjector@@PEAX@std@@PEAU12@@std@@YAPEAU?$_List_node@PEAVObjector@@PEAX@0@AEAPEAU10@$$QEAPEAU10@@Z DD 025052f01H
	DD	01132318H
	DD	0700c0021H
	DD	0500bH
xdata	ENDS
;	COMDAT xdata
xdata	SEGMENT
$unwind$??$destroy@PEAVObjector@@@?$_Default_allocator_traits@V?$allocator@U?$_List_node@PEAVObjector@@PEAX@std@@@std@@@std@@SAXAEAV?$allocator@U?$_List_node@PEAVObjector@@PEAX@std@@@1@QEAPEAVObjector@@@Z DD 025052f01H
	DD	01132318H
	DD	0700c001dH
	DD	0500bH
xdata	ENDS
;	COMDAT xdata
xdata	SEGMENT
$ip2state$??$addressof@PEAVObjector@@@std@@YAPEAPEAVObjector@@AEAPEAV1@@Z DB 02H
	DB	00H
	DB	00H
xdata	ENDS
;	COMDAT xdata
xdata	SEGMENT
$cppxdata$??$addressof@PEAVObjector@@@std@@YAPEAPEAVObjector@@AEAPEAV1@@Z DB 060H
	DD	imagerel $ip2state$??$addressof@PEAVObjector@@@std@@YAPEAPEAVObjector@@AEAPEAV1@@Z
xdata	ENDS
;	COMDAT xdata
xdata	SEGMENT
$unwind$??$addressof@PEAVObjector@@@std@@YAPEAPEAVObjector@@AEAPEAV1@@Z DD 025052a19H
	DD	010e2313H
	DD	07007001dH
	DD	05006H
	DD	imagerel __CxxFrameHandler4
	DD	imagerel $cppxdata$??$addressof@PEAVObjector@@@std@@YAPEAPEAVObjector@@AEAPEAV1@@Z
xdata	ENDS
;	COMDAT xdata
xdata	SEGMENT
$unwind$??$destroy@PEAU?$_List_node@PEAVObjector@@PEAX@std@@@?$_Default_allocator_traits@V?$allocator@U?$_List_node@PEAVObjector@@PEAX@std@@@std@@@std@@SAXAEAV?$allocator@U?$_List_node@PEAVObjector@@PEAX@std@@@1@QEAPEAU?$_List_node@PEAVObjector@@PEAX@1@@Z DD 025052f01H
	DD	01132318H
	DD	0700c001dH
	DD	0500bH
xdata	ENDS
;	COMDAT xdata
xdata	SEGMENT
$ip2state$??$addressof@PEAU?$_List_node@PEAVObjector@@PEAX@std@@@std@@YAPEAPEAU?$_List_node@PEAVObjector@@PEAX@0@AEAPEAU10@@Z DB 02H
	DB	00H
	DB	00H
xdata	ENDS
;	COMDAT xdata
xdata	SEGMENT
$cppxdata$??$addressof@PEAU?$_List_node@PEAVObjector@@PEAX@std@@@std@@YAPEAPEAU?$_List_node@PEAVObjector@@PEAX@0@AEAPEAU10@@Z DB 060H
	DD	imagerel $ip2state$??$addressof@PEAU?$_List_node@PEAVObjector@@PEAX@std@@@std@@YAPEAPEAU?$_List_node@PEAVObjector@@PEAX@0@AEAPEAU10@@Z
xdata	ENDS
;	COMDAT xdata
xdata	SEGMENT
$unwind$??$addressof@PEAU?$_List_node@PEAVObjector@@PEAX@std@@@std@@YAPEAPEAU?$_List_node@PEAVObjector@@PEAX@0@AEAPEAU10@@Z DD 025052a19H
	DD	010e2313H
	DD	07007001dH
	DD	05006H
	DD	imagerel __CxxFrameHandler4
	DD	imagerel $cppxdata$??$addressof@PEAU?$_List_node@PEAVObjector@@PEAX@std@@@std@@YAPEAPEAU?$_List_node@PEAVObjector@@PEAX@0@AEAPEAU10@@Z
xdata	ENDS
;	COMDAT xdata
xdata	SEGMENT
$unwind$??$endl@DU?$char_traits@D@std@@@std@@YAAEAV?$basic_ostream@DU?$char_traits@D@std@@@0@AEAV10@@Z DD 025052a01H
	DD	010e2313H
	DD	07007001fH
	DD	05006H
xdata	ENDS
;	COMDAT xdata
xdata	SEGMENT
$unwind$?catch$1@?0???$?6U?$char_traits@D@std@@@std@@YAAEAV?$basic_ostream@DU?$char_traits@D@std@@@0@AEAV10@PEBD@Z@4HA DD 031001H
	DD	0700c4210H
	DD	0500bH
xdata	ENDS
;	COMDAT xdata
xdata	SEGMENT
$unwind$?dtor$0@?0???$?6U?$char_traits@D@std@@@std@@YAAEAV?$basic_ostream@DU?$char_traits@D@std@@@0@AEAV10@PEBD@Z@4HA DD 031001H
	DD	0700c4210H
	DD	0500bH
xdata	ENDS
;	COMDAT xdata
xdata	SEGMENT
$ip2state$??$?6U?$char_traits@D@std@@@std@@YAAEAV?$basic_ostream@DU?$char_traits@D@std@@@0@AEAV10@PEBD@Z DB 0aH
	DB	00H
	DB	00H
	DB	'9', 04H
	DB	02H
	DB	'<'
	DB	04H
	DB	0d1H, 0aH
	DB	02H
	DB	08aH
	DB	00H
xdata	ENDS
;	COMDAT xdata
xdata	SEGMENT
$handlerMap$??$?6U?$char_traits@D@std@@@std@@YAAEAV?$basic_ostream@DU?$char_traits@D@std@@@0@AEAV10@PEBD@Z DB 02H
	DB	01H
	DB	080H
	DD	imagerel ?catch$1@?0???$?6U?$char_traits@D@std@@@std@@YAAEAV?$basic_ostream@DU?$char_traits@D@std@@@0@AEAV10@PEBD@Z@4HA
xdata	ENDS
;	COMDAT xdata
xdata	SEGMENT
$tryMap$??$?6U?$char_traits@D@std@@@std@@YAAEAV?$basic_ostream@DU?$char_traits@D@std@@@0@AEAV10@PEBD@Z DB 02H
	DB	02H
	DB	02H
	DB	04H
	DD	imagerel $handlerMap$??$?6U?$char_traits@D@std@@@std@@YAAEAV?$basic_ostream@DU?$char_traits@D@std@@@0@AEAV10@PEBD@Z
xdata	ENDS
;	COMDAT xdata
xdata	SEGMENT
$stateUnwindMap$??$?6U?$char_traits@D@std@@@std@@YAAEAV?$basic_ostream@DU?$char_traits@D@std@@@0@AEAV10@PEBD@Z DB 06H
	DB	0eH
	DD	imagerel ?dtor$0@?0???$?6U?$char_traits@D@std@@@std@@YAAEAV?$basic_ostream@DU?$char_traits@D@std@@@0@AEAV10@PEBD@Z@4HA
	DB	028H
	DB	030H
xdata	ENDS
;	COMDAT xdata
xdata	SEGMENT
$cppxdata$??$?6U?$char_traits@D@std@@@std@@YAAEAV?$basic_ostream@DU?$char_traits@D@std@@@0@AEAV10@PEBD@Z DB 038H
	DD	imagerel $stateUnwindMap$??$?6U?$char_traits@D@std@@@std@@YAAEAV?$basic_ostream@DU?$char_traits@D@std@@@0@AEAV10@PEBD@Z
	DD	imagerel $tryMap$??$?6U?$char_traits@D@std@@@std@@YAAEAV?$basic_ostream@DU?$char_traits@D@std@@@0@AEAV10@PEBD@Z
	DD	imagerel $ip2state$??$?6U?$char_traits@D@std@@@std@@YAAEAV?$basic_ostream@DU?$char_traits@D@std@@@0@AEAV10@PEBD@Z
xdata	ENDS
;	COMDAT xdata
xdata	SEGMENT
$unwind$??$?6U?$char_traits@D@std@@@std@@YAAEAV?$basic_ostream@DU?$char_traits@D@std@@@0@AEAV10@PEBD@Z DD 025054019H
	DD	01132318H
	DD	0700c0047H
	DD	0500bH
	DD	imagerel __GSHandlerCheck_EH4
	DD	imagerel $cppxdata$??$?6U?$char_traits@D@std@@@std@@YAAEAV?$basic_ostream@DU?$char_traits@D@std@@@0@AEAV10@PEBD@Z
	DD	0223H
xdata	ENDS
;	COMDAT CONST
CONST	SEGMENT
??$?6U?$char_traits@D@std@@@std@@YAAEAV?$basic_ostream@DU?$char_traits@D@std@@@0@AEAV10@PEBD@Z$rtcName$0 DB 05fH ; std::operator<<<std::char_traits<char> >
	DB	04fH
	DB	06bH
	DB	00H
	ORG $+12
??$?6U?$char_traits@D@std@@@std@@YAAEAV?$basic_ostream@DU?$char_traits@D@std@@@0@AEAV10@PEBD@Z$rtcVarDesc DD 088H ; std::operator<<<std::char_traits<char> >
	DD	010H
	DQ	FLAT:??$?6U?$char_traits@D@std@@@std@@YAAEAV?$basic_ostream@DU?$char_traits@D@std@@@0@AEAV10@PEBD@Z$rtcName$0
	ORG $+48
??$?6U?$char_traits@D@std@@@std@@YAAEAV?$basic_ostream@DU?$char_traits@D@std@@@0@AEAV10@PEBD@Z$rtcFrameData DD 01H ; std::operator<<<std::char_traits<char> >
	DD	00H
	DQ	FLAT:??$?6U?$char_traits@D@std@@@std@@YAAEAV?$basic_ostream@DU?$char_traits@D@std@@@0@AEAV10@PEBD@Z$rtcVarDesc
CONST	ENDS
;	COMDAT xdata
xdata	SEGMENT
$unwind$?__autoclassinit2@?$_List_unchecked_iterator@V?$_List_val@U?$_List_simple_types@PEAVObjector@@@std@@@std@@@std@@QEAAX_K@Z DD 05052d01H
	DD	01130316H
	DD	0700c0019H
	DD	0500bH
xdata	ENDS
;	COMDAT xdata
xdata	SEGMENT
$unwind$??E?$_List_unchecked_iterator@V?$_List_val@U?$_List_simple_types@PEAVObjector@@@std@@@std@@@std@@QEAAAEAV01@XZ DD 025052a01H
	DD	010e2313H
	DD	07007001dH
	DD	05006H
xdata	ENDS
;	COMDAT xdata
xdata	SEGMENT
$unwind$??D?$_List_unchecked_iterator@V?$_List_val@U?$_List_simple_types@PEAVObjector@@@std@@@std@@@std@@QEBAAEAPEAVObjector@@XZ DD 025052a01H
	DD	010e2313H
	DD	07007001dH
	DD	05006H
xdata	ENDS
;	COMDAT xdata
xdata	SEGMENT
$unwind$??0?$_List_unchecked_iterator@V?$_List_val@U?$_List_simple_types@PEAVObjector@@@std@@@std@@@std@@QEAA@PEAU?$_List_node@PEAVObjector@@PEAX@1@PEBV?$_List_val@U?$_List_simple_types@PEAVObjector@@@std@@@1@@Z DD 025053401H
	DD	0118231dH
	DD	07011001dH
	DD	05010H
xdata	ENDS
;	COMDAT xdata
xdata	SEGMENT
$unwind$??9?$_List_unchecked_const_iterator@V?$_List_val@U?$_List_simple_types@PEAVObjector@@@std@@@std@@U_Iterator_base0@2@@std@@QEBA_NAEBV01@@Z DD 025052f01H
	DD	01132318H
	DD	0700c001fH
	DD	0500bH
xdata	ENDS
;	COMDAT xdata
xdata	SEGMENT
$unwind$??8?$_List_unchecked_const_iterator@V?$_List_val@U?$_List_simple_types@PEAVObjector@@@std@@@std@@U_Iterator_base0@2@@std@@QEBA_NAEBV01@@Z DD 025052f01H
	DD	01132318H
	DD	0700c001fH
	DD	0500bH
xdata	ENDS
;	COMDAT xdata
xdata	SEGMENT
$unwind$??E?$_List_unchecked_const_iterator@V?$_List_val@U?$_List_simple_types@PEAVObjector@@@std@@@std@@U_Iterator_base0@2@@std@@QEAAAEAV01@XZ DD 025052a01H
	DD	010e2313H
	DD	07007001dH
	DD	05006H
xdata	ENDS
;	COMDAT xdata
xdata	SEGMENT
$unwind$??D?$_List_unchecked_const_iterator@V?$_List_val@U?$_List_simple_types@PEAVObjector@@@std@@@std@@U_Iterator_base0@2@@std@@QEBAAEBQEAVObjector@@XZ DD 025052a01H
	DD	010e2313H
	DD	07007001dH
	DD	05006H
xdata	ENDS
;	COMDAT xdata
xdata	SEGMENT
$unwind$??0?$_List_unchecked_const_iterator@V?$_List_val@U?$_List_simple_types@PEAVObjector@@@std@@@std@@U_Iterator_base0@2@@std@@QEAA@PEAU?$_List_node@PEAVObjector@@PEAX@1@PEBV?$_List_val@U?$_List_simple_types@PEAVObjector@@@std@@@1@@Z DD 025053401H
	DD	0118231dH
	DD	07011001dH
	DD	05010H
xdata	ENDS
;	COMDAT xdata
xdata	SEGMENT
$ip2state$??1_List_node_remove_op@?$list@PEAVObjector@@V?$allocator@PEAVObjector@@@std@@@std@@QEAA@XZ DB 02H
	DB	00H
	DB	00H
xdata	ENDS
;	COMDAT xdata
xdata	SEGMENT
$cppxdata$??1_List_node_remove_op@?$list@PEAVObjector@@V?$allocator@PEAVObjector@@@std@@@std@@QEAA@XZ DB 060H
	DD	imagerel $ip2state$??1_List_node_remove_op@?$list@PEAVObjector@@V?$allocator@PEAVObjector@@@std@@@std@@QEAA@XZ
xdata	ENDS
;	COMDAT xdata
xdata	SEGMENT
$unwind$??1_List_node_remove_op@?$list@PEAVObjector@@V?$allocator@PEAVObjector@@@std@@@std@@QEAA@XZ DD 025053b19H
	DD	010e2313H
	DD	07007003bH
	DD	05006H
	DD	imagerel __GSHandlerCheck_EH4
	DD	imagerel $cppxdata$??1_List_node_remove_op@?$list@PEAVObjector@@V?$allocator@PEAVObjector@@@std@@@std@@QEAA@XZ
	DD	01c3H
xdata	ENDS
;	COMDAT CONST
CONST	SEGMENT
??1_List_node_remove_op@?$list@PEAVObjector@@V?$allocator@PEAVObjector@@@std@@@std@@QEAA@XZ$rtcName$0 DB 05fH ; std::list<Objector *,std::allocator<Objector *> >::_List_node_remove_op::~_List_node_remove_op
	DB	04cH
	DB	06fH
	DB	063H
	DB	06bH
	DB	00H
	ORG $+10
??1_List_node_remove_op@?$list@PEAVObjector@@V?$allocator@PEAVObjector@@@std@@@std@@QEAA@XZ$rtcVarDesc DD 044H ; std::list<Objector *,std::allocator<Objector *> >::_List_node_remove_op::~_List_node_remove_op
	DD	04H
	DQ	FLAT:??1_List_node_remove_op@?$list@PEAVObjector@@V?$allocator@PEAVObjector@@@std@@@std@@QEAA@XZ$rtcName$0
	ORG $+48
??1_List_node_remove_op@?$list@PEAVObjector@@V?$allocator@PEAVObjector@@@std@@@std@@QEAA@XZ$rtcFrameData DD 01H ; std::list<Objector *,std::allocator<Objector *> >::_List_node_remove_op::~_List_node_remove_op
	DD	00H
	DQ	FLAT:??1_List_node_remove_op@?$list@PEAVObjector@@V?$allocator@PEAVObjector@@@std@@@std@@QEAA@XZ$rtcVarDesc
CONST	ENDS
;	COMDAT xdata
xdata	SEGMENT
$ip2state$?_Transfer_back@_List_node_remove_op@?$list@PEAVObjector@@V?$allocator@PEAVObjector@@@std@@@std@@QEAAPEAU?$_List_node@PEAVObjector@@PEAX@3@QEAU43@@Z DB 02H
	DB	00H
	DB	00H
xdata	ENDS
;	COMDAT xdata
xdata	SEGMENT
$cppxdata$?_Transfer_back@_List_node_remove_op@?$list@PEAVObjector@@V?$allocator@PEAVObjector@@@std@@@std@@QEAAPEAU?$_List_node@PEAVObjector@@PEAX@3@QEAU43@@Z DB 060H
	DD	imagerel $ip2state$?_Transfer_back@_List_node_remove_op@?$list@PEAVObjector@@V?$allocator@PEAVObjector@@@std@@@std@@QEAAPEAU?$_List_node@PEAVObjector@@PEAX@3@QEAU43@@Z
xdata	ENDS
;	COMDAT xdata
xdata	SEGMENT
$unwind$?_Transfer_back@_List_node_remove_op@?$list@PEAVObjector@@V?$allocator@PEAVObjector@@@std@@@std@@QEAAPEAU?$_List_node@PEAVObjector@@PEAX@3@QEAU43@@Z DD 025052f19H
	DD	01132318H
	DD	0700c0029H
	DD	0500bH
	DD	imagerel __CxxFrameHandler4
	DD	imagerel $cppxdata$?_Transfer_back@_List_node_remove_op@?$list@PEAVObjector@@V?$allocator@PEAVObjector@@@std@@@std@@QEAAPEAU?$_List_node@PEAVObjector@@PEAX@3@QEAU43@@Z
xdata	ENDS
;	COMDAT xdata
xdata	SEGMENT
$ip2state$??0_List_node_remove_op@?$list@PEAVObjector@@V?$allocator@PEAVObjector@@@std@@@std@@QEAA@AEAV12@@Z DB 02H
	DB	00H
	DB	00H
xdata	ENDS
;	COMDAT xdata
xdata	SEGMENT
$cppxdata$??0_List_node_remove_op@?$list@PEAVObjector@@V?$allocator@PEAVObjector@@@std@@@std@@QEAA@AEAV12@@Z DB 060H
	DD	imagerel $ip2state$??0_List_node_remove_op@?$list@PEAVObjector@@V?$allocator@PEAVObjector@@@std@@@std@@QEAA@AEAV12@@Z
xdata	ENDS
;	COMDAT xdata
xdata	SEGMENT
$unwind$??0_List_node_remove_op@?$list@PEAVObjector@@V?$allocator@PEAVObjector@@@std@@@std@@QEAA@AEAV12@@Z DD 025052f19H
	DD	01132318H
	DD	0700c001dH
	DD	0500bH
	DD	imagerel __CxxFrameHandler4
	DD	imagerel $cppxdata$??0_List_node_remove_op@?$list@PEAVObjector@@V?$allocator@PEAVObjector@@@std@@@std@@QEAA@AEAV12@@Z
xdata	ENDS
;	COMDAT xdata
xdata	SEGMENT
$unwind$?dtor$0@?0???$remove_if@V<lambda_1>@?1??remove@?$list@PEAVObjector@@V?$allocator@PEAVObjector@@@std@@@std@@QEAA@AEBQEAVObjector@@@Z@@?$list@PEAVObjector@@V?$allocator@PEAVObjector@@@std@@@std@@QEAA@V<lambda_1>@?1??remove@01@QEAA@AEBQEAVObjector@@@Z@@Z@4HA DD 031001H
	DD	0700c4210H
	DD	0500bH
xdata	ENDS
;	COMDAT xdata
xdata	SEGMENT
$ip2state$??$remove_if@V<lambda_1>@?1??remove@?$list@PEAVObjector@@V?$allocator@PEAVObjector@@@std@@@std@@QEAA@AEBQEAVObjector@@@Z@@?$list@PEAVObjector@@V?$allocator@PEAVObjector@@@std@@@std@@QEAA@V<lambda_1>@?1??remove@01@QEAA@AEBQEAVObjector@@@Z@@Z DB 06H
	DB	00H
	DB	00H
	DB	0d0H
	DB	02H
	DB	'y', 02H
	DB	00H
xdata	ENDS
;	COMDAT xdata
xdata	SEGMENT
$stateUnwindMap$??$remove_if@V<lambda_1>@?1??remove@?$list@PEAVObjector@@V?$allocator@PEAVObjector@@@std@@@std@@QEAA@AEBQEAVObjector@@@Z@@?$list@PEAVObjector@@V?$allocator@PEAVObjector@@@std@@@std@@QEAA@V<lambda_1>@?1??remove@01@QEAA@AEBQEAVObjector@@@Z@@Z DB 02H
	DB	0eH
	DD	imagerel ?dtor$0@?0???$remove_if@V<lambda_1>@?1??remove@?$list@PEAVObjector@@V?$allocator@PEAVObjector@@@std@@@std@@QEAA@AEBQEAVObjector@@@Z@@?$list@PEAVObjector@@V?$allocator@PEAVObjector@@@std@@@std@@QEAA@V<lambda_1>@?1??remove@01@QEAA@AEBQEAVObjector@@@Z@@Z@4HA
xdata	ENDS
;	COMDAT xdata
xdata	SEGMENT
$cppxdata$??$remove_if@V<lambda_1>@?1??remove@?$list@PEAVObjector@@V?$allocator@PEAVObjector@@@std@@@std@@QEAA@AEBQEAVObjector@@@Z@@?$list@PEAVObjector@@V?$allocator@PEAVObjector@@@std@@@std@@QEAA@V<lambda_1>@?1??remove@01@QEAA@AEBQEAVObjector@@@Z@@Z DB 028H
	DD	imagerel $stateUnwindMap$??$remove_if@V<lambda_1>@?1??remove@?$list@PEAVObjector@@V?$allocator@PEAVObjector@@@std@@@std@@QEAA@AEBQEAVObjector@@@Z@@?$list@PEAVObjector@@V?$allocator@PEAVObjector@@@std@@@std@@QEAA@V<lambda_1>@?1??remove@01@QEAA@AEBQEAVObjector@@@Z@@Z
	DD	imagerel $ip2state$??$remove_if@V<lambda_1>@?1??remove@?$list@PEAVObjector@@V?$allocator@PEAVObjector@@@std@@@std@@QEAA@AEBQEAVObjector@@@Z@@?$list@PEAVObjector@@V?$allocator@PEAVObjector@@@std@@@std@@QEAA@V<lambda_1>@?1??remove@01@QEAA@AEBQEAVObjector@@@Z@@Z
xdata	ENDS
;	COMDAT xdata
xdata	SEGMENT
$unwind$??$remove_if@V<lambda_1>@?1??remove@?$list@PEAVObjector@@V?$allocator@PEAVObjector@@@std@@@std@@QEAA@AEBQEAVObjector@@@Z@@?$list@PEAVObjector@@V?$allocator@PEAVObjector@@@std@@@std@@QEAA@V<lambda_1>@?1??remove@01@QEAA@AEBQEAVObjector@@@Z@@Z DD 025054019H
	DD	01132318H
	DD	0700c003bH
	DD	0500bH
	DD	imagerel __GSHandlerCheck_EH4
	DD	imagerel $cppxdata$??$remove_if@V<lambda_1>@?1??remove@?$list@PEAVObjector@@V?$allocator@PEAVObjector@@@std@@@std@@QEAA@AEBQEAVObjector@@@Z@@?$list@PEAVObjector@@V?$allocator@PEAVObjector@@@std@@@std@@QEAA@V<lambda_1>@?1??remove@01@QEAA@AEBQEAVObjector@@@Z@@Z
	DD	01caH
xdata	ENDS
;	COMDAT CONST
CONST	SEGMENT
??$remove_if@V<lambda_1>@?1??remove@?$list@PEAVObjector@@V?$allocator@PEAVObjector@@@std@@@std@@QEAA@AEBQEAVObjector@@@Z@@?$list@PEAVObjector@@V?$allocator@PEAVObjector@@@std@@@std@@QEAA@V<lambda_1>@?1??remove@01@QEAA@AEBQEAVObjector@@@Z@@Z$rtcName$0 DB 05fH ; std::list<Objector *,std::allocator<Objector *> >::remove_if<`std::list<Objector *,std::allocator<Objector *> >::remove'::`2'::<lambda_1> >
	DB	04fH
	DB	070H
	DB	00H
	ORG $+12
??$remove_if@V<lambda_1>@?1??remove@?$list@PEAVObjector@@V?$allocator@PEAVObjector@@@std@@@std@@QEAA@AEBQEAVObjector@@@Z@@?$list@PEAVObjector@@V?$allocator@PEAVObjector@@@std@@@std@@QEAA@V<lambda_1>@?1??remove@01@QEAA@AEBQEAVObjector@@@Z@@Z$rtcVarDesc DD 048H ; std::list<Objector *,std::allocator<Objector *> >::remove_if<`std::list<Objector *,std::allocator<Objector *> >::remove'::`2'::<lambda_1> >
	DD	018H
	DQ	FLAT:??$remove_if@V<lambda_1>@?1??remove@?$list@PEAVObjector@@V?$allocator@PEAVObjector@@@std@@@std@@QEAA@AEBQEAVObjector@@@Z@@?$list@PEAVObjector@@V?$allocator@PEAVObjector@@@std@@@std@@QEAA@V<lambda_1>@?1??remove@01@QEAA@AEBQEAVObjector@@@Z@@Z$rtcName$0
	ORG $+48
??$remove_if@V<lambda_1>@?1??remove@?$list@PEAVObjector@@V?$allocator@PEAVObjector@@@std@@@std@@QEAA@AEBQEAVObjector@@@Z@@?$list@PEAVObjector@@V?$allocator@PEAVObjector@@@std@@@std@@QEAA@V<lambda_1>@?1??remove@01@QEAA@AEBQEAVObjector@@@Z@@Z$rtcFrameData DD 01H ; std::list<Objector *,std::allocator<Objector *> >::remove_if<`std::list<Objector *,std::allocator<Objector *> >::remove'::`2'::<lambda_1> >
	DD	00H
	DQ	FLAT:??$remove_if@V<lambda_1>@?1??remove@?$list@PEAVObjector@@V?$allocator@PEAVObjector@@@std@@@std@@QEAA@AEBQEAVObjector@@@Z@@?$list@PEAVObjector@@V?$allocator@PEAVObjector@@@std@@@std@@QEAA@V<lambda_1>@?1??remove@01@QEAA@AEBQEAVObjector@@@Z@@Z$rtcVarDesc
CONST	ENDS
;	COMDAT xdata
xdata	SEGMENT
$unwind$??0<lambda_1>@?1??remove@?$list@PEAVObjector@@V?$allocator@PEAVObjector@@@std@@@std@@QEAA@AEBQEAVObjector@@@Z@QEAA@0@Z DD 025052f01H
	DD	01132318H
	DD	0700c001dH
	DD	0500bH
xdata	ENDS
;	COMDAT xdata
xdata	SEGMENT
$unwind$??R<lambda_1>@?1??remove@?$list@PEAVObjector@@V?$allocator@PEAVObjector@@@std@@@std@@QEAA@AEBQEAVObjector@@@Z@QEBA@0@Z DD 025052f01H
	DD	01132318H
	DD	0700c001fH
	DD	0500bH
xdata	ENDS
;	COMDAT xdata
xdata	SEGMENT
$unwind$??_GSubject@@UEAAPEAXI@Z DD 025052e01H
	DD	01122317H
	DD	0700b001dH
	DD	0500aH
xdata	ENDS
;	COMDAT xdata
xdata	SEGMENT
$unwind$?__autoclassinit2@Subject@@QEAAX_K@Z DD 05052d01H
	DD	01130316H
	DD	0700c0019H
	DD	0500bH
xdata	ENDS
;	COMDAT xdata
xdata	SEGMENT
$ip2state$?_Get_first@?$_Compressed_pair@V?$allocator@U?$_List_node@PEAVObjector@@PEAX@std@@@std@@V?$_List_val@U?$_List_simple_types@PEAVObjector@@@std@@@2@$00@std@@QEBAAEBV?$allocator@U?$_List_node@PEAVObjector@@PEAX@std@@@2@XZ DB 02H
	DB	00H
	DB	00H
xdata	ENDS
;	COMDAT xdata
xdata	SEGMENT
$cppxdata$?_Get_first@?$_Compressed_pair@V?$allocator@U?$_List_node@PEAVObjector@@PEAX@std@@@std@@V?$_List_val@U?$_List_simple_types@PEAVObjector@@@std@@@2@$00@std@@QEBAAEBV?$allocator@U?$_List_node@PEAVObjector@@PEAX@std@@@2@XZ DB 060H
	DD	imagerel $ip2state$?_Get_first@?$_Compressed_pair@V?$allocator@U?$_List_node@PEAVObjector@@PEAX@std@@@std@@V?$_List_val@U?$_List_simple_types@PEAVObjector@@@std@@@2@$00@std@@QEBAAEBV?$allocator@U?$_List_node@PEAVObjector@@PEAX@std@@@2@XZ
xdata	ENDS
;	COMDAT xdata
xdata	SEGMENT
$unwind$?_Get_first@?$_Compressed_pair@V?$allocator@U?$_List_node@PEAVObjector@@PEAX@std@@@std@@V?$_List_val@U?$_List_simple_types@PEAVObjector@@@std@@@2@$00@std@@QEBAAEBV?$allocator@U?$_List_node@PEAVObjector@@PEAX@std@@@2@XZ DD 025052a19H
	DD	010e2313H
	DD	07007001dH
	DD	05006H
	DD	imagerel __CxxFrameHandler4
	DD	imagerel $cppxdata$?_Get_first@?$_Compressed_pair@V?$allocator@U?$_List_node@PEAVObjector@@PEAX@std@@@std@@V?$_List_val@U?$_List_simple_types@PEAVObjector@@@std@@@2@$00@std@@QEBAAEBV?$allocator@U?$_List_node@PEAVObjector@@PEAX@std@@@2@XZ
xdata	ENDS
;	COMDAT xdata
xdata	SEGMENT
$ip2state$?_Get_first@?$_Compressed_pair@V?$allocator@U?$_List_node@PEAVObjector@@PEAX@std@@@std@@V?$_List_val@U?$_List_simple_types@PEAVObjector@@@std@@@2@$00@std@@QEAAAEAV?$allocator@U?$_List_node@PEAVObjector@@PEAX@std@@@2@XZ DB 02H
	DB	00H
	DB	00H
xdata	ENDS
;	COMDAT xdata
xdata	SEGMENT
$cppxdata$?_Get_first@?$_Compressed_pair@V?$allocator@U?$_List_node@PEAVObjector@@PEAX@std@@@std@@V?$_List_val@U?$_List_simple_types@PEAVObjector@@@std@@@2@$00@std@@QEAAAEAV?$allocator@U?$_List_node@PEAVObjector@@PEAX@std@@@2@XZ DB 060H
	DD	imagerel $ip2state$?_Get_first@?$_Compressed_pair@V?$allocator@U?$_List_node@PEAVObjector@@PEAX@std@@@std@@V?$_List_val@U?$_List_simple_types@PEAVObjector@@@std@@@2@$00@std@@QEAAAEAV?$allocator@U?$_List_node@PEAVObjector@@PEAX@std@@@2@XZ
xdata	ENDS
;	COMDAT xdata
xdata	SEGMENT
$unwind$?_Get_first@?$_Compressed_pair@V?$allocator@U?$_List_node@PEAVObjector@@PEAX@std@@@std@@V?$_List_val@U?$_List_simple_types@PEAVObjector@@@std@@@2@$00@std@@QEAAAEAV?$allocator@U?$_List_node@PEAVObjector@@PEAX@std@@@2@XZ DD 025052a19H
	DD	010e2313H
	DD	07007001dH
	DD	05006H
	DD	imagerel __CxxFrameHandler4
	DD	imagerel $cppxdata$?_Get_first@?$_Compressed_pair@V?$allocator@U?$_List_node@PEAVObjector@@PEAX@std@@@std@@V?$_List_val@U?$_List_simple_types@PEAVObjector@@@std@@@2@$00@std@@QEAAAEAV?$allocator@U?$_List_node@PEAVObjector@@PEAX@std@@@2@XZ
xdata	ENDS
;	COMDAT xdata
xdata	SEGMENT
$ip2state$?_Orphan_ptr2@?$_List_val@U?$_List_simple_types@PEAVObjector@@@std@@@std@@QEAAXPEAU?$_List_node@PEAVObjector@@PEAX@2@@Z DB 02H
	DB	00H
	DB	00H
xdata	ENDS
;	COMDAT xdata
xdata	SEGMENT
$cppxdata$?_Orphan_ptr2@?$_List_val@U?$_List_simple_types@PEAVObjector@@@std@@@std@@QEAAXPEAU?$_List_node@PEAVObjector@@PEAX@2@@Z DB 060H
	DD	imagerel $ip2state$?_Orphan_ptr2@?$_List_val@U?$_List_simple_types@PEAVObjector@@@std@@@std@@QEAAXPEAU?$_List_node@PEAVObjector@@PEAX@2@@Z
xdata	ENDS
;	COMDAT xdata
xdata	SEGMENT
$unwind$?_Orphan_ptr2@?$_List_val@U?$_List_simple_types@PEAVObjector@@@std@@@std@@QEAAXPEAU?$_List_node@PEAVObjector@@PEAX@2@@Z DD 025054019H
	DD	01132318H
	DD	0700c0031H
	DD	0500bH
	DD	imagerel __GSHandlerCheck_EH4
	DD	imagerel $cppxdata$?_Orphan_ptr2@?$_List_val@U?$_List_simple_types@PEAVObjector@@@std@@@std@@QEAAXPEAU?$_List_node@PEAVObjector@@PEAX@2@@Z
	DD	017bH
xdata	ENDS
;	COMDAT CONST
CONST	SEGMENT
?_Orphan_ptr2@?$_List_val@U?$_List_simple_types@PEAVObjector@@@std@@@std@@QEAAXPEAU?$_List_node@PEAVObjector@@PEAX@2@@Z$rtcName$0 DB 05fH ; std::_List_val<std::_List_simple_types<Objector *> >::_Orphan_ptr2
	DB	04cH
	DB	06fH
	DB	063H
	DB	06bH
	DB	00H
	ORG $+10
?_Orphan_ptr2@?$_List_val@U?$_List_simple_types@PEAVObjector@@@std@@@std@@QEAAXPEAU?$_List_node@PEAVObjector@@PEAX@2@@Z$rtcVarDesc DD 024H ; std::_List_val<std::_List_simple_types<Objector *> >::_Orphan_ptr2
	DD	04H
	DQ	FLAT:?_Orphan_ptr2@?$_List_val@U?$_List_simple_types@PEAVObjector@@@std@@@std@@QEAAXPEAU?$_List_node@PEAVObjector@@PEAX@2@@Z$rtcName$0
	ORG $+48
?_Orphan_ptr2@?$_List_val@U?$_List_simple_types@PEAVObjector@@@std@@@std@@QEAAXPEAU?$_List_node@PEAVObjector@@PEAX@2@@Z$rtcFrameData DD 01H ; std::_List_val<std::_List_simple_types<Objector *> >::_Orphan_ptr2
	DD	00H
	DQ	FLAT:?_Orphan_ptr2@?$_List_val@U?$_List_simple_types@PEAVObjector@@@std@@@std@@QEAAXPEAU?$_List_node@PEAVObjector@@PEAX@2@@Z$rtcVarDesc
CONST	ENDS
;	COMDAT xdata
xdata	SEGMENT
$unwind$??0?$_List_val@U?$_List_simple_types@PEAVObjector@@@std@@@std@@QEAA@XZ DD 025052a01H
	DD	010e2313H
	DD	07007001dH
	DD	05006H
xdata	ENDS
;	COMDAT xdata
xdata	SEGMENT
$ip2state$?_Getal@?$list@PEAVObjector@@V?$allocator@PEAVObjector@@@std@@@std@@AEBAAEBV?$allocator@U?$_List_node@PEAVObjector@@PEAX@std@@@2@XZ DB 02H
	DB	00H
	DB	00H
xdata	ENDS
;	COMDAT xdata
xdata	SEGMENT
$cppxdata$?_Getal@?$list@PEAVObjector@@V?$allocator@PEAVObjector@@@std@@@std@@AEBAAEBV?$allocator@U?$_List_node@PEAVObjector@@PEAX@std@@@2@XZ DB 060H
	DD	imagerel $ip2state$?_Getal@?$list@PEAVObjector@@V?$allocator@PEAVObjector@@@std@@@std@@AEBAAEBV?$allocator@U?$_List_node@PEAVObjector@@PEAX@std@@@2@XZ
xdata	ENDS
;	COMDAT xdata
xdata	SEGMENT
$unwind$?_Getal@?$list@PEAVObjector@@V?$allocator@PEAVObjector@@@std@@@std@@AEBAAEBV?$allocator@U?$_List_node@PEAVObjector@@PEAX@std@@@2@XZ DD 025052a19H
	DD	010e2313H
	DD	07007001dH
	DD	05006H
	DD	imagerel __CxxFrameHandler4
	DD	imagerel $cppxdata$?_Getal@?$list@PEAVObjector@@V?$allocator@PEAVObjector@@@std@@@std@@AEBAAEBV?$allocator@U?$_List_node@PEAVObjector@@PEAX@std@@@2@XZ
xdata	ENDS
;	COMDAT xdata
xdata	SEGMENT
$ip2state$?_Getal@?$list@PEAVObjector@@V?$allocator@PEAVObjector@@@std@@@std@@AEAAAEAV?$allocator@U?$_List_node@PEAVObjector@@PEAX@std@@@2@XZ DB 02H
	DB	00H
	DB	00H
xdata	ENDS
;	COMDAT xdata
xdata	SEGMENT
$cppxdata$?_Getal@?$list@PEAVObjector@@V?$allocator@PEAVObjector@@@std@@@std@@AEAAAEAV?$allocator@U?$_List_node@PEAVObjector@@PEAX@std@@@2@XZ DB 060H
	DD	imagerel $ip2state$?_Getal@?$list@PEAVObjector@@V?$allocator@PEAVObjector@@@std@@@std@@AEAAAEAV?$allocator@U?$_List_node@PEAVObjector@@PEAX@std@@@2@XZ
xdata	ENDS
;	COMDAT xdata
xdata	SEGMENT
$unwind$?_Getal@?$list@PEAVObjector@@V?$allocator@PEAVObjector@@@std@@@std@@AEAAAEAV?$allocator@U?$_List_node@PEAVObjector@@PEAX@std@@@2@XZ DD 025052a19H
	DD	010e2313H
	DD	07007001dH
	DD	05006H
	DD	imagerel __CxxFrameHandler4
	DD	imagerel $cppxdata$?_Getal@?$list@PEAVObjector@@V?$allocator@PEAVObjector@@@std@@@std@@AEAAAEAV?$allocator@U?$_List_node@PEAVObjector@@PEAX@std@@@2@XZ
xdata	ENDS
;	COMDAT xdata
xdata	SEGMENT
$unwind$?dtor$0@?0??_Alloc_sentinel_and_proxy@?$list@PEAVObjector@@V?$allocator@PEAVObjector@@@std@@@std@@AEAAXXZ@4HA DD 031001H
	DD	0700c4210H
	DD	0500bH
xdata	ENDS
;	COMDAT xdata
xdata	SEGMENT
$ip2state$?_Alloc_sentinel_and_proxy@?$list@PEAVObjector@@V?$allocator@PEAVObjector@@@std@@@std@@AEAAXXZ DB 06H
	DB	00H
	DB	00H
	DB	0feH
	DB	02H
	DB	0e2H
	DB	00H
xdata	ENDS
;	COMDAT xdata
xdata	SEGMENT
$stateUnwindMap$?_Alloc_sentinel_and_proxy@?$list@PEAVObjector@@V?$allocator@PEAVObjector@@@std@@@std@@AEAAXXZ DB 02H
	DB	0eH
	DD	imagerel ?dtor$0@?0??_Alloc_sentinel_and_proxy@?$list@PEAVObjector@@V?$allocator@PEAVObjector@@@std@@@std@@AEAAXXZ@4HA
xdata	ENDS
;	COMDAT xdata
xdata	SEGMENT
$cppxdata$?_Alloc_sentinel_and_proxy@?$list@PEAVObjector@@V?$allocator@PEAVObjector@@@std@@@std@@AEAAXXZ DB 028H
	DD	imagerel $stateUnwindMap$?_Alloc_sentinel_and_proxy@?$list@PEAVObjector@@V?$allocator@PEAVObjector@@@std@@@std@@AEAAXXZ
	DD	imagerel $ip2state$?_Alloc_sentinel_and_proxy@?$list@PEAVObjector@@V?$allocator@PEAVObjector@@@std@@@std@@AEAAXXZ
xdata	ENDS
;	COMDAT xdata
xdata	SEGMENT
$unwind$?_Alloc_sentinel_and_proxy@?$list@PEAVObjector@@V?$allocator@PEAVObjector@@@std@@@std@@AEAAXXZ DD 025053b19H
	DD	010e2313H
	DD	070070033H
	DD	05006H
	DD	imagerel __GSHandlerCheck_EH4
	DD	imagerel $cppxdata$?_Alloc_sentinel_and_proxy@?$list@PEAVObjector@@V?$allocator@PEAVObjector@@@std@@@std@@AEAAXXZ
	DD	018aH
xdata	ENDS
;	COMDAT CONST
CONST	SEGMENT
?_Alloc_sentinel_and_proxy@?$list@PEAVObjector@@V?$allocator@PEAVObjector@@@std@@@std@@AEAAXXZ$rtcName$0 DB 024H ; std::list<Objector *,std::allocator<Objector *> >::_Alloc_sentinel_and_proxy
	DB	053H
	DB	031H
	DB	035H
	DB	00H
	ORG $+3
?_Alloc_sentinel_and_proxy@?$list@PEAVObjector@@V?$allocator@PEAVObjector@@@std@@@std@@AEAAXXZ$rtcName$1 DB 05fH ; std::list<Objector *,std::allocator<Objector *> >::_Alloc_sentinel_and_proxy
	DB	050H
	DB	072H
	DB	06fH
	DB	078H
	DB	079H
	DB	00H
	ORG $+1
?_Alloc_sentinel_and_proxy@?$list@PEAVObjector@@V?$allocator@PEAVObjector@@@std@@@std@@AEAAXXZ$rtcName$2 DB 05fH ; std::list<Objector *,std::allocator<Objector *> >::_Alloc_sentinel_and_proxy
	DB	04eH
	DB	065H
	DB	077H
	DB	068H
	DB	065H
	DB	061H
	DB	064H
	DB	00H
	ORG $+7
?_Alloc_sentinel_and_proxy@?$list@PEAVObjector@@V?$allocator@PEAVObjector@@@std@@@std@@AEAAXXZ$rtcVarDesc DD 0b8H ; std::list<Objector *,std::allocator<Objector *> >::_Alloc_sentinel_and_proxy
	DD	08H
	DQ	FLAT:?_Alloc_sentinel_and_proxy@?$list@PEAVObjector@@V?$allocator@PEAVObjector@@@std@@@std@@AEAAXXZ$rtcName$2
	DD	068H
	DD	010H
	DQ	FLAT:?_Alloc_sentinel_and_proxy@?$list@PEAVObjector@@V?$allocator@PEAVObjector@@@std@@@std@@AEAAXXZ$rtcName$1
	DD	044H
	DD	01H
	DQ	FLAT:?_Alloc_sentinel_and_proxy@?$list@PEAVObjector@@V?$allocator@PEAVObjector@@@std@@@std@@AEAAXXZ$rtcName$0
	ORG $+144
?_Alloc_sentinel_and_proxy@?$list@PEAVObjector@@V?$allocator@PEAVObjector@@@std@@@std@@AEAAXXZ$rtcFrameData DD 03H ; std::list<Objector *,std::allocator<Objector *> >::_Alloc_sentinel_and_proxy
	DD	00H
	DQ	FLAT:?_Alloc_sentinel_and_proxy@?$list@PEAVObjector@@V?$allocator@PEAVObjector@@@std@@@std@@AEAAXXZ$rtcVarDesc
CONST	ENDS
;	COMDAT xdata
xdata	SEGMENT
$unwind$?remove@?$list@PEAVObjector@@V?$allocator@PEAVObjector@@@std@@@std@@QEAA@AEBQEAVObjector@@@Z DD 025052f01H
	DD	01132318H
	DD	0700c0021H
	DD	0500bH
xdata	ENDS
;	COMDAT xdata
xdata	SEGMENT
$ip2state$?_Tidy@?$list@PEAVObjector@@V?$allocator@PEAVObjector@@@std@@@std@@AEAAXXZ DB 02H
	DB	00H
	DB	00H
xdata	ENDS
;	COMDAT xdata
xdata	SEGMENT
$cppxdata$?_Tidy@?$list@PEAVObjector@@V?$allocator@PEAVObjector@@@std@@@std@@AEAAXXZ DB 060H
	DD	imagerel $ip2state$?_Tidy@?$list@PEAVObjector@@V?$allocator@PEAVObjector@@@std@@@std@@AEAAXXZ
xdata	ENDS
;	COMDAT xdata
xdata	SEGMENT
$unwind$?_Tidy@?$list@PEAVObjector@@V?$allocator@PEAVObjector@@@std@@@std@@AEAAXXZ DD 025052a19H
	DD	010e2313H
	DD	070070025H
	DD	05006H
	DD	imagerel __CxxFrameHandler4
	DD	imagerel $cppxdata$?_Tidy@?$list@PEAVObjector@@V?$allocator@PEAVObjector@@@std@@@std@@AEAAXXZ
xdata	ENDS
;	COMDAT xdata
xdata	SEGMENT
$unwind$?push_back@?$list@PEAVObjector@@V?$allocator@PEAVObjector@@@std@@@std@@QEAAXAEBQEAVObjector@@@Z DD 025052f01H
	DD	01132318H
	DD	0700c001dH
	DD	0500bH
xdata	ENDS
;	COMDAT xdata
xdata	SEGMENT
$ip2state$?max_size@?$list@PEAVObjector@@V?$allocator@PEAVObjector@@@std@@@std@@QEBA_KXZ DB 02H
	DB	00H
	DB	00H
xdata	ENDS
;	COMDAT xdata
xdata	SEGMENT
$cppxdata$?max_size@?$list@PEAVObjector@@V?$allocator@PEAVObjector@@@std@@@std@@QEBA_KXZ DB 060H
	DD	imagerel $ip2state$?max_size@?$list@PEAVObjector@@V?$allocator@PEAVObjector@@@std@@@std@@QEBA_KXZ
xdata	ENDS
;	COMDAT xdata
xdata	SEGMENT
$unwind$?max_size@?$list@PEAVObjector@@V?$allocator@PEAVObjector@@@std@@@std@@QEBA_KXZ DD 025052a19H
	DD	010e2313H
	DD	070070025H
	DD	05006H
	DD	imagerel __CxxFrameHandler4
	DD	imagerel $cppxdata$?max_size@?$list@PEAVObjector@@V?$allocator@PEAVObjector@@@std@@@std@@QEBA_KXZ
xdata	ENDS
;	COMDAT xdata
xdata	SEGMENT
$unwind$?_Unchecked_end@?$list@PEAVObjector@@V?$allocator@PEAVObjector@@@std@@@std@@QEAA?AV?$_List_unchecked_iterator@V?$_List_val@U?$_List_simple_types@PEAVObjector@@@std@@@std@@@2@XZ DD 025052f01H
	DD	01132318H
	DD	0700c001dH
	DD	0500bH
xdata	ENDS
;	COMDAT xdata
xdata	SEGMENT
$unwind$?_Unchecked_begin@?$list@PEAVObjector@@V?$allocator@PEAVObjector@@@std@@@std@@QEAA?AV?$_List_unchecked_iterator@V?$_List_val@U?$_List_simple_types@PEAVObjector@@@std@@@std@@@2@XZ DD 025052f01H
	DD	01132318H
	DD	0700c001dH
	DD	0500bH
xdata	ENDS
;	COMDAT xdata
xdata	SEGMENT
$ip2state$??1?$list@PEAVObjector@@V?$allocator@PEAVObjector@@@std@@@std@@QEAA@XZ DB 02H
	DB	00H
	DB	00H
xdata	ENDS
;	COMDAT xdata
xdata	SEGMENT
$cppxdata$??1?$list@PEAVObjector@@V?$allocator@PEAVObjector@@@std@@@std@@QEAA@XZ DB 060H
	DD	imagerel $ip2state$??1?$list@PEAVObjector@@V?$allocator@PEAVObjector@@@std@@@std@@QEAA@XZ
xdata	ENDS
;	COMDAT xdata
xdata	SEGMENT
$unwind$??1?$list@PEAVObjector@@V?$allocator@PEAVObjector@@@std@@@std@@QEAA@XZ DD 025053b19H
	DD	010e2313H
	DD	070070025H
	DD	05006H
	DD	imagerel __GSHandlerCheck_EH4
	DD	imagerel $cppxdata$??1?$list@PEAVObjector@@V?$allocator@PEAVObjector@@@std@@@std@@QEAA@XZ
	DD	011bH
xdata	ENDS
;	COMDAT CONST
CONST	SEGMENT
??1?$list@PEAVObjector@@V?$allocator@PEAVObjector@@@std@@@std@@QEAA@XZ$rtcName$0 DB 024H ; std::list<Objector *,std::allocator<Objector *> >::~list<Objector *,std::allocator<Objector *> >
	DB	053H
	DB	031H
	DB	00H
	ORG $+12
??1?$list@PEAVObjector@@V?$allocator@PEAVObjector@@@std@@@std@@QEAA@XZ$rtcVarDesc DD 044H ; std::list<Objector *,std::allocator<Objector *> >::~list<Objector *,std::allocator<Objector *> >
	DD	01H
	DQ	FLAT:??1?$list@PEAVObjector@@V?$allocator@PEAVObjector@@@std@@@std@@QEAA@XZ$rtcName$0
	ORG $+48
??1?$list@PEAVObjector@@V?$allocator@PEAVObjector@@@std@@@std@@QEAA@XZ$rtcFrameData DD 01H ; std::list<Objector *,std::allocator<Objector *> >::~list<Objector *,std::allocator<Objector *> >
	DD	00H
	DQ	FLAT:??1?$list@PEAVObjector@@V?$allocator@PEAVObjector@@@std@@@std@@QEAA@XZ$rtcVarDesc
CONST	ENDS
;	COMDAT xdata
xdata	SEGMENT
$unwind$??0?$list@PEAVObjector@@V?$allocator@PEAVObjector@@@std@@@std@@QEAA@XZ DD 025052a01H
	DD	010e2313H
	DD	070070021H
	DD	05006H
xdata	ENDS
;	COMDAT xdata
xdata	SEGMENT
$ip2state$?max_size@?$_Default_allocator_traits@V?$allocator@U?$_List_node@PEAVObjector@@PEAX@std@@@std@@@std@@SA_KAEBV?$allocator@U?$_List_node@PEAVObjector@@PEAX@std@@@2@@Z DB 02H
	DB	00H
	DB	00H
xdata	ENDS
;	COMDAT xdata
xdata	SEGMENT
$cppxdata$?max_size@?$_Default_allocator_traits@V?$allocator@U?$_List_node@PEAVObjector@@PEAX@std@@@std@@@std@@SA_KAEBV?$allocator@U?$_List_node@PEAVObjector@@PEAX@std@@@2@@Z DB 060H
	DD	imagerel $ip2state$?max_size@?$_Default_allocator_traits@V?$allocator@U?$_List_node@PEAVObjector@@PEAX@std@@@std@@@std@@SA_KAEBV?$allocator@U?$_List_node@PEAVObjector@@PEAX@std@@@2@@Z
xdata	ENDS
;	COMDAT xdata
xdata	SEGMENT
$unwind$?max_size@?$_Default_allocator_traits@V?$allocator@U?$_List_node@PEAVObjector@@PEAX@std@@@std@@@std@@SA_KAEBV?$allocator@U?$_List_node@PEAVObjector@@PEAX@std@@@2@@Z DD 025052a19H
	DD	010e2313H
	DD	07007001dH
	DD	05006H
	DD	imagerel __CxxFrameHandler4
	DD	imagerel $cppxdata$?max_size@?$_Default_allocator_traits@V?$allocator@U?$_List_node@PEAVObjector@@PEAX@std@@@std@@@std@@SA_KAEBV?$allocator@U?$_List_node@PEAVObjector@@PEAX@std@@@2@@Z
xdata	ENDS
;	COMDAT xdata
xdata	SEGMENT
$unwind$?deallocate@?$_Default_allocator_traits@V?$allocator@U?$_List_node@PEAVObjector@@PEAX@std@@@std@@@std@@SAXAEAV?$allocator@U?$_List_node@PEAVObjector@@PEAX@std@@@2@QEAU?$_List_node@PEAVObjector@@PEAX@2@_K@Z DD 025053401H
	DD	0118231dH
	DD	07011001dH
	DD	05010H
xdata	ENDS
;	COMDAT xdata
xdata	SEGMENT
$unwind$?allocate@?$allocator@U?$_List_node@PEAVObjector@@PEAX@std@@@std@@QEAAPEAU?$_List_node@PEAVObjector@@PEAX@2@_K@Z DD 025052f01H
	DD	01132318H
	DD	0700c001dH
	DD	0500bH
xdata	ENDS
;	COMDAT xdata
xdata	SEGMENT
$unwind$?deallocate@?$allocator@U?$_List_node@PEAVObjector@@PEAX@std@@@std@@QEAAXQEAU?$_List_node@PEAVObjector@@PEAX@2@_K@Z DD 025053401H
	DD	0118231dH
	DD	07011001dH
	DD	05010H
xdata	ENDS
;	COMDAT xdata
xdata	SEGMENT
$ip2state$??0?$allocator@U?$_List_node@PEAVObjector@@PEAX@std@@@std@@QEAA@XZ DB 02H
	DB	00H
	DB	00H
xdata	ENDS
;	COMDAT xdata
xdata	SEGMENT
$cppxdata$??0?$allocator@U?$_List_node@PEAVObjector@@PEAX@std@@@std@@QEAA@XZ DB 060H
	DD	imagerel $ip2state$??0?$allocator@U?$_List_node@PEAVObjector@@PEAX@std@@@std@@QEAA@XZ
xdata	ENDS
;	COMDAT xdata
xdata	SEGMENT
$unwind$??0?$allocator@U?$_List_node@PEAVObjector@@PEAX@std@@@std@@QEAA@XZ DD 025052a19H
	DD	010e2313H
	DD	07007001dH
	DD	05006H
	DD	imagerel __CxxFrameHandler4
	DD	imagerel $cppxdata$??0?$allocator@U?$_List_node@PEAVObjector@@PEAX@std@@@std@@QEAA@XZ
xdata	ENDS
;	COMDAT xdata
xdata	SEGMENT
$unwind$?Notify@Subject@@UEAAXXZ DD 025053b19H
	DD	010e2313H
	DD	07007002fH
	DD	05006H
	DD	imagerel __GSHandlerCheck
	DD	0160H
xdata	ENDS
;	COMDAT CONST
CONST	SEGMENT
?Notify@Subject@@UEAAXXZ$rtcName$0 DB 03cH		; Subject::Notify
	DB	062H
	DB	065H
	DB	067H
	DB	069H
	DB	06eH
	DB	03eH
	DB	024H
	DB	04cH
	DB	030H
	DB	00H
	ORG $+5
?Notify@Subject@@UEAAXXZ$rtcName$1 DB 03cH		; Subject::Notify
	DB	065H
	DB	06eH
	DB	064H
	DB	03eH
	DB	024H
	DB	04cH
	DB	030H
	DB	00H
	ORG $+7
?Notify@Subject@@UEAAXXZ$rtcVarDesc DD 068H		; Subject::Notify
	DD	08H
	DQ	FLAT:?Notify@Subject@@UEAAXXZ$rtcName$1
	DD	048H
	DD	08H
	DQ	FLAT:?Notify@Subject@@UEAAXXZ$rtcName$0
	ORG $+96
?Notify@Subject@@UEAAXXZ$rtcFrameData DD 02H		; Subject::Notify
	DD	00H
	DQ	FLAT:?Notify@Subject@@UEAAXXZ$rtcVarDesc
CONST	ENDS
;	COMDAT xdata
xdata	SEGMENT
$unwind$?Detach@Subject@@UEAAXPEAVObjector@@@Z DD 025052f01H
	DD	01132318H
	DD	0700c001fH
	DD	0500bH
xdata	ENDS
;	COMDAT xdata
xdata	SEGMENT
$unwind$?Attach@Subject@@UEAAXPEAVObjector@@@Z DD 025052f01H
	DD	01132318H
	DD	0700c001fH
	DD	0500bH
xdata	ENDS
;	COMDAT xdata
xdata	SEGMENT
$ip2state$??1Subject@@UEAA@XZ DB 02H
	DB	00H
	DB	00H
xdata	ENDS
;	COMDAT xdata
xdata	SEGMENT
$cppxdata$??1Subject@@UEAA@XZ DB 060H
	DD	imagerel $ip2state$??1Subject@@UEAA@XZ
xdata	ENDS
;	COMDAT xdata
xdata	SEGMENT
$unwind$??1Subject@@UEAA@XZ DD 025052a19H
	DD	010e2313H
	DD	07007001dH
	DD	05006H
	DD	imagerel __CxxFrameHandler4
	DD	imagerel $cppxdata$??1Subject@@UEAA@XZ
xdata	ENDS
;	COMDAT xdata
xdata	SEGMENT
$unwind$??0Subject@@QEAA@XZ DD 025052a01H
	DD	010e2313H
	DD	07007001dH
	DD	05006H
xdata	ENDS
;	COMDAT xdata
xdata	SEGMENT
$unwind$??_GObjector@@UEAAPEAXI@Z DD 025052e01H
	DD	01122317H
	DD	0700b001dH
	DD	0500aH
xdata	ENDS
;	COMDAT xdata
xdata	SEGMENT
$unwind$??0Objector@@QEAA@XZ DD 05052801H
	DD	010e0311H
	DD	070070019H
	DD	05006H
xdata	ENDS
;	COMDAT xdata
xdata	SEGMENT
$unwind$?Update@Objector@@UEAAXQEAVSubject@@@Z DD 025052f01H
	DD	01132318H
	DD	0700c001fH
	DD	0500bH
xdata	ENDS
;	COMDAT xdata
xdata	SEGMENT
$ip2state$??1Objector@@UEAA@XZ DB 02H
	DB	00H
	DB	00H
xdata	ENDS
;	COMDAT xdata
xdata	SEGMENT
$cppxdata$??1Objector@@UEAA@XZ DB 060H
	DD	imagerel $ip2state$??1Objector@@UEAA@XZ
xdata	ENDS
;	COMDAT xdata
xdata	SEGMENT
$unwind$??1Objector@@UEAA@XZ DD 025052a19H
	DD	010e2313H
	DD	07007001dH
	DD	05006H
	DD	imagerel __CxxFrameHandler4
	DD	imagerel $cppxdata$??1Objector@@UEAA@XZ
xdata	ENDS
;	COMDAT xdata
xdata	SEGMENT
$unwind$?dtor$0@?0??objector_run@@YAXXZ@4HA DD 031001H
	DD	0700c4210H
	DD	0500bH
xdata	ENDS
;	COMDAT xdata
xdata	SEGMENT
$ip2state$?objector_run@@YAXXZ DB 06H
	DB	00H
	DB	00H
	DB	0a6H
	DB	02H
	DB	0fcH
	DB	00H
xdata	ENDS
;	COMDAT xdata
xdata	SEGMENT
$stateUnwindMap$?objector_run@@YAXXZ DB 02H
	DB	0eH
	DD	imagerel ?dtor$0@?0??objector_run@@YAXXZ@4HA
xdata	ENDS
;	COMDAT xdata
xdata	SEGMENT
$cppxdata$?objector_run@@YAXXZ DB 028H
	DD	imagerel $stateUnwindMap$?objector_run@@YAXXZ
	DD	imagerel $ip2state$?objector_run@@YAXXZ
xdata	ENDS
;	COMDAT xdata
xdata	SEGMENT
$unwind$?objector_run@@YAXXZ DD 025052f19H
	DD	010a230fH
	DD	07003002fH
	DD	05002H
	DD	imagerel __GSHandlerCheck_EH4
	DD	imagerel $cppxdata$?objector_run@@YAXXZ
	DD	0162H
xdata	ENDS
;	COMDAT CONST
CONST	SEGMENT
?objector_run@@YAXXZ$rtcName$0 DB 073H			; objector_run
	DB	00H
	ORG $+14
?objector_run@@YAXXZ$rtcVarDesc DD 028H			; objector_run
	DD	020H
	DQ	FLAT:?objector_run@@YAXXZ$rtcName$0
	ORG $+48
?objector_run@@YAXXZ$rtcFrameData DD 01H		; objector_run
	DD	00H
	DQ	FLAT:?objector_run@@YAXXZ$rtcVarDesc
CONST	ENDS
;	COMDAT xdata
xdata	SEGMENT
$ip2state$??$_Min_value@_K@std@@YAAEB_KAEB_K0@Z DB 02H
	DB	00H
	DB	00H
xdata	ENDS
;	COMDAT xdata
xdata	SEGMENT
$cppxdata$??$_Min_value@_K@std@@YAAEB_KAEB_K0@Z DB 060H
	DD	imagerel $ip2state$??$_Min_value@_K@std@@YAAEB_KAEB_K0@Z
xdata	ENDS
;	COMDAT xdata
xdata	SEGMENT
$unwind$??$_Min_value@_K@std@@YAAEB_KAEB_K0@Z DD 025052f19H
	DD	01132318H
	DD	0700c0021H
	DD	0500bH
	DD	imagerel __CxxFrameHandler4
	DD	imagerel $cppxdata$??$_Min_value@_K@std@@YAAEB_KAEB_K0@Z
xdata	ENDS
;	COMDAT xdata
xdata	SEGMENT
$ip2state$?eof@?$_Narrow_char_traits@DH@std@@SAHXZ DB 02H
	DB	00H
	DB	00H
xdata	ENDS
;	COMDAT xdata
xdata	SEGMENT
$cppxdata$?eof@?$_Narrow_char_traits@DH@std@@SAHXZ DB 060H
	DD	imagerel $ip2state$?eof@?$_Narrow_char_traits@DH@std@@SAHXZ
xdata	ENDS
;	COMDAT xdata
xdata	SEGMENT
$unwind$?eof@?$_Narrow_char_traits@DH@std@@SAHXZ DD 025051e19H
	DD	010a230fH
	DD	07003001dH
	DD	05002H
	DD	imagerel __CxxFrameHandler4
	DD	imagerel $cppxdata$?eof@?$_Narrow_char_traits@DH@std@@SAHXZ
xdata	ENDS
;	COMDAT xdata
xdata	SEGMENT
$ip2state$?eq_int_type@?$_Narrow_char_traits@DH@std@@SA_NAEBH0@Z DB 02H
	DB	00H
	DB	00H
xdata	ENDS
;	COMDAT xdata
xdata	SEGMENT
$cppxdata$?eq_int_type@?$_Narrow_char_traits@DH@std@@SA_NAEBH0@Z DB 060H
	DD	imagerel $ip2state$?eq_int_type@?$_Narrow_char_traits@DH@std@@SA_NAEBH0@Z
xdata	ENDS
;	COMDAT xdata
xdata	SEGMENT
$unwind$?eq_int_type@?$_Narrow_char_traits@DH@std@@SA_NAEBH0@Z DD 025052f19H
	DD	01132318H
	DD	0700c001fH
	DD	0500bH
	DD	imagerel __CxxFrameHandler4
	DD	imagerel $cppxdata$?eq_int_type@?$_Narrow_char_traits@DH@std@@SA_NAEBH0@Z
xdata	ENDS
;	COMDAT xdata
xdata	SEGMENT
$ip2state$?length@?$_Narrow_char_traits@DH@std@@SA_KQEBD@Z DB 02H
	DB	00H
	DB	00H
xdata	ENDS
;	COMDAT xdata
xdata	SEGMENT
$cppxdata$?length@?$_Narrow_char_traits@DH@std@@SA_KQEBD@Z DB 060H
	DD	imagerel $ip2state$?length@?$_Narrow_char_traits@DH@std@@SA_KQEBD@Z
xdata	ENDS
;	COMDAT xdata
xdata	SEGMENT
$unwind$?length@?$_Narrow_char_traits@DH@std@@SA_KQEBD@Z DD 025052a19H
	DD	010e2313H
	DD	07007001fH
	DD	05006H
	DD	imagerel __CxxFrameHandler4
	DD	imagerel $cppxdata$?length@?$_Narrow_char_traits@DH@std@@SA_KQEBD@Z
xdata	ENDS
;	COMDAT xdata
xdata	SEGMENT
$ip2state$??$addressof@U_Container_base12@std@@@std@@YAPEAU_Container_base12@0@AEAU10@@Z DB 02H
	DB	00H
	DB	00H
xdata	ENDS
;	COMDAT xdata
xdata	SEGMENT
$cppxdata$??$addressof@U_Container_base12@std@@@std@@YAPEAU_Container_base12@0@AEAU10@@Z DB 060H
	DD	imagerel $ip2state$??$addressof@U_Container_base12@std@@@std@@YAPEAU_Container_base12@0@AEAU10@@Z
xdata	ENDS
;	COMDAT xdata
xdata	SEGMENT
$unwind$??$addressof@U_Container_base12@std@@@std@@YAPEAU_Container_base12@0@AEAU10@@Z DD 025052a19H
	DD	010e2313H
	DD	07007001dH
	DD	05006H
	DD	imagerel __CxxFrameHandler4
	DD	imagerel $cppxdata$??$addressof@U_Container_base12@std@@@std@@YAPEAU_Container_base12@0@AEAU10@@Z
xdata	ENDS
;	COMDAT xdata
xdata	SEGMENT
$ip2state$?_Release@_Basic_container_proxy_ptr12@std@@QEAAXXZ DB 02H
	DB	00H
	DB	00H
xdata	ENDS
;	COMDAT xdata
xdata	SEGMENT
$cppxdata$?_Release@_Basic_container_proxy_ptr12@std@@QEAAXXZ DB 060H
	DD	imagerel $ip2state$?_Release@_Basic_container_proxy_ptr12@std@@QEAAXXZ
xdata	ENDS
;	COMDAT xdata
xdata	SEGMENT
$unwind$?_Release@_Basic_container_proxy_ptr12@std@@QEAAXXZ DD 025052a19H
	DD	010e2313H
	DD	07007001dH
	DD	05006H
	DD	imagerel __CxxFrameHandler4
	DD	imagerel $cppxdata$?_Release@_Basic_container_proxy_ptr12@std@@QEAAXXZ
xdata	ENDS
;	COMDAT xdata
xdata	SEGMENT
$ip2state$??$_Construct_in_place@U_Container_proxy@std@@PEAU_Container_base12@2@@std@@YAXAEAU_Container_proxy@0@$$QEAPEAU_Container_base12@0@@Z DB 02H
	DB	00H
	DB	00H
xdata	ENDS
;	COMDAT xdata
xdata	SEGMENT
$cppxdata$??$_Construct_in_place@U_Container_proxy@std@@PEAU_Container_base12@2@@std@@YAXAEAU_Container_proxy@0@$$QEAPEAU_Container_base12@0@@Z DB 060H
	DD	imagerel $ip2state$??$_Construct_in_place@U_Container_proxy@std@@PEAU_Container_base12@2@@std@@YAXAEAU_Container_proxy@0@$$QEAPEAU_Container_base12@0@@Z
xdata	ENDS
;	COMDAT xdata
xdata	SEGMENT
$unwind$??$_Construct_in_place@U_Container_proxy@std@@PEAU_Container_base12@2@@std@@YAXAEAU_Container_proxy@0@$$QEAPEAU_Container_base12@0@@Z DD 025052f19H
	DD	01132318H
	DD	0700c0021H
	DD	0500bH
	DD	imagerel __CxxFrameHandler4
	DD	imagerel $cppxdata$??$_Construct_in_place@U_Container_proxy@std@@PEAU_Container_base12@2@@std@@YAXAEAU_Container_proxy@0@$$QEAPEAU_Container_base12@0@@Z
xdata	ENDS
;	COMDAT xdata
xdata	SEGMENT
$ip2state$?_Orphan_all@_Container_base12@std@@QEAAXXZ DB 02H
	DB	00H
	DB	00H
xdata	ENDS
;	COMDAT xdata
xdata	SEGMENT
$cppxdata$?_Orphan_all@_Container_base12@std@@QEAAXXZ DB 060H
	DD	imagerel $ip2state$?_Orphan_all@_Container_base12@std@@QEAAXXZ
xdata	ENDS
;	COMDAT xdata
xdata	SEGMENT
$unwind$?_Orphan_all@_Container_base12@std@@QEAAXXZ DD 025053b19H
	DD	010e2313H
	DD	070070025H
	DD	05006H
	DD	imagerel __GSHandlerCheck_EH4
	DD	imagerel $cppxdata$?_Orphan_all@_Container_base12@std@@QEAAXXZ
	DD	011bH
xdata	ENDS
;	COMDAT CONST
CONST	SEGMENT
?_Orphan_all@_Container_base12@std@@QEAAXXZ$rtcName$0 DB 05fH ; std::_Container_base12::_Orphan_all
	DB	04cH
	DB	06fH
	DB	063H
	DB	06bH
	DB	00H
	ORG $+10
?_Orphan_all@_Container_base12@std@@QEAAXXZ$rtcVarDesc DD 024H ; std::_Container_base12::_Orphan_all
	DD	04H
	DQ	FLAT:?_Orphan_all@_Container_base12@std@@QEAAXXZ$rtcName$0
	ORG $+48
?_Orphan_all@_Container_base12@std@@QEAAXXZ$rtcFrameData DD 01H ; std::_Container_base12::_Orphan_all
	DD	00H
	DQ	FLAT:?_Orphan_all@_Container_base12@std@@QEAAXXZ$rtcVarDesc
CONST	ENDS
;	COMDAT xdata
xdata	SEGMENT
$unwind$??0_Container_base12@std@@QEAA@XZ DD 025052a01H
	DD	010e2313H
	DD	07007001dH
	DD	05006H
xdata	ENDS
;	COMDAT xdata
xdata	SEGMENT
$ip2state$??0_Container_proxy@std@@QEAA@PEAU_Container_base12@1@@Z DB 02H
	DB	00H
	DB	00H
xdata	ENDS
;	COMDAT xdata
xdata	SEGMENT
$cppxdata$??0_Container_proxy@std@@QEAA@PEAU_Container_base12@1@@Z DB 060H
	DD	imagerel $ip2state$??0_Container_proxy@std@@QEAA@PEAU_Container_base12@1@@Z
xdata	ENDS
;	COMDAT xdata
xdata	SEGMENT
$unwind$??0_Container_proxy@std@@QEAA@PEAU_Container_base12@1@@Z DD 025052f19H
	DD	01132318H
	DD	0700c001dH
	DD	0500bH
	DD	imagerel __CxxFrameHandler4
	DD	imagerel $cppxdata$??0_Container_proxy@std@@QEAA@PEAU_Container_base12@1@@Z
xdata	ENDS
;	COMDAT xdata
xdata	SEGMENT
$ip2state$?_Adopt@_Iterator_base0@std@@QEAAXPEBX@Z DB 02H
	DB	00H
	DB	00H
xdata	ENDS
;	COMDAT xdata
xdata	SEGMENT
$cppxdata$?_Adopt@_Iterator_base0@std@@QEAAXPEBX@Z DB 060H
	DD	imagerel $ip2state$?_Adopt@_Iterator_base0@std@@QEAAXPEBX@Z
xdata	ENDS
;	COMDAT xdata
xdata	SEGMENT
$unwind$?_Adopt@_Iterator_base0@std@@QEAAXPEBX@Z DD 025052f19H
	DD	01132318H
	DD	0700c001dH
	DD	0500bH
	DD	imagerel __CxxFrameHandler4
	DD	imagerel $cppxdata$?_Adopt@_Iterator_base0@std@@QEAAXPEBX@Z
xdata	ENDS
;	COMDAT xdata
xdata	SEGMENT
$unwind$?_Adjust_manually_vector_aligned@std@@YAXAEAPEAXAEA_K@Z DD 035052f01H
	DD	01133318H
	DD	0700c002fH
	DD	0500bH
xdata	ENDS
;	COMDAT xdata
xdata	SEGMENT
$unwind$?_Allocate@_Default_allocate_traits@std@@SAPEAX_K@Z DD 025052a01H
	DD	010e2313H
	DD	07007001dH
	DD	05006H
xdata	ENDS
;	COMDAT xdata
xdata	SEGMENT
$unwind$?_Throw_bad_array_new_length@std@@YAXXZ DD 025051e01H
	DD	010a230fH
	DD	070030023H
	DD	05002H
xdata	ENDS
;	COMDAT xdata
xdata	SEGMENT
$unwind$??_Gbad_array_new_length@std@@UEAAPEAXI@Z DD 025052e01H
	DD	01122317H
	DD	0700b001dH
	DD	0500aH
xdata	ENDS
;	COMDAT xdata
xdata	SEGMENT
$unwind$??0bad_array_new_length@std@@QEAA@AEBV01@@Z DD 025052f01H
	DD	01132318H
	DD	0700c001dH
	DD	0500bH
xdata	ENDS
;	COMDAT xdata
xdata	SEGMENT
$unwind$??1bad_array_new_length@std@@UEAA@XZ DD 025052a01H
	DD	010e2313H
	DD	07007001dH
	DD	05006H
xdata	ENDS
;	COMDAT xdata
xdata	SEGMENT
$ip2state$??0bad_array_new_length@std@@QEAA@XZ DB 02H
	DB	00H
	DB	00H
xdata	ENDS
;	COMDAT xdata
xdata	SEGMENT
$cppxdata$??0bad_array_new_length@std@@QEAA@XZ DB 060H
	DD	imagerel $ip2state$??0bad_array_new_length@std@@QEAA@XZ
xdata	ENDS
;	COMDAT xdata
xdata	SEGMENT
$unwind$??0bad_array_new_length@std@@QEAA@XZ DD 025052a19H
	DD	010e2313H
	DD	07007001dH
	DD	05006H
	DD	imagerel __CxxFrameHandler4
	DD	imagerel $cppxdata$??0bad_array_new_length@std@@QEAA@XZ
xdata	ENDS
;	COMDAT xdata
xdata	SEGMENT
$unwind$??_Gbad_alloc@std@@UEAAPEAXI@Z DD 025052e01H
	DD	01122317H
	DD	0700b001dH
	DD	0500aH
xdata	ENDS
;	COMDAT xdata
xdata	SEGMENT
$unwind$??0bad_alloc@std@@QEAA@AEBV01@@Z DD 025052f01H
	DD	01132318H
	DD	0700c001dH
	DD	0500bH
xdata	ENDS
;	COMDAT xdata
xdata	SEGMENT
$unwind$??1bad_alloc@std@@UEAA@XZ DD 025052a01H
	DD	010e2313H
	DD	07007001dH
	DD	05006H
xdata	ENDS
;	COMDAT xdata
xdata	SEGMENT
$ip2state$??0bad_alloc@std@@AEAA@QEBD@Z DB 02H
	DB	00H
	DB	00H
xdata	ENDS
;	COMDAT xdata
xdata	SEGMENT
$cppxdata$??0bad_alloc@std@@AEAA@QEBD@Z DB 060H
	DD	imagerel $ip2state$??0bad_alloc@std@@AEAA@QEBD@Z
xdata	ENDS
;	COMDAT xdata
xdata	SEGMENT
$unwind$??0bad_alloc@std@@AEAA@QEBD@Z DD 025052f19H
	DD	01132318H
	DD	0700c001dH
	DD	0500bH
	DD	imagerel __CxxFrameHandler4
	DD	imagerel $cppxdata$??0bad_alloc@std@@AEAA@QEBD@Z
xdata	ENDS
;	COMDAT xdata
xdata	SEGMENT
$unwind$??_Gexception@std@@UEAAPEAXI@Z DD 025052e01H
	DD	01122317H
	DD	0700b001dH
	DD	0500aH
xdata	ENDS
;	COMDAT xdata
xdata	SEGMENT
$unwind$?what@exception@std@@UEBAPEBDXZ DD 025052a01H
	DD	010e2313H
	DD	07007001fH
	DD	05006H
xdata	ENDS
;	COMDAT xdata
xdata	SEGMENT
$ip2state$??1exception@std@@UEAA@XZ DB 02H
	DB	00H
	DB	00H
xdata	ENDS
;	COMDAT xdata
xdata	SEGMENT
$cppxdata$??1exception@std@@UEAA@XZ DB 060H
	DD	imagerel $ip2state$??1exception@std@@UEAA@XZ
xdata	ENDS
;	COMDAT xdata
xdata	SEGMENT
$unwind$??1exception@std@@UEAA@XZ DD 025052a19H
	DD	010e2313H
	DD	07007001dH
	DD	05006H
	DD	imagerel __CxxFrameHandler4
	DD	imagerel $cppxdata$??1exception@std@@UEAA@XZ
xdata	ENDS
;	COMDAT xdata
xdata	SEGMENT
$ip2state$??0exception@std@@QEAA@AEBV01@@Z DB 02H
	DB	00H
	DB	00H
xdata	ENDS
;	COMDAT xdata
xdata	SEGMENT
$cppxdata$??0exception@std@@QEAA@AEBV01@@Z DB 060H
	DD	imagerel $ip2state$??0exception@std@@QEAA@AEBV01@@Z
xdata	ENDS
;	COMDAT xdata
xdata	SEGMENT
$unwind$??0exception@std@@QEAA@AEBV01@@Z DD 025052f19H
	DD	01132318H
	DD	0700c001dH
	DD	0500bH
	DD	imagerel __CxxFrameHandler4
	DD	imagerel $cppxdata$??0exception@std@@QEAA@AEBV01@@Z
xdata	ENDS
;	COMDAT xdata
xdata	SEGMENT
$ip2state$??0exception@std@@QEAA@QEBDH@Z DB 02H
	DB	00H
	DB	00H
xdata	ENDS
;	COMDAT xdata
xdata	SEGMENT
$cppxdata$??0exception@std@@QEAA@QEBDH@Z DB 060H
	DD	imagerel $ip2state$??0exception@std@@QEAA@QEBDH@Z
xdata	ENDS
;	COMDAT xdata
xdata	SEGMENT
$unwind$??0exception@std@@QEAA@QEBDH@Z DD 025053419H
	DD	0118231dH
	DD	07011001dH
	DD	05010H
	DD	imagerel __CxxFrameHandler4
	DD	imagerel $cppxdata$??0exception@std@@QEAA@QEBDH@Z
xdata	ENDS
;	COMDAT xdata
xdata	SEGMENT
$ip2state$?max@?$numeric_limits@_J@std@@SA_JXZ DB 02H
	DB	00H
	DB	00H
xdata	ENDS
;	COMDAT xdata
xdata	SEGMENT
$cppxdata$?max@?$numeric_limits@_J@std@@SA_JXZ DB 060H
	DD	imagerel $ip2state$?max@?$numeric_limits@_J@std@@SA_JXZ
xdata	ENDS
;	COMDAT xdata
xdata	SEGMENT
$unwind$?max@?$numeric_limits@_J@std@@SA_JXZ DD 025051e19H
	DD	010a230fH
	DD	07003001dH
	DD	05002H
	DD	imagerel __CxxFrameHandler4
	DD	imagerel $cppxdata$?max@?$numeric_limits@_J@std@@SA_JXZ
xdata	ENDS
;	COMDAT xdata
xdata	SEGMENT
$ip2state$??2@YAPEAX_KPEAX@Z DB 02H
	DB	00H
	DB	00H
xdata	ENDS
;	COMDAT xdata
xdata	SEGMENT
$cppxdata$??2@YAPEAX_KPEAX@Z DB 060H
	DD	imagerel $ip2state$??2@YAPEAX_KPEAX@Z
xdata	ENDS
;	COMDAT xdata
xdata	SEGMENT
$unwind$??2@YAPEAX_KPEAX@Z DD 025052f19H
	DD	01132318H
	DD	0700c001dH
	DD	0500bH
	DD	imagerel __CxxFrameHandler4
	DD	imagerel $cppxdata$??2@YAPEAX_KPEAX@Z
xdata	ENDS
;	COMDAT xdata
xdata	SEGMENT
$ip2state$?__empty_global_delete@@YAXPEAX_KW4align_val_t@std@@@Z DB 02H
	DB	00H
	DB	00H
xdata	ENDS
;	COMDAT xdata
xdata	SEGMENT
$cppxdata$?__empty_global_delete@@YAXPEAX_KW4align_val_t@std@@@Z DB 060H
	DD	imagerel $ip2state$?__empty_global_delete@@YAXPEAX_KW4align_val_t@std@@@Z
xdata	ENDS
;	COMDAT xdata
xdata	SEGMENT
$unwind$?__empty_global_delete@@YAXPEAX_KW4align_val_t@std@@@Z DD 025053419H
	DD	0118231dH
	DD	07011001dH
	DD	05010H
	DD	imagerel __CxxFrameHandler4
	DD	imagerel $cppxdata$?__empty_global_delete@@YAXPEAX_KW4align_val_t@std@@@Z
xdata	ENDS
;	COMDAT xdata
xdata	SEGMENT
$ip2state$?__empty_global_delete@@YAXPEAXW4align_val_t@std@@@Z DB 02H
	DB	00H
	DB	00H
xdata	ENDS
;	COMDAT xdata
xdata	SEGMENT
$cppxdata$?__empty_global_delete@@YAXPEAXW4align_val_t@std@@@Z DB 060H
	DD	imagerel $ip2state$?__empty_global_delete@@YAXPEAXW4align_val_t@std@@@Z
xdata	ENDS
;	COMDAT xdata
xdata	SEGMENT
$unwind$?__empty_global_delete@@YAXPEAXW4align_val_t@std@@@Z DD 025052f19H
	DD	01132318H
	DD	0700c001dH
	DD	0500bH
	DD	imagerel __CxxFrameHandler4
	DD	imagerel $cppxdata$?__empty_global_delete@@YAXPEAXW4align_val_t@std@@@Z
xdata	ENDS
;	COMDAT xdata
xdata	SEGMENT
$ip2state$?__empty_global_delete@@YAXPEAX_K@Z DB 02H
	DB	00H
	DB	00H
xdata	ENDS
;	COMDAT xdata
xdata	SEGMENT
$cppxdata$?__empty_global_delete@@YAXPEAX_K@Z DB 060H
	DD	imagerel $ip2state$?__empty_global_delete@@YAXPEAX_K@Z
xdata	ENDS
;	COMDAT xdata
xdata	SEGMENT
$unwind$?__empty_global_delete@@YAXPEAX_K@Z DD 025052f19H
	DD	01132318H
	DD	0700c001dH
	DD	0500bH
	DD	imagerel __CxxFrameHandler4
	DD	imagerel $cppxdata$?__empty_global_delete@@YAXPEAX_K@Z
xdata	ENDS
;	COMDAT xdata
xdata	SEGMENT
$ip2state$?__empty_global_delete@@YAXPEAX@Z DB 02H
	DB	00H
	DB	00H
xdata	ENDS
;	COMDAT xdata
xdata	SEGMENT
$cppxdata$?__empty_global_delete@@YAXPEAX@Z DB 060H
	DD	imagerel $ip2state$?__empty_global_delete@@YAXPEAX@Z
xdata	ENDS
;	COMDAT xdata
xdata	SEGMENT
$unwind$?__empty_global_delete@@YAXPEAX@Z DD 025052a19H
	DD	010e2313H
	DD	07007001dH
	DD	05006H
	DD	imagerel __CxxFrameHandler4
	DD	imagerel $cppxdata$?__empty_global_delete@@YAXPEAX@Z
xdata	ENDS
; Function compile flags: /Odt
;	COMDAT __JustMyCode_Default
_TEXT	SEGMENT
__JustMyCode_Default PROC				; COMDAT
  00000	c2 00 00	 ret	 0
__JustMyCode_Default ENDP
_TEXT	ENDS
; Function compile flags: /Odtp /RTCsu /ZI
; File C:\Program Files (x86)\Microsoft Visual Studio\2019\Enterprise\VC\Tools\MSVC\14.23.28105\include\type_traits
;	COMDAT ??$forward@AEBQEAU?$_List_node@PEAVObjector@@PEAX@std@@@std@@YAAEBQEAU?$_List_node@PEAVObjector@@PEAX@0@AEBQEAU10@@Z
_TEXT	SEGMENT
_Arg$ = 224
??$forward@AEBQEAU?$_List_node@PEAVObjector@@PEAX@std@@@std@@YAAEBQEAU?$_List_node@PEAVObjector@@PEAX@0@AEBQEAU10@@Z PROC ; std::forward<std::_List_node<Objector *,void *> * const &>, COMDAT

; 1420 :     remove_reference_t<_Ty>& _Arg) noexcept { // forward an lvalue as either an lvalue or an rvalue

$LN3:
  00000	48 89 4c 24 08	 mov	 QWORD PTR [rsp+8], rcx
  00005	55		 push	 rbp
  00006	57		 push	 rdi
  00007	48 81 ec e8 00
	00 00		 sub	 rsp, 232		; 000000e8H
  0000e	48 8d 6c 24 20	 lea	 rbp, QWORD PTR [rsp+32]
  00013	48 8b fc	 mov	 rdi, rsp
  00016	b9 3a 00 00 00	 mov	 ecx, 58			; 0000003aH
  0001b	b8 cc cc cc cc	 mov	 eax, -858993460		; ccccccccH
  00020	f3 ab		 rep stosd
  00022	48 8b 8c 24 08
	01 00 00	 mov	 rcx, QWORD PTR [rsp+264]
  0002a	48 8d 0d 00 00
	00 00		 lea	 rcx, OFFSET FLAT:__C8593937_type_traits
  00031	e8 00 00 00 00	 call	 __CheckForDebuggerJustMyCode
  00036	90		 npad	 1

; 1421 :     return static_cast<_Ty&&>(_Arg);

  00037	48 8b 85 e0 00
	00 00		 mov	 rax, QWORD PTR _Arg$[rbp]

; 1422 : }

  0003e	48 8d a5 c8 00
	00 00		 lea	 rsp, QWORD PTR [rbp+200]
  00045	5f		 pop	 rdi
  00046	5d		 pop	 rbp
  00047	c3		 ret	 0
??$forward@AEBQEAU?$_List_node@PEAVObjector@@PEAX@std@@@std@@YAAEBQEAU?$_List_node@PEAVObjector@@PEAX@0@AEBQEAU10@@Z ENDP ; std::forward<std::_List_node<Objector *,void *> * const &>
_TEXT	ENDS
; Function compile flags: /Odtp /RTCsu /ZI
; File C:\Program Files (x86)\Microsoft Visual Studio\2019\Enterprise\VC\Tools\MSVC\14.23.28105\include\xmemory
;	COMDAT ?deallocate@?$_Default_allocator_traits@V?$allocator@U_Container_proxy@std@@@std@@@std@@SAXAEAV?$allocator@U_Container_proxy@std@@@2@QEAU_Container_proxy@2@_K@Z
_TEXT	SEGMENT
__formal$ = 224
_Ptr$ = 232
_Count$ = 240
?deallocate@?$_Default_allocator_traits@V?$allocator@U_Container_proxy@std@@@std@@@std@@SAXAEAV?$allocator@U_Container_proxy@std@@@2@QEAU_Container_proxy@2@_K@Z PROC ; std::_Default_allocator_traits<std::allocator<std::_Container_proxy> >::deallocate, COMDAT

; 751  :     static void deallocate(_Alloc&, const pointer _Ptr, const size_type _Count) {

$LN3:
  00000	4c 89 44 24 18	 mov	 QWORD PTR [rsp+24], r8
  00005	48 89 54 24 10	 mov	 QWORD PTR [rsp+16], rdx
  0000a	48 89 4c 24 08	 mov	 QWORD PTR [rsp+8], rcx
  0000f	55		 push	 rbp
  00010	57		 push	 rdi
  00011	48 81 ec e8 00
	00 00		 sub	 rsp, 232		; 000000e8H
  00018	48 8d 6c 24 20	 lea	 rbp, QWORD PTR [rsp+32]
  0001d	48 8b fc	 mov	 rdi, rsp
  00020	b9 3a 00 00 00	 mov	 ecx, 58			; 0000003aH
  00025	b8 cc cc cc cc	 mov	 eax, -858993460		; ccccccccH
  0002a	f3 ab		 rep stosd
  0002c	48 8b 8c 24 08
	01 00 00	 mov	 rcx, QWORD PTR [rsp+264]
  00034	48 8d 0d 00 00
	00 00		 lea	 rcx, OFFSET FLAT:__725EB186_xmemory
  0003b	e8 00 00 00 00	 call	 __CheckForDebuggerJustMyCode

; 752  :         // no overflow check on the following multiply; we assume _Allocate did that check
; 753  :         _Deallocate<_New_alignof<value_type>>(_Ptr, sizeof(value_type) * _Count);

  00040	48 6b 85 f0 00
	00 00 10	 imul	 rax, QWORD PTR _Count$[rbp], 16
  00048	48 8b d0	 mov	 rdx, rax
  0004b	48 8b 8d e8 00
	00 00		 mov	 rcx, QWORD PTR _Ptr$[rbp]
  00052	e8 00 00 00 00	 call	 ??$_Deallocate@$0BA@$0A@@std@@YAXPEAX_K@Z ; std::_Deallocate<16,0>

; 754  :     }

  00057	48 8d a5 c8 00
	00 00		 lea	 rsp, QWORD PTR [rbp+200]
  0005e	5f		 pop	 rdi
  0005f	5d		 pop	 rbp
  00060	c3		 ret	 0
?deallocate@?$_Default_allocator_traits@V?$allocator@U_Container_proxy@std@@@std@@@std@@SAXAEAV?$allocator@U_Container_proxy@std@@@2@QEAU_Container_proxy@2@_K@Z ENDP ; std::_Default_allocator_traits<std::allocator<std::_Container_proxy> >::deallocate
_TEXT	ENDS
; Function compile flags: /Odtp /RTCsu /ZI
; File C:\Program Files (x86)\Microsoft Visual Studio\2019\Enterprise\VC\Tools\MSVC\14.23.28105\include\xmemory
;	COMDAT ??$construct@PEAVObjector@@AEBQEAV1@@?$_Default_allocator_traits@V?$allocator@U?$_List_node@PEAVObjector@@PEAX@std@@@std@@@std@@SAXAEAV?$allocator@U?$_List_node@PEAVObjector@@PEAX@std@@@1@QEAPEAVObjector@@AEBQEAV3@@Z
_TEXT	SEGMENT
$T1 = 200
__formal$ = 256
_Ptr$ = 264
<_Args_0>$ = 272
??$construct@PEAVObjector@@AEBQEAV1@@?$_Default_allocator_traits@V?$allocator@U?$_List_node@PEAVObjector@@PEAX@std@@@std@@@std@@SAXAEAV?$allocator@U?$_List_node@PEAVObjector@@PEAX@std@@@1@QEAPEAVObjector@@AEBQEAV3@@Z PROC ; std::_Default_allocator_traits<std::allocator<std::_List_node<Objector *,void *> > >::construct<Objector *,Objector * const &>, COMDAT

; 757  :     static void construct(_Alloc&, _Objty* const _Ptr, _Types&&... _Args) {

$LN3:
  00000	4c 89 44 24 18	 mov	 QWORD PTR [rsp+24], r8
  00005	48 89 54 24 10	 mov	 QWORD PTR [rsp+16], rdx
  0000a	48 89 4c 24 08	 mov	 QWORD PTR [rsp+8], rcx
  0000f	55		 push	 rbp
  00010	57		 push	 rdi
  00011	48 81 ec 08 01
	00 00		 sub	 rsp, 264		; 00000108H
  00018	48 8d 6c 24 20	 lea	 rbp, QWORD PTR [rsp+32]
  0001d	48 8b fc	 mov	 rdi, rsp
  00020	b9 42 00 00 00	 mov	 ecx, 66			; 00000042H
  00025	b8 cc cc cc cc	 mov	 eax, -858993460		; ccccccccH
  0002a	f3 ab		 rep stosd
  0002c	48 8b 8c 24 28
	01 00 00	 mov	 rcx, QWORD PTR [rsp+296]
  00034	48 8d 0d 00 00
	00 00		 lea	 rcx, OFFSET FLAT:__725EB186_xmemory
  0003b	e8 00 00 00 00	 call	 __CheckForDebuggerJustMyCode
  00040	48 8b 95 08 01
	00 00		 mov	 rdx, QWORD PTR _Ptr$[rbp]
  00047	b9 08 00 00 00	 mov	 ecx, 8
  0004c	e8 00 00 00 00	 call	 ??2@YAPEAX_KPEAX@Z	; operator new
  00051	48 89 85 c8 00
	00 00		 mov	 QWORD PTR $T1[rbp], rax
  00058	48 8b 8d 10 01
	00 00		 mov	 rcx, QWORD PTR <_Args_0>$[rbp]
  0005f	e8 00 00 00 00	 call	 ??$forward@AEBQEAVObjector@@@std@@YAAEBQEAVObjector@@AEBQEAV1@@Z ; std::forward<Objector * const &>
  00064	48 8b 8d c8 00
	00 00		 mov	 rcx, QWORD PTR $T1[rbp]
  0006b	48 8b 00	 mov	 rax, QWORD PTR [rax]
  0006e	48 89 01	 mov	 QWORD PTR [rcx], rax

; 758  :         ::new (const_cast<void*>(static_cast<const volatile void*>(_Ptr))) _Objty(_STD forward<_Types>(_Args)...);
; 759  :     }

  00071	48 8d a5 e8 00
	00 00		 lea	 rsp, QWORD PTR [rbp+232]
  00078	5f		 pop	 rdi
  00079	5d		 pop	 rbp
  0007a	c3		 ret	 0
??$construct@PEAVObjector@@AEBQEAV1@@?$_Default_allocator_traits@V?$allocator@U?$_List_node@PEAVObjector@@PEAX@std@@@std@@@std@@SAXAEAV?$allocator@U?$_List_node@PEAVObjector@@PEAX@std@@@1@QEAPEAVObjector@@AEBQEAV3@@Z ENDP ; std::_Default_allocator_traits<std::allocator<std::_List_node<Objector *,void *> > >::construct<Objector *,Objector * const &>
_TEXT	ENDS
; Function compile flags: /Odtp /RTCsu /ZI
; File C:\Program Files (x86)\Microsoft Visual Studio\2019\Enterprise\VC\Tools\MSVC\14.23.28105\include\xmemory
;	COMDAT ??$_Construct_in_place@PEAU?$_List_node@PEAVObjector@@PEAX@std@@AEBQEAU12@@std@@YAXAEAPEAU?$_List_node@PEAVObjector@@PEAX@0@AEBQEAU10@@Z
_TEXT	SEGMENT
$T1 = 200
_Obj$ = 256
<_Args_0>$ = 264
??$_Construct_in_place@PEAU?$_List_node@PEAVObjector@@PEAX@std@@AEBQEAU12@@std@@YAXAEAPEAU?$_List_node@PEAVObjector@@PEAX@0@AEBQEAU10@@Z PROC ; std::_Construct_in_place<std::_List_node<Objector *,void *> *,std::_List_node<Objector *,void *> * const &>, COMDAT

; 198  : void _Construct_in_place(_Ty& _Obj, _Types&&... _Args) _NOEXCEPT_COND(is_nothrow_constructible_v<_Ty, _Types...>) {

$LN3:
  00000	48 89 54 24 10	 mov	 QWORD PTR [rsp+16], rdx
  00005	48 89 4c 24 08	 mov	 QWORD PTR [rsp+8], rcx
  0000a	55		 push	 rbp
  0000b	57		 push	 rdi
  0000c	48 81 ec 08 01
	00 00		 sub	 rsp, 264		; 00000108H
  00013	48 8d 6c 24 20	 lea	 rbp, QWORD PTR [rsp+32]
  00018	48 8b fc	 mov	 rdi, rsp
  0001b	b9 42 00 00 00	 mov	 ecx, 66			; 00000042H
  00020	b8 cc cc cc cc	 mov	 eax, -858993460		; ccccccccH
  00025	f3 ab		 rep stosd
  00027	48 8b 8c 24 28
	01 00 00	 mov	 rcx, QWORD PTR [rsp+296]
  0002f	48 8d 0d 00 00
	00 00		 lea	 rcx, OFFSET FLAT:__725EB186_xmemory
  00036	e8 00 00 00 00	 call	 __CheckForDebuggerJustMyCode
  0003b	90		 npad	 1
  0003c	48 8b 8d 00 01
	00 00		 mov	 rcx, QWORD PTR _Obj$[rbp]
  00043	e8 00 00 00 00	 call	 ??$addressof@PEAU?$_List_node@PEAVObjector@@PEAX@std@@@std@@YAPEAPEAU?$_List_node@PEAVObjector@@PEAX@0@AEAPEAU10@@Z ; std::addressof<std::_List_node<Objector *,void *> *>
  00048	90		 npad	 1
  00049	48 8b d0	 mov	 rdx, rax
  0004c	b9 08 00 00 00	 mov	 ecx, 8
  00051	e8 00 00 00 00	 call	 ??2@YAPEAX_KPEAX@Z	; operator new
  00056	90		 npad	 1
  00057	48 89 85 c8 00
	00 00		 mov	 QWORD PTR $T1[rbp], rax
  0005e	48 8b 8d 08 01
	00 00		 mov	 rcx, QWORD PTR <_Args_0>$[rbp]
  00065	e8 00 00 00 00	 call	 ??$forward@AEBQEAU?$_List_node@PEAVObjector@@PEAX@std@@@std@@YAAEBQEAU?$_List_node@PEAVObjector@@PEAX@0@AEBQEAU10@@Z ; std::forward<std::_List_node<Objector *,void *> * const &>
  0006a	90		 npad	 1
  0006b	48 8b 8d c8 00
	00 00		 mov	 rcx, QWORD PTR $T1[rbp]
  00072	48 8b 00	 mov	 rax, QWORD PTR [rax]
  00075	48 89 01	 mov	 QWORD PTR [rcx], rax

; 199  :     ::new (const_cast<void*>(static_cast<const volatile void*>(_STD addressof(_Obj))))
; 200  :         _Ty(_STD forward<_Types>(_Args)...);
; 201  : }

  00078	48 8d a5 e8 00
	00 00		 lea	 rsp, QWORD PTR [rbp+232]
  0007f	5f		 pop	 rdi
  00080	5d		 pop	 rbp
  00081	c3		 ret	 0
??$_Construct_in_place@PEAU?$_List_node@PEAVObjector@@PEAX@std@@AEBQEAU12@@std@@YAXAEAPEAU?$_List_node@PEAVObjector@@PEAX@0@AEBQEAU10@@Z ENDP ; std::_Construct_in_place<std::_List_node<Objector *,void *> *,std::_List_node<Objector *,void *> * const &>
_TEXT	ENDS
; Function compile flags: /Odtp /RTCsu /ZI
; File C:\Program Files (x86)\Microsoft Visual Studio\2019\Enterprise\VC\Tools\MSVC\14.23.28105\include\xmemory
;	COMDAT ??$_Allocate_manually_vector_aligned@U_Default_allocate_traits@std@@@std@@YAPEAX_K@Z
_TEXT	SEGMENT
_Block_size$ = 8
_Ptr_container$ = 40
_Ptr$ = 72
_Bytes$ = 320
??$_Allocate_manually_vector_aligned@U_Default_allocate_traits@std@@@std@@YAPEAX_K@Z PROC ; std::_Allocate_manually_vector_aligned<std::_Default_allocate_traits>, COMDAT

; 83   : _DECLSPEC_ALLOCATOR void* _Allocate_manually_vector_aligned(const size_t _Bytes) {

$LN13:
  00000	48 89 4c 24 08	 mov	 QWORD PTR [rsp+8], rcx
  00005	55		 push	 rbp
  00006	57		 push	 rdi
  00007	48 81 ec 58 01
	00 00		 sub	 rsp, 344		; 00000158H
  0000e	48 8d 6c 24 30	 lea	 rbp, QWORD PTR [rsp+48]
  00013	48 8b fc	 mov	 rdi, rsp
  00016	b9 56 00 00 00	 mov	 ecx, 86			; 00000056H
  0001b	b8 cc cc cc cc	 mov	 eax, -858993460		; ccccccccH
  00020	f3 ab		 rep stosd
  00022	48 8b 8c 24 78
	01 00 00	 mov	 rcx, QWORD PTR [rsp+376]
  0002a	48 8d 0d 00 00
	00 00		 lea	 rcx, OFFSET FLAT:__725EB186_xmemory
  00031	e8 00 00 00 00	 call	 __CheckForDebuggerJustMyCode

; 84   :     // allocate _Bytes manually aligned to at least _Big_allocation_alignment
; 85   :     const size_t _Block_size = _Non_user_size + _Bytes;

  00036	48 8b 85 40 01
	00 00		 mov	 rax, QWORD PTR _Bytes$[rbp]
  0003d	48 83 c0 2f	 add	 rax, 47			; 0000002fH
  00041	48 89 45 08	 mov	 QWORD PTR _Block_size$[rbp], rax

; 86   :     if (_Block_size <= _Bytes) {

  00045	48 8b 85 40 01
	00 00		 mov	 rax, QWORD PTR _Bytes$[rbp]
  0004c	48 39 45 08	 cmp	 QWORD PTR _Block_size$[rbp], rax
  00050	77 05		 ja	 SHORT $LN8@Allocate_m

; 87   :         _Throw_bad_array_new_length(); // add overflow

  00052	e8 00 00 00 00	 call	 ?_Throw_bad_array_new_length@std@@YAXXZ ; std::_Throw_bad_array_new_length
$LN8@Allocate_m:

; 88   :     }
; 89   : 
; 90   :     const uintptr_t _Ptr_container = reinterpret_cast<uintptr_t>(_Traits::_Allocate(_Block_size));

  00057	48 8b 4d 08	 mov	 rcx, QWORD PTR _Block_size$[rbp]
  0005b	e8 00 00 00 00	 call	 ?_Allocate@_Default_allocate_traits@std@@SAPEAX_K@Z ; std::_Default_allocate_traits::_Allocate
  00060	48 89 45 28	 mov	 QWORD PTR _Ptr_container$[rbp], rax
$LN4@Allocate_m:

; 91   :     _STL_VERIFY(_Ptr_container != 0, "invalid argument"); // validate even in release since we're doing p[-1]

  00064	48 83 7d 28 00	 cmp	 QWORD PTR _Ptr_container$[rbp], 0
  00069	74 02		 je	 SHORT $LN9@Allocate_m
  0006b	eb 6b		 jmp	 SHORT $LN10@Allocate_m
$LN9@Allocate_m:
$LN7@Allocate_m:
  0006d	48 8d 05 00 00
	00 00		 lea	 rax, OFFSET FLAT:??_C@_0BB@FCMFBGOM@invalid?5argument@
  00074	48 89 44 24 28	 mov	 QWORD PTR [rsp+40], rax
  00079	48 8d 05 00 00
	00 00		 lea	 rax, OFFSET FLAT:??_C@_02DKCKIIND@?$CFs@
  00080	48 89 44 24 20	 mov	 QWORD PTR [rsp+32], rax
  00085	45 33 c9	 xor	 r9d, r9d
  00088	41 b8 5b 00 00
	00		 mov	 r8d, 91			; 0000005bH
  0008e	48 8d 15 00 00
	00 00		 lea	 rdx, OFFSET FLAT:??_C@_0GJ@ICFCEKIN@C?3?2Program?5Files?5?$CIx86?$CJ?2Microsof@
  00095	b9 02 00 00 00	 mov	 ecx, 2
  0009a	ff 15 00 00 00
	00		 call	 QWORD PTR __imp__CrtDbgReport
  000a0	83 f8 01	 cmp	 eax, 1
  000a3	75 03		 jne	 SHORT $LN12@Allocate_m
  000a5	cc		 int	 3
  000a6	33 c0		 xor	 eax, eax
$LN12@Allocate_m:
  000a8	48 c7 44 24 20
	00 00 00 00	 mov	 QWORD PTR [rsp+32], 0
  000b1	41 b9 5b 00 00
	00		 mov	 r9d, 91			; 0000005bH
  000b7	4c 8d 05 00 00
	00 00		 lea	 r8, OFFSET FLAT:??_C@_1NC@MGDJFDEK@?$AAC?$AA?3?$AA?2?$AAP?$AAr?$AAo?$AAg?$AAr?$AAa?$AAm?$AA?5?$AAF?$AAi?$AAl?$AAe@
  000be	48 8d 15 00 00
	00 00		 lea	 rdx, OFFSET FLAT:??_C@_1EO@GFNCMDLA@?$AAs?$AAt?$AAd?$AA?3?$AA?3?$AA_?$AAA?$AAl?$AAl?$AAo?$AAc?$AAa?$AAt?$AAe?$AA_@
  000c5	48 8d 0d 00 00
	00 00		 lea	 rcx, OFFSET FLAT:??_C@_1CG@JNLFBNGN@?$AA?$CC?$AAi?$AAn?$AAv?$AAa?$AAl?$AAi?$AAd?$AA?5?$AAa?$AAr?$AAg?$AAu?$AAm?$AAe@
  000cc	ff 15 00 00 00
	00		 call	 QWORD PTR __imp__invalid_parameter
  000d2	33 c0		 xor	 eax, eax
  000d4	85 c0		 test	 eax, eax
  000d6	75 95		 jne	 SHORT $LN7@Allocate_m
$LN10@Allocate_m:
  000d8	33 c0		 xor	 eax, eax
  000da	85 c0		 test	 eax, eax
  000dc	75 86		 jne	 SHORT $LN4@Allocate_m

; 92   :     void* const _Ptr = reinterpret_cast<void*>((_Ptr_container + _Non_user_size) & ~(_Big_allocation_alignment - 1));

  000de	48 8b 45 28	 mov	 rax, QWORD PTR _Ptr_container$[rbp]
  000e2	48 83 c0 2f	 add	 rax, 47			; 0000002fH
  000e6	48 83 e0 e0	 and	 rax, -32		; ffffffffffffffe0H
  000ea	48 89 45 48	 mov	 QWORD PTR _Ptr$[rbp], rax

; 93   :     static_cast<uintptr_t*>(_Ptr)[-1] = _Ptr_container;

  000ee	b8 08 00 00 00	 mov	 eax, 8
  000f3	48 6b c0 ff	 imul	 rax, rax, -1
  000f7	48 8b 4d 48	 mov	 rcx, QWORD PTR _Ptr$[rbp]
  000fb	48 8b 55 28	 mov	 rdx, QWORD PTR _Ptr_container$[rbp]
  000ff	48 89 14 01	 mov	 QWORD PTR [rcx+rax], rdx

; 94   : 
; 95   : #ifdef _DEBUG
; 96   :     static_cast<uintptr_t*>(_Ptr)[-2] = _Big_allocation_sentinel;

  00103	b8 08 00 00 00	 mov	 eax, 8
  00108	48 6b c0 fe	 imul	 rax, rax, -2
  0010c	48 8b 4d 48	 mov	 rcx, QWORD PTR _Ptr$[rbp]
  00110	48 ba fa fa fa
	fa fa fa fa fa	 mov	 rdx, -361700864190383366 ; fafafafafafafafaH
  0011a	48 89 14 01	 mov	 QWORD PTR [rcx+rax], rdx

; 97   : #endif // _DEBUG
; 98   :     return _Ptr;

  0011e	48 8b 45 48	 mov	 rax, QWORD PTR _Ptr$[rbp]
$LN11@Allocate_m:

; 99   : }

  00122	48 8d a5 28 01
	00 00		 lea	 rsp, QWORD PTR [rbp+296]
  00129	5f		 pop	 rdi
  0012a	5d		 pop	 rbp
  0012b	c3		 ret	 0
??$_Allocate_manually_vector_aligned@U_Default_allocate_traits@std@@@std@@YAPEAX_K@Z ENDP ; std::_Allocate_manually_vector_aligned<std::_Default_allocate_traits>
_TEXT	ENDS
; Function compile flags: /Odtp /RTCsu /ZI
; File C:\Program Files (x86)\Microsoft Visual Studio\2019\Enterprise\VC\Tools\MSVC\14.23.28105\include\xmemory
;	COMDAT ??$_Destroy_in_place@PEAU?$_List_node@PEAVObjector@@PEAX@std@@@std@@YAXAEAPEAU?$_List_node@PEAVObjector@@PEAX@0@@Z
_TEXT	SEGMENT
_Obj$ = 224
??$_Destroy_in_place@PEAU?$_List_node@PEAVObjector@@PEAX@std@@@std@@YAXAEAPEAU?$_List_node@PEAVObjector@@PEAX@0@@Z PROC ; std::_Destroy_in_place<std::_List_node<Objector *,void *> *>, COMDAT

; 321  : void _Destroy_in_place(_Ty& _Obj) noexcept {

$LN3:
  00000	48 89 4c 24 08	 mov	 QWORD PTR [rsp+8], rcx
  00005	55		 push	 rbp
  00006	57		 push	 rdi
  00007	48 81 ec e8 00
	00 00		 sub	 rsp, 232		; 000000e8H
  0000e	48 8d 6c 24 20	 lea	 rbp, QWORD PTR [rsp+32]
  00013	48 8b fc	 mov	 rdi, rsp
  00016	b9 3a 00 00 00	 mov	 ecx, 58			; 0000003aH
  0001b	b8 cc cc cc cc	 mov	 eax, -858993460		; ccccccccH
  00020	f3 ab		 rep stosd
  00022	48 8b 8c 24 08
	01 00 00	 mov	 rcx, QWORD PTR [rsp+264]
  0002a	48 8d 0d 00 00
	00 00		 lea	 rcx, OFFSET FLAT:__725EB186_xmemory
  00031	e8 00 00 00 00	 call	 __CheckForDebuggerJustMyCode
  00036	90		 npad	 1

; 322  :     _Obj.~_Ty();
; 323  : }

  00037	48 8d a5 c8 00
	00 00		 lea	 rsp, QWORD PTR [rbp+200]
  0003e	5f		 pop	 rdi
  0003f	5d		 pop	 rbp
  00040	c3		 ret	 0
??$_Destroy_in_place@PEAU?$_List_node@PEAVObjector@@PEAX@std@@@std@@YAXAEAPEAU?$_List_node@PEAVObjector@@PEAX@0@@Z ENDP ; std::_Destroy_in_place<std::_List_node<Objector *,void *> *>
_TEXT	ENDS
; Function compile flags: /Odtp /RTCsu /ZI
; File C:\Program Files (x86)\Microsoft Visual Studio\2019\Enterprise\VC\Tools\MSVC\14.23.28105\include\list
;	COMDAT ??$_Freenode@V?$allocator@U?$_List_node@PEAVObjector@@PEAX@std@@@std@@@?$_List_node@PEAVObjector@@PEAX@std@@SAXAEAV?$allocator@U?$_List_node@PEAVObjector@@PEAX@std@@@1@PEAU01@@Z
_TEXT	SEGMENT
_Al$ = 224
_Ptr$ = 232
??$_Freenode@V?$allocator@U?$_List_node@PEAVObjector@@PEAX@std@@@std@@@?$_List_node@PEAVObjector@@PEAX@std@@SAXAEAV?$allocator@U?$_List_node@PEAVObjector@@PEAX@std@@@1@PEAU01@@Z PROC ; std::_List_node<Objector *,void *>::_Freenode<std::allocator<std::_List_node<Objector *,void *> > >, COMDAT

; 330  :     static void _Freenode(_Alnode& _Al, _Nodeptr _Ptr) noexcept { // destroy all members in _Ptr and deallocate with _Al

$LN3:
  00000	48 89 54 24 10	 mov	 QWORD PTR [rsp+16], rdx
  00005	48 89 4c 24 08	 mov	 QWORD PTR [rsp+8], rcx
  0000a	55		 push	 rbp
  0000b	57		 push	 rdi
  0000c	48 81 ec e8 00
	00 00		 sub	 rsp, 232		; 000000e8H
  00013	48 8d 6c 24 20	 lea	 rbp, QWORD PTR [rsp+32]
  00018	48 8b fc	 mov	 rdi, rsp
  0001b	b9 3a 00 00 00	 mov	 ecx, 58			; 0000003aH
  00020	b8 cc cc cc cc	 mov	 eax, -858993460		; ccccccccH
  00025	f3 ab		 rep stosd
  00027	48 8b 8c 24 08
	01 00 00	 mov	 rcx, QWORD PTR [rsp+264]
  0002f	48 8d 0d 00 00
	00 00		 lea	 rcx, OFFSET FLAT:__2EF0BD34_list
  00036	e8 00 00 00 00	 call	 __CheckForDebuggerJustMyCode
  0003b	90		 npad	 1

; 331  :         allocator_traits<_Alnode>::destroy(_Al, _STD addressof(_Ptr->_Myval));

  0003c	48 8b 85 e8 00
	00 00		 mov	 rax, QWORD PTR _Ptr$[rbp]
  00043	48 83 c0 10	 add	 rax, 16
  00047	48 8b c8	 mov	 rcx, rax
  0004a	e8 00 00 00 00	 call	 ??$addressof@PEAVObjector@@@std@@YAPEAPEAVObjector@@AEAPEAV1@@Z ; std::addressof<Objector *>
  0004f	90		 npad	 1
  00050	48 8b d0	 mov	 rdx, rax
  00053	48 8b 8d e0 00
	00 00		 mov	 rcx, QWORD PTR _Al$[rbp]
  0005a	e8 00 00 00 00	 call	 ??$destroy@PEAVObjector@@@?$_Default_allocator_traits@V?$allocator@U?$_List_node@PEAVObjector@@PEAX@std@@@std@@@std@@SAXAEAV?$allocator@U?$_List_node@PEAVObjector@@PEAX@std@@@1@QEAPEAVObjector@@@Z ; std::_Default_allocator_traits<std::allocator<std::_List_node<Objector *,void *> > >::destroy<Objector *>
  0005f	90		 npad	 1

; 332  :         _Freenode0(_Al, _Ptr);

  00060	48 8b 95 e8 00
	00 00		 mov	 rdx, QWORD PTR _Ptr$[rbp]
  00067	48 8b 8d e0 00
	00 00		 mov	 rcx, QWORD PTR _Al$[rbp]
  0006e	e8 00 00 00 00	 call	 ??$_Freenode0@V?$allocator@U?$_List_node@PEAVObjector@@PEAX@std@@@std@@@?$_List_node@PEAVObjector@@PEAX@std@@SAXAEAV?$allocator@U?$_List_node@PEAVObjector@@PEAX@std@@@1@PEAU01@@Z ; std::_List_node<Objector *,void *>::_Freenode0<std::allocator<std::_List_node<Objector *,void *> > >
  00073	90		 npad	 1

; 333  :     }

  00074	48 8d a5 c8 00
	00 00		 lea	 rsp, QWORD PTR [rbp+200]
  0007b	5f		 pop	 rdi
  0007c	5d		 pop	 rbp
  0007d	c3		 ret	 0
??$_Freenode@V?$allocator@U?$_List_node@PEAVObjector@@PEAX@std@@@std@@@?$_List_node@PEAVObjector@@PEAX@std@@SAXAEAV?$allocator@U?$_List_node@PEAVObjector@@PEAX@std@@@1@PEAU01@@Z ENDP ; std::_List_node<Objector *,void *>::_Freenode<std::allocator<std::_List_node<Objector *,void *> > >
_TEXT	ENDS
; Function compile flags: /Odtp /RTCsu /ZI
; File C:\Program Files (x86)\Microsoft Visual Studio\2019\Enterprise\VC\Tools\MSVC\14.23.28105\include\type_traits
;	COMDAT ??$forward@AEAPEAU?$_List_node@PEAVObjector@@PEAX@std@@@std@@YAAEAPEAU?$_List_node@PEAVObjector@@PEAX@0@AEAPEAU10@@Z
_TEXT	SEGMENT
_Arg$ = 224
??$forward@AEAPEAU?$_List_node@PEAVObjector@@PEAX@std@@@std@@YAAEAPEAU?$_List_node@PEAVObjector@@PEAX@0@AEAPEAU10@@Z PROC ; std::forward<std::_List_node<Objector *,void *> * &>, COMDAT

; 1420 :     remove_reference_t<_Ty>& _Arg) noexcept { // forward an lvalue as either an lvalue or an rvalue

$LN3:
  00000	48 89 4c 24 08	 mov	 QWORD PTR [rsp+8], rcx
  00005	55		 push	 rbp
  00006	57		 push	 rdi
  00007	48 81 ec e8 00
	00 00		 sub	 rsp, 232		; 000000e8H
  0000e	48 8d 6c 24 20	 lea	 rbp, QWORD PTR [rsp+32]
  00013	48 8b fc	 mov	 rdi, rsp
  00016	b9 3a 00 00 00	 mov	 ecx, 58			; 0000003aH
  0001b	b8 cc cc cc cc	 mov	 eax, -858993460		; ccccccccH
  00020	f3 ab		 rep stosd
  00022	48 8b 8c 24 08
	01 00 00	 mov	 rcx, QWORD PTR [rsp+264]
  0002a	48 8d 0d 00 00
	00 00		 lea	 rcx, OFFSET FLAT:__C8593937_type_traits
  00031	e8 00 00 00 00	 call	 __CheckForDebuggerJustMyCode
  00036	90		 npad	 1

; 1421 :     return static_cast<_Ty&&>(_Arg);

  00037	48 8b 85 e0 00
	00 00		 mov	 rax, QWORD PTR _Arg$[rbp]

; 1422 : }

  0003e	48 8d a5 c8 00
	00 00		 lea	 rsp, QWORD PTR [rbp+200]
  00045	5f		 pop	 rdi
  00046	5d		 pop	 rbp
  00047	c3		 ret	 0
??$forward@AEAPEAU?$_List_node@PEAVObjector@@PEAX@std@@@std@@YAAEAPEAU?$_List_node@PEAVObjector@@PEAX@0@AEAPEAU10@@Z ENDP ; std::forward<std::_List_node<Objector *,void *> * &>
_TEXT	ENDS
; Function compile flags: /Odtp /RTCsu /ZI
; File C:\Program Files (x86)\Microsoft Visual Studio\2019\Enterprise\VC\Tools\MSVC\14.23.28105\include\xmemory
;	COMDAT ??$_Deallocate_plain@V?$allocator@U_Container_proxy@std@@@std@@@std@@YAXAEAV?$allocator@U_Container_proxy@std@@@0@QEAU_Container_proxy@0@@Z
_TEXT	SEGMENT
_Al$ = 224
_Ptr$ = 232
??$_Deallocate_plain@V?$allocator@U_Container_proxy@std@@@std@@@std@@YAXAEAV?$allocator@U_Container_proxy@std@@@0@QEAU_Container_proxy@0@@Z PROC ; std::_Deallocate_plain<std::allocator<std::_Container_proxy> >, COMDAT

; 1081 : void _Deallocate_plain(_Alloc& _Al, typename _Alloc::value_type* const _Ptr) noexcept {

$LN3:
  00000	48 89 54 24 10	 mov	 QWORD PTR [rsp+16], rdx
  00005	48 89 4c 24 08	 mov	 QWORD PTR [rsp+8], rcx
  0000a	55		 push	 rbp
  0000b	57		 push	 rdi
  0000c	48 81 ec e8 00
	00 00		 sub	 rsp, 232		; 000000e8H
  00013	48 8d 6c 24 20	 lea	 rbp, QWORD PTR [rsp+32]
  00018	48 8b fc	 mov	 rdi, rsp
  0001b	b9 3a 00 00 00	 mov	 ecx, 58			; 0000003aH
  00020	b8 cc cc cc cc	 mov	 eax, -858993460		; ccccccccH
  00025	f3 ab		 rep stosd
  00027	48 8b 8c 24 08
	01 00 00	 mov	 rcx, QWORD PTR [rsp+264]
  0002f	48 8d 0d 00 00
	00 00		 lea	 rcx, OFFSET FLAT:__725EB186_xmemory
  00036	e8 00 00 00 00	 call	 __CheckForDebuggerJustMyCode
  0003b	90		 npad	 1

; 1082 :     // deallocate a plain pointer using an allocator
; 1083 :     using _Alloc_traits = allocator_traits<_Alloc>;
; 1084 :     if constexpr (is_same_v<_Alloc_ptr_t<_Alloc>, typename _Alloc::value_type*>) {
; 1085 :         _Alloc_traits::deallocate(_Al, _Ptr, 1);

  0003c	41 b8 01 00 00
	00		 mov	 r8d, 1
  00042	48 8b 95 e8 00
	00 00		 mov	 rdx, QWORD PTR _Ptr$[rbp]
  00049	48 8b 8d e0 00
	00 00		 mov	 rcx, QWORD PTR _Al$[rbp]
  00050	e8 00 00 00 00	 call	 ?deallocate@?$_Default_allocator_traits@V?$allocator@U_Container_proxy@std@@@std@@@std@@SAXAEAV?$allocator@U_Container_proxy@std@@@2@QEAU_Container_proxy@2@_K@Z ; std::_Default_allocator_traits<std::allocator<std::_Container_proxy> >::deallocate
  00055	90		 npad	 1

; 1086 :     } else {
; 1087 :         using _Ptr_traits = pointer_traits<_Alloc_ptr_t<_Alloc>>;
; 1088 :         _Alloc_traits::deallocate(_Al, _Ptr_traits::pointer_to(*_Ptr), 1);
; 1089 :     }
; 1090 : }

  00056	48 8d a5 c8 00
	00 00		 lea	 rsp, QWORD PTR [rbp+200]
  0005d	5f		 pop	 rdi
  0005e	5d		 pop	 rbp
  0005f	c3		 ret	 0
??$_Deallocate_plain@V?$allocator@U_Container_proxy@std@@@std@@@std@@YAXAEAV?$allocator@U_Container_proxy@std@@@0@QEAU_Container_proxy@0@@Z ENDP ; std::_Deallocate_plain<std::allocator<std::_Container_proxy> >
_TEXT	ENDS
; Function compile flags: /Odtp /RTCsu /ZI
; File C:\Program Files (x86)\Microsoft Visual Studio\2019\Enterprise\VC\Tools\MSVC\14.23.28105\include\list
;	COMDAT ??$?0AEBQEAVObjector@@@?$_List_node_emplace_op2@V?$allocator@U?$_List_node@PEAVObjector@@PEAX@std@@@std@@@std@@QEAA@AEAV?$allocator@U?$_List_node@PEAVObjector@@PEAX@std@@@1@AEBQEAVObjector@@@Z
_TEXT	SEGMENT
tv136 = 192
tv134 = 200
tv132 = 208
this$ = 256
_Al_$ = 264
<_Vals_0>$ = 272
??$?0AEBQEAVObjector@@@?$_List_node_emplace_op2@V?$allocator@U?$_List_node@PEAVObjector@@PEAX@std@@@std@@@std@@QEAA@AEAV?$allocator@U?$_List_node@PEAVObjector@@PEAX@std@@@1@AEBQEAVObjector@@@Z PROC ; std::_List_node_emplace_op2<std::allocator<std::_List_node<Objector *,void *> > >::_List_node_emplace_op2<std::allocator<std::_List_node<Objector *,void *> > ><Objector * const &>, COMDAT

; 539  :     explicit _List_node_emplace_op2(_Alnode& _Al_, _Valtys&&... _Vals) : _Alloc_construct_ptr<_Alnode>(_Al_) {

$LN4:
  00000	4c 89 44 24 18	 mov	 QWORD PTR [rsp+24], r8
  00005	48 89 54 24 10	 mov	 QWORD PTR [rsp+16], rdx
  0000a	48 89 4c 24 08	 mov	 QWORD PTR [rsp+8], rcx
  0000f	55		 push	 rbp
  00010	57		 push	 rdi
  00011	48 81 ec 08 01
	00 00		 sub	 rsp, 264		; 00000108H
  00018	48 8d 6c 24 20	 lea	 rbp, QWORD PTR [rsp+32]
  0001d	48 8b fc	 mov	 rdi, rsp
  00020	b9 42 00 00 00	 mov	 ecx, 66			; 00000042H
  00025	b8 cc cc cc cc	 mov	 eax, -858993460		; ccccccccH
  0002a	f3 ab		 rep stosd
  0002c	48 8b 8c 24 28
	01 00 00	 mov	 rcx, QWORD PTR [rsp+296]
  00034	48 8d 0d 00 00
	00 00		 lea	 rcx, OFFSET FLAT:__2EF0BD34_list
  0003b	e8 00 00 00 00	 call	 __CheckForDebuggerJustMyCode
  00040	48 8b 95 08 01
	00 00		 mov	 rdx, QWORD PTR _Al_$[rbp]
  00047	48 8b 8d 00 01
	00 00		 mov	 rcx, QWORD PTR this$[rbp]
  0004e	e8 00 00 00 00	 call	 ??0?$_Alloc_construct_ptr@V?$allocator@U?$_List_node@PEAVObjector@@PEAX@std@@@std@@@std@@QEAA@AEAV?$allocator@U?$_List_node@PEAVObjector@@PEAX@std@@@1@@Z ; std::_Alloc_construct_ptr<std::allocator<std::_List_node<Objector *,void *> > >::_Alloc_construct_ptr<std::allocator<std::_List_node<Objector *,void *> > >
  00053	90		 npad	 1

; 540  :         this->_Allocate();

  00054	48 8b 8d 00 01
	00 00		 mov	 rcx, QWORD PTR this$[rbp]
  0005b	e8 00 00 00 00	 call	 ?_Allocate@?$_Alloc_construct_ptr@V?$allocator@U?$_List_node@PEAVObjector@@PEAX@std@@@std@@@std@@QEAAXXZ ; std::_Alloc_construct_ptr<std::allocator<std::_List_node<Objector *,void *> > >::_Allocate

; 541  :         _Alnode_traits::construct(this->_Al, _STD addressof(this->_Ptr->_Myval), _STD forward<_Valtys>(_Vals)...);

  00060	48 8b 8d 10 01
	00 00		 mov	 rcx, QWORD PTR <_Vals_0>$[rbp]
  00067	e8 00 00 00 00	 call	 ??$forward@AEBQEAVObjector@@@std@@YAAEBQEAVObjector@@AEBQEAV1@@Z ; std::forward<Objector * const &>
  0006c	48 89 85 c0 00
	00 00		 mov	 QWORD PTR tv136[rbp], rax
  00073	48 8b 85 00 01
	00 00		 mov	 rax, QWORD PTR this$[rbp]
  0007a	48 8b 40 08	 mov	 rax, QWORD PTR [rax+8]
  0007e	48 83 c0 10	 add	 rax, 16
  00082	48 8b c8	 mov	 rcx, rax
  00085	e8 00 00 00 00	 call	 ??$addressof@PEAVObjector@@@std@@YAPEAPEAVObjector@@AEAPEAV1@@Z ; std::addressof<Objector *>
  0008a	48 89 85 c8 00
	00 00		 mov	 QWORD PTR tv134[rbp], rax
  00091	48 8b 85 00 01
	00 00		 mov	 rax, QWORD PTR this$[rbp]
  00098	48 8b 00	 mov	 rax, QWORD PTR [rax]
  0009b	48 89 85 d0 00
	00 00		 mov	 QWORD PTR tv132[rbp], rax
  000a2	4c 8b 85 c0 00
	00 00		 mov	 r8, QWORD PTR tv136[rbp]
  000a9	48 8b 95 c8 00
	00 00		 mov	 rdx, QWORD PTR tv134[rbp]
  000b0	48 8b 8d d0 00
	00 00		 mov	 rcx, QWORD PTR tv132[rbp]
  000b7	e8 00 00 00 00	 call	 ??$construct@PEAVObjector@@AEBQEAV1@@?$_Default_allocator_traits@V?$allocator@U?$_List_node@PEAVObjector@@PEAX@std@@@std@@@std@@SAXAEAV?$allocator@U?$_List_node@PEAVObjector@@PEAX@std@@@1@QEAPEAVObjector@@AEBQEAV3@@Z ; std::_Default_allocator_traits<std::allocator<std::_List_node<Objector *,void *> > >::construct<Objector *,Objector * const &>
  000bc	90		 npad	 1

; 542  :     }

  000bd	48 8b 85 00 01
	00 00		 mov	 rax, QWORD PTR this$[rbp]
  000c4	48 8d a5 e8 00
	00 00		 lea	 rsp, QWORD PTR [rbp+232]
  000cb	5f		 pop	 rdi
  000cc	5d		 pop	 rbp
  000cd	c3		 ret	 0
??$?0AEBQEAVObjector@@@?$_List_node_emplace_op2@V?$allocator@U?$_List_node@PEAVObjector@@PEAX@std@@@std@@@std@@QEAA@AEAV?$allocator@U?$_List_node@PEAVObjector@@PEAX@std@@@1@AEBQEAVObjector@@@Z ENDP ; std::_List_node_emplace_op2<std::allocator<std::_List_node<Objector *,void *> > >::_List_node_emplace_op2<std::allocator<std::_List_node<Objector *,void *> > ><Objector * const &>
_TEXT	ENDS
;	COMDAT text$x
text$x	SEGMENT
tv136 = 192
tv134 = 200
tv132 = 208
this$ = 256
_Al_$ = 264
<_Vals_0>$ = 272
?dtor$0@?0???$?0AEBQEAVObjector@@@?$_List_node_emplace_op2@V?$allocator@U?$_List_node@PEAVObjector@@PEAX@std@@@std@@@std@@QEAA@AEAV?$allocator@U?$_List_node@PEAVObjector@@PEAX@std@@@1@AEBQEAVObjector@@@Z@4HA PROC ; `std::_List_node_emplace_op2<std::allocator<std::_List_node<Objector *,void *> > >::_List_node_emplace_op2<std::allocator<std::_List_node<Objector *,void *> > ><Objector * const &>'::`1'::dtor$0
  00000	48 89 4c 24 08	 mov	 QWORD PTR [rsp+8], rcx
  00005	48 89 54 24 10	 mov	 QWORD PTR [rsp+16], rdx
  0000a	55		 push	 rbp
  0000b	57		 push	 rdi
  0000c	48 83 ec 28	 sub	 rsp, 40			; 00000028H
  00010	48 8d 6a 20	 lea	 rbp, QWORD PTR [rdx+32]
  00014	48 8b 8d 00 01
	00 00		 mov	 rcx, QWORD PTR this$[rbp]
  0001b	e8 00 00 00 00	 call	 ??1?$_Alloc_construct_ptr@V?$allocator@U?$_List_node@PEAVObjector@@PEAX@std@@@std@@@std@@QEAA@XZ ; std::_Alloc_construct_ptr<std::allocator<std::_List_node<Objector *,void *> > >::~_Alloc_construct_ptr<std::allocator<std::_List_node<Objector *,void *> > >
  00020	48 83 c4 28	 add	 rsp, 40			; 00000028H
  00024	5f		 pop	 rdi
  00025	5d		 pop	 rbp
  00026	c3		 ret	 0
?dtor$0@?0???$?0AEBQEAVObjector@@@?$_List_node_emplace_op2@V?$allocator@U?$_List_node@PEAVObjector@@PEAX@std@@@std@@@std@@QEAA@AEAV?$allocator@U?$_List_node@PEAVObjector@@PEAX@std@@@1@AEBQEAVObjector@@@Z@4HA ENDP ; `std::_List_node_emplace_op2<std::allocator<std::_List_node<Objector *,void *> > >::_List_node_emplace_op2<std::allocator<std::_List_node<Objector *,void *> > ><Objector * const &>'::`1'::dtor$0
text$x	ENDS
; Function compile flags: /Odtp /RTCsu /ZI
;	COMDAT text$x
text$x	SEGMENT
tv136 = 192
tv134 = 200
tv132 = 208
this$ = 256
_Al_$ = 264
<_Vals_0>$ = 272
?dtor$0@?0???$?0AEBQEAVObjector@@@?$_List_node_emplace_op2@V?$allocator@U?$_List_node@PEAVObjector@@PEAX@std@@@std@@@std@@QEAA@AEAV?$allocator@U?$_List_node@PEAVObjector@@PEAX@std@@@1@AEBQEAVObjector@@@Z@4HA PROC ; `std::_List_node_emplace_op2<std::allocator<std::_List_node<Objector *,void *> > >::_List_node_emplace_op2<std::allocator<std::_List_node<Objector *,void *> > ><Objector * const &>'::`1'::dtor$0
  00000	48 89 4c 24 08	 mov	 QWORD PTR [rsp+8], rcx
  00005	48 89 54 24 10	 mov	 QWORD PTR [rsp+16], rdx
  0000a	55		 push	 rbp
  0000b	57		 push	 rdi
  0000c	48 83 ec 28	 sub	 rsp, 40			; 00000028H
  00010	48 8d 6a 20	 lea	 rbp, QWORD PTR [rdx+32]
  00014	48 8b 8d 00 01
	00 00		 mov	 rcx, QWORD PTR this$[rbp]
  0001b	e8 00 00 00 00	 call	 ??1?$_Alloc_construct_ptr@V?$allocator@U?$_List_node@PEAVObjector@@PEAX@std@@@std@@@std@@QEAA@XZ ; std::_Alloc_construct_ptr<std::allocator<std::_List_node<Objector *,void *> > >::~_Alloc_construct_ptr<std::allocator<std::_List_node<Objector *,void *> > >
  00020	48 83 c4 28	 add	 rsp, 40			; 00000028H
  00024	5f		 pop	 rdi
  00025	5d		 pop	 rbp
  00026	c3		 ret	 0
?dtor$0@?0???$?0AEBQEAVObjector@@@?$_List_node_emplace_op2@V?$allocator@U?$_List_node@PEAVObjector@@PEAX@std@@@std@@@std@@QEAA@AEAV?$allocator@U?$_List_node@PEAVObjector@@PEAX@std@@@1@AEBQEAVObjector@@@Z@4HA ENDP ; `std::_List_node_emplace_op2<std::allocator<std::_List_node<Objector *,void *> > >::_List_node_emplace_op2<std::allocator<std::_List_node<Objector *,void *> > ><Objector * const &>'::`1'::dtor$0
text$x	ENDS
; Function compile flags: /Odtp /RTCsu /ZI
; File C:\Program Files (x86)\Microsoft Visual Studio\2019\Enterprise\VC\Tools\MSVC\14.23.28105\include\type_traits
;	COMDAT ??$forward@AEBQEAVObjector@@@std@@YAAEBQEAVObjector@@AEBQEAV1@@Z
_TEXT	SEGMENT
_Arg$ = 224
??$forward@AEBQEAVObjector@@@std@@YAAEBQEAVObjector@@AEBQEAV1@@Z PROC ; std::forward<Objector * const &>, COMDAT

; 1420 :     remove_reference_t<_Ty>& _Arg) noexcept { // forward an lvalue as either an lvalue or an rvalue

$LN3:
  00000	48 89 4c 24 08	 mov	 QWORD PTR [rsp+8], rcx
  00005	55		 push	 rbp
  00006	57		 push	 rdi
  00007	48 81 ec e8 00
	00 00		 sub	 rsp, 232		; 000000e8H
  0000e	48 8d 6c 24 20	 lea	 rbp, QWORD PTR [rsp+32]
  00013	48 8b fc	 mov	 rdi, rsp
  00016	b9 3a 00 00 00	 mov	 ecx, 58			; 0000003aH
  0001b	b8 cc cc cc cc	 mov	 eax, -858993460		; ccccccccH
  00020	f3 ab		 rep stosd
  00022	48 8b 8c 24 08
	01 00 00	 mov	 rcx, QWORD PTR [rsp+264]
  0002a	48 8d 0d 00 00
	00 00		 lea	 rcx, OFFSET FLAT:__C8593937_type_traits
  00031	e8 00 00 00 00	 call	 __CheckForDebuggerJustMyCode
  00036	90		 npad	 1

; 1421 :     return static_cast<_Ty&&>(_Arg);

  00037	48 8b 85 e0 00
	00 00		 mov	 rax, QWORD PTR _Arg$[rbp]

; 1422 : }

  0003e	48 8d a5 c8 00
	00 00		 lea	 rsp, QWORD PTR [rbp+200]
  00045	5f		 pop	 rdi
  00046	5d		 pop	 rbp
  00047	c3		 ret	 0
??$forward@AEBQEAVObjector@@@std@@YAAEBQEAVObjector@@AEBQEAV1@@Z ENDP ; std::forward<Objector * const &>
_TEXT	ENDS
; Function compile flags: /Odtp /RTCsu /ZI
; File C:\Program Files (x86)\Microsoft Visual Studio\2019\Enterprise\VC\Tools\MSVC\14.23.28105\include\list
;	COMDAT ?_Transfer_before@?$_List_node_emplace_op2@V?$allocator@U?$_List_node@PEAVObjector@@PEAX@std@@@std@@@std@@QEAAPEAU?$_List_node@PEAVObjector@@PEAX@2@QEAU32@@Z
_TEXT	SEGMENT
_Insert_after$ = 8
_Result$ = 40
__$ArrayPad$ = 248
this$ = 288
_Insert_before$ = 296
?_Transfer_before@?$_List_node_emplace_op2@V?$allocator@U?$_List_node@PEAVObjector@@PEAX@std@@@std@@@std@@QEAAPEAU?$_List_node@PEAVObjector@@PEAX@2@QEAU32@@Z PROC ; std::_List_node_emplace_op2<std::allocator<std::_List_node<Objector *,void *> > >::_Transfer_before, COMDAT

; 553  :     pointer _Transfer_before(const pointer _Insert_before) noexcept {

$LN3:
  00000	48 89 54 24 10	 mov	 QWORD PTR [rsp+16], rdx
  00005	48 89 4c 24 08	 mov	 QWORD PTR [rsp+8], rcx
  0000a	55		 push	 rbp
  0000b	57		 push	 rdi
  0000c	48 81 ec 28 01
	00 00		 sub	 rsp, 296		; 00000128H
  00013	48 8d 6c 24 20	 lea	 rbp, QWORD PTR [rsp+32]
  00018	48 8b fc	 mov	 rdi, rsp
  0001b	b9 4a 00 00 00	 mov	 ecx, 74			; 0000004aH
  00020	b8 cc cc cc cc	 mov	 eax, -858993460		; ccccccccH
  00025	f3 ab		 rep stosd
  00027	48 8b 8c 24 48
	01 00 00	 mov	 rcx, QWORD PTR [rsp+328]
  0002f	48 8b 05 00 00
	00 00		 mov	 rax, QWORD PTR __security_cookie
  00036	48 33 c5	 xor	 rax, rbp
  00039	48 89 85 f8 00
	00 00		 mov	 QWORD PTR __$ArrayPad$[rbp], rax
  00040	48 8d 0d 00 00
	00 00		 lea	 rcx, OFFSET FLAT:__2EF0BD34_list
  00047	e8 00 00 00 00	 call	 __CheckForDebuggerJustMyCode
  0004c	90		 npad	 1

; 554  :         const pointer _Insert_after = _Insert_before->_Prev;

  0004d	48 8b 85 28 01
	00 00		 mov	 rax, QWORD PTR _Insert_before$[rbp]
  00054	48 8b 40 08	 mov	 rax, QWORD PTR [rax+8]
  00058	48 89 45 08	 mov	 QWORD PTR _Insert_after$[rbp], rax

; 555  :         _Construct_in_place(this->_Ptr->_Next, _Insert_before);

  0005c	48 8b 85 20 01
	00 00		 mov	 rax, QWORD PTR this$[rbp]
  00063	48 8b 40 08	 mov	 rax, QWORD PTR [rax+8]
  00067	48 8d 95 28 01
	00 00		 lea	 rdx, QWORD PTR _Insert_before$[rbp]
  0006e	48 8b c8	 mov	 rcx, rax
  00071	e8 00 00 00 00	 call	 ??$_Construct_in_place@PEAU?$_List_node@PEAVObjector@@PEAX@std@@AEBQEAU12@@std@@YAXAEAPEAU?$_List_node@PEAVObjector@@PEAX@0@AEBQEAU10@@Z ; std::_Construct_in_place<std::_List_node<Objector *,void *> *,std::_List_node<Objector *,void *> * const &>
  00076	90		 npad	 1

; 556  :         _Construct_in_place(this->_Ptr->_Prev, _Insert_after);

  00077	48 8b 85 20 01
	00 00		 mov	 rax, QWORD PTR this$[rbp]
  0007e	48 8b 40 08	 mov	 rax, QWORD PTR [rax+8]
  00082	48 83 c0 08	 add	 rax, 8
  00086	48 8d 55 08	 lea	 rdx, QWORD PTR _Insert_after$[rbp]
  0008a	48 8b c8	 mov	 rcx, rax
  0008d	e8 00 00 00 00	 call	 ??$_Construct_in_place@PEAU?$_List_node@PEAVObjector@@PEAX@std@@AEBQEAU12@@std@@YAXAEAPEAU?$_List_node@PEAVObjector@@PEAX@0@AEBQEAU10@@Z ; std::_Construct_in_place<std::_List_node<Objector *,void *> *,std::_List_node<Objector *,void *> * const &>
  00092	90		 npad	 1

; 557  :         const auto _Result    = this->_Ptr;

  00093	48 8b 85 20 01
	00 00		 mov	 rax, QWORD PTR this$[rbp]
  0009a	48 8b 40 08	 mov	 rax, QWORD PTR [rax+8]
  0009e	48 89 45 28	 mov	 QWORD PTR _Result$[rbp], rax

; 558  :         this->_Ptr            = pointer{};

  000a2	48 8b 85 20 01
	00 00		 mov	 rax, QWORD PTR this$[rbp]
  000a9	48 c7 40 08 00
	00 00 00	 mov	 QWORD PTR [rax+8], 0

; 559  :         _Insert_before->_Prev = _Result;

  000b1	48 8b 85 28 01
	00 00		 mov	 rax, QWORD PTR _Insert_before$[rbp]
  000b8	48 8b 4d 28	 mov	 rcx, QWORD PTR _Result$[rbp]
  000bc	48 89 48 08	 mov	 QWORD PTR [rax+8], rcx

; 560  :         _Insert_after->_Next  = _Result;

  000c0	48 8b 45 08	 mov	 rax, QWORD PTR _Insert_after$[rbp]
  000c4	48 8b 4d 28	 mov	 rcx, QWORD PTR _Result$[rbp]
  000c8	48 89 08	 mov	 QWORD PTR [rax], rcx

; 561  :         return _Result;

  000cb	48 8b 45 28	 mov	 rax, QWORD PTR _Result$[rbp]

; 562  :     }

  000cf	48 8b f8	 mov	 rdi, rax
  000d2	48 8d 4d e0	 lea	 rcx, QWORD PTR [rbp-32]
  000d6	48 8d 15 00 00
	00 00		 lea	 rdx, OFFSET FLAT:?_Transfer_before@?$_List_node_emplace_op2@V?$allocator@U?$_List_node@PEAVObjector@@PEAX@std@@@std@@@std@@QEAAPEAU?$_List_node@PEAVObjector@@PEAX@2@QEAU32@@Z$rtcFrameData
  000dd	e8 00 00 00 00	 call	 _RTC_CheckStackVars
  000e2	90		 npad	 1
  000e3	48 8b c7	 mov	 rax, rdi
  000e6	48 8b 8d f8 00
	00 00		 mov	 rcx, QWORD PTR __$ArrayPad$[rbp]
  000ed	48 33 cd	 xor	 rcx, rbp
  000f0	e8 00 00 00 00	 call	 __security_check_cookie
  000f5	90		 npad	 1
  000f6	48 8d a5 08 01
	00 00		 lea	 rsp, QWORD PTR [rbp+264]
  000fd	5f		 pop	 rdi
  000fe	5d		 pop	 rbp
  000ff	c3		 ret	 0
?_Transfer_before@?$_List_node_emplace_op2@V?$allocator@U?$_List_node@PEAVObjector@@PEAX@std@@@std@@@std@@QEAAPEAU?$_List_node@PEAVObjector@@PEAX@2@QEAU32@@Z ENDP ; std::_List_node_emplace_op2<std::allocator<std::_List_node<Objector *,void *> > >::_Transfer_before
_TEXT	ENDS
; Function compile flags: /Odtp /RTCsu /ZI
; File C:\Program Files (x86)\Microsoft Visual Studio\2019\Enterprise\VC\Tools\MSVC\14.23.28105\include\list
;	COMDAT ??1?$_List_node_emplace_op2@V?$allocator@U?$_List_node@PEAVObjector@@PEAX@std@@@std@@@std@@QEAA@XZ
_TEXT	SEGMENT
tv93 = 192
tv91 = 200
this$ = 240
??1?$_List_node_emplace_op2@V?$allocator@U?$_List_node@PEAVObjector@@PEAX@std@@@std@@@std@@QEAA@XZ PROC ; std::_List_node_emplace_op2<std::allocator<std::_List_node<Objector *,void *> > >::~_List_node_emplace_op2<std::allocator<std::_List_node<Objector *,void *> > >, COMDAT

; 544  :     ~_List_node_emplace_op2() {

$LN4:
  00000	48 89 4c 24 08	 mov	 QWORD PTR [rsp+8], rcx
  00005	55		 push	 rbp
  00006	57		 push	 rdi
  00007	48 81 ec f8 00
	00 00		 sub	 rsp, 248		; 000000f8H
  0000e	48 8d 6c 24 20	 lea	 rbp, QWORD PTR [rsp+32]
  00013	48 8b fc	 mov	 rdi, rsp
  00016	b9 3e 00 00 00	 mov	 ecx, 62			; 0000003eH
  0001b	b8 cc cc cc cc	 mov	 eax, -858993460		; ccccccccH
  00020	f3 ab		 rep stosd
  00022	48 8b 8c 24 18
	01 00 00	 mov	 rcx, QWORD PTR [rsp+280]
  0002a	48 8d 0d 00 00
	00 00		 lea	 rcx, OFFSET FLAT:__2EF0BD34_list
  00031	e8 00 00 00 00	 call	 __CheckForDebuggerJustMyCode
  00036	90		 npad	 1

; 545  :         if (this->_Ptr != pointer{}) {

  00037	48 8b 85 f0 00
	00 00		 mov	 rax, QWORD PTR this$[rbp]
  0003e	48 83 78 08 00	 cmp	 QWORD PTR [rax+8], 0
  00043	74 44		 je	 SHORT $LN2@List_node_

; 546  :             _Alnode_traits::destroy(this->_Al, _STD addressof(this->_Ptr->_Myval));

  00045	48 8b 85 f0 00
	00 00		 mov	 rax, QWORD PTR this$[rbp]
  0004c	48 8b 40 08	 mov	 rax, QWORD PTR [rax+8]
  00050	48 83 c0 10	 add	 rax, 16
  00054	48 8b c8	 mov	 rcx, rax
  00057	e8 00 00 00 00	 call	 ??$addressof@PEAVObjector@@@std@@YAPEAPEAVObjector@@AEAPEAV1@@Z ; std::addressof<Objector *>
  0005c	90		 npad	 1
  0005d	48 89 85 c0 00
	00 00		 mov	 QWORD PTR tv93[rbp], rax
  00064	48 8b 85 f0 00
	00 00		 mov	 rax, QWORD PTR this$[rbp]
  0006b	48 8b 00	 mov	 rax, QWORD PTR [rax]
  0006e	48 89 85 c8 00
	00 00		 mov	 QWORD PTR tv91[rbp], rax
  00075	48 8b 95 c0 00
	00 00		 mov	 rdx, QWORD PTR tv93[rbp]
  0007c	48 8b 8d c8 00
	00 00		 mov	 rcx, QWORD PTR tv91[rbp]
  00083	e8 00 00 00 00	 call	 ??$destroy@PEAVObjector@@@?$_Default_allocator_traits@V?$allocator@U?$_List_node@PEAVObjector@@PEAX@std@@@std@@@std@@SAXAEAV?$allocator@U?$_List_node@PEAVObjector@@PEAX@std@@@1@QEAPEAVObjector@@@Z ; std::_Default_allocator_traits<std::allocator<std::_List_node<Objector *,void *> > >::destroy<Objector *>
  00088	90		 npad	 1
$LN2@List_node_:

; 547  :         }
; 548  :     }

  00089	48 8b 8d f0 00
	00 00		 mov	 rcx, QWORD PTR this$[rbp]
  00090	e8 00 00 00 00	 call	 ??1?$_Alloc_construct_ptr@V?$allocator@U?$_List_node@PEAVObjector@@PEAX@std@@@std@@@std@@QEAA@XZ ; std::_Alloc_construct_ptr<std::allocator<std::_List_node<Objector *,void *> > >::~_Alloc_construct_ptr<std::allocator<std::_List_node<Objector *,void *> > >
  00095	90		 npad	 1
  00096	48 8d a5 d8 00
	00 00		 lea	 rsp, QWORD PTR [rbp+216]
  0009d	5f		 pop	 rdi
  0009e	5d		 pop	 rbp
  0009f	c3		 ret	 0
??1?$_List_node_emplace_op2@V?$allocator@U?$_List_node@PEAVObjector@@PEAX@std@@@std@@@std@@QEAA@XZ ENDP ; std::_List_node_emplace_op2<std::allocator<std::_List_node<Objector *,void *> > >::~_List_node_emplace_op2<std::allocator<std::_List_node<Objector *,void *> > >
_TEXT	ENDS
; Function compile flags: /Odtp /RTCsu /ZI
; File C:\Program Files (x86)\Microsoft Visual Studio\2019\Enterprise\VC\Tools\MSVC\14.23.28105\include\xmemory
;	COMDAT ??1?$_Alloc_construct_ptr@V?$allocator@U?$_List_node@PEAVObjector@@PEAX@std@@@std@@@std@@QEAA@XZ
_TEXT	SEGMENT
tv72 = 192
this$ = 240
??1?$_Alloc_construct_ptr@V?$allocator@U?$_List_node@PEAVObjector@@PEAX@std@@@std@@@std@@QEAA@XZ PROC ; std::_Alloc_construct_ptr<std::allocator<std::_List_node<Objector *,void *> > >::~_Alloc_construct_ptr<std::allocator<std::_List_node<Objector *,void *> > >, COMDAT

; 1134 :     ~_Alloc_construct_ptr() { // if this instance is engaged, deallocate storage

$LN4:
  00000	48 89 4c 24 08	 mov	 QWORD PTR [rsp+8], rcx
  00005	55		 push	 rbp
  00006	57		 push	 rdi
  00007	48 81 ec f8 00
	00 00		 sub	 rsp, 248		; 000000f8H
  0000e	48 8d 6c 24 20	 lea	 rbp, QWORD PTR [rsp+32]
  00013	48 8b fc	 mov	 rdi, rsp
  00016	b9 3e 00 00 00	 mov	 ecx, 62			; 0000003eH
  0001b	b8 cc cc cc cc	 mov	 eax, -858993460		; ccccccccH
  00020	f3 ab		 rep stosd
  00022	48 8b 8c 24 18
	01 00 00	 mov	 rcx, QWORD PTR [rsp+280]
  0002a	48 8d 0d 00 00
	00 00		 lea	 rcx, OFFSET FLAT:__725EB186_xmemory
  00031	e8 00 00 00 00	 call	 __CheckForDebuggerJustMyCode
  00036	90		 npad	 1

; 1135 :         if (_Ptr) {

  00037	48 8b 85 f0 00
	00 00		 mov	 rax, QWORD PTR this$[rbp]
  0003e	48 83 78 08 00	 cmp	 QWORD PTR [rax+8], 0
  00043	74 2f		 je	 SHORT $LN2@Alloc_cons

; 1136 :             _Al.deallocate(_Ptr, 1);

  00045	48 8b 85 f0 00
	00 00		 mov	 rax, QWORD PTR this$[rbp]
  0004c	48 8b 00	 mov	 rax, QWORD PTR [rax]
  0004f	48 89 85 c0 00
	00 00		 mov	 QWORD PTR tv72[rbp], rax
  00056	41 b8 01 00 00
	00		 mov	 r8d, 1
  0005c	48 8b 85 f0 00
	00 00		 mov	 rax, QWORD PTR this$[rbp]
  00063	48 8b 50 08	 mov	 rdx, QWORD PTR [rax+8]
  00067	48 8b 8d c0 00
	00 00		 mov	 rcx, QWORD PTR tv72[rbp]
  0006e	e8 00 00 00 00	 call	 ?deallocate@?$allocator@U?$_List_node@PEAVObjector@@PEAX@std@@@std@@QEAAXQEAU?$_List_node@PEAVObjector@@PEAX@2@_K@Z ; std::allocator<std::_List_node<Objector *,void *> >::deallocate
  00073	90		 npad	 1
$LN2@Alloc_cons:

; 1137 :         }
; 1138 :     }

  00074	48 8d a5 d8 00
	00 00		 lea	 rsp, QWORD PTR [rbp+216]
  0007b	5f		 pop	 rdi
  0007c	5d		 pop	 rbp
  0007d	c3		 ret	 0
??1?$_Alloc_construct_ptr@V?$allocator@U?$_List_node@PEAVObjector@@PEAX@std@@@std@@@std@@QEAA@XZ ENDP ; std::_Alloc_construct_ptr<std::allocator<std::_List_node<Objector *,void *> > >::~_Alloc_construct_ptr<std::allocator<std::_List_node<Objector *,void *> > >
_TEXT	ENDS
; Function compile flags: /Odtp /RTCsu /ZI
; File C:\Program Files (x86)\Microsoft Visual Studio\2019\Enterprise\VC\Tools\MSVC\14.23.28105\include\xmemory
;	COMDAT ?_Allocate@?$_Alloc_construct_ptr@V?$allocator@U?$_List_node@PEAVObjector@@PEAX@std@@@std@@@std@@QEAAXXZ
_TEXT	SEGMENT
tv73 = 192
this$ = 240
?_Allocate@?$_Alloc_construct_ptr@V?$allocator@U?$_List_node@PEAVObjector@@PEAX@std@@@std@@@std@@QEAAXXZ PROC ; std::_Alloc_construct_ptr<std::allocator<std::_List_node<Objector *,void *> > >::_Allocate, COMDAT

; 1129 :     void _Allocate() { // disengage *this, then allocate a new memory block

$LN3:
  00000	48 89 4c 24 08	 mov	 QWORD PTR [rsp+8], rcx
  00005	55		 push	 rbp
  00006	57		 push	 rdi
  00007	48 81 ec f8 00
	00 00		 sub	 rsp, 248		; 000000f8H
  0000e	48 8d 6c 24 20	 lea	 rbp, QWORD PTR [rsp+32]
  00013	48 8b fc	 mov	 rdi, rsp
  00016	b9 3e 00 00 00	 mov	 ecx, 62			; 0000003eH
  0001b	b8 cc cc cc cc	 mov	 eax, -858993460		; ccccccccH
  00020	f3 ab		 rep stosd
  00022	48 8b 8c 24 18
	01 00 00	 mov	 rcx, QWORD PTR [rsp+280]
  0002a	48 8d 0d 00 00
	00 00		 lea	 rcx, OFFSET FLAT:__725EB186_xmemory
  00031	e8 00 00 00 00	 call	 __CheckForDebuggerJustMyCode

; 1130 :         _Ptr = nullptr; // if allocate throws, prevents double-free

  00036	48 8b 85 f0 00
	00 00		 mov	 rax, QWORD PTR this$[rbp]
  0003d	48 c7 40 08 00
	00 00 00	 mov	 QWORD PTR [rax+8], 0

; 1131 :         _Ptr = _Al.allocate(1);

  00045	48 8b 85 f0 00
	00 00		 mov	 rax, QWORD PTR this$[rbp]
  0004c	48 8b 00	 mov	 rax, QWORD PTR [rax]
  0004f	48 89 85 c0 00
	00 00		 mov	 QWORD PTR tv73[rbp], rax
  00056	ba 01 00 00 00	 mov	 edx, 1
  0005b	48 8b 8d c0 00
	00 00		 mov	 rcx, QWORD PTR tv73[rbp]
  00062	e8 00 00 00 00	 call	 ?allocate@?$allocator@U?$_List_node@PEAVObjector@@PEAX@std@@@std@@QEAAPEAU?$_List_node@PEAVObjector@@PEAX@2@_K@Z ; std::allocator<std::_List_node<Objector *,void *> >::allocate
  00067	48 8b 8d f0 00
	00 00		 mov	 rcx, QWORD PTR this$[rbp]
  0006e	48 89 41 08	 mov	 QWORD PTR [rcx+8], rax

; 1132 :     }

  00072	48 8d a5 d8 00
	00 00		 lea	 rsp, QWORD PTR [rbp+216]
  00079	5f		 pop	 rdi
  0007a	5d		 pop	 rbp
  0007b	c3		 ret	 0
?_Allocate@?$_Alloc_construct_ptr@V?$allocator@U?$_List_node@PEAVObjector@@PEAX@std@@@std@@@std@@QEAAXXZ ENDP ; std::_Alloc_construct_ptr<std::allocator<std::_List_node<Objector *,void *> > >::_Allocate
_TEXT	ENDS
; Function compile flags: /Odtp /RTCsu /ZI
; File C:\Program Files (x86)\Microsoft Visual Studio\2019\Enterprise\VC\Tools\MSVC\14.23.28105\include\xmemory
;	COMDAT ??0?$_Alloc_construct_ptr@V?$allocator@U?$_List_node@PEAVObjector@@PEAX@std@@@std@@@std@@QEAA@AEAV?$allocator@U?$_List_node@PEAVObjector@@PEAX@std@@@1@@Z
_TEXT	SEGMENT
this$ = 224
_Al_$ = 232
??0?$_Alloc_construct_ptr@V?$allocator@U?$_List_node@PEAVObjector@@PEAX@std@@@std@@@std@@QEAA@AEAV?$allocator@U?$_List_node@PEAVObjector@@PEAX@std@@@1@@Z PROC ; std::_Alloc_construct_ptr<std::allocator<std::_List_node<Objector *,void *> > >::_Alloc_construct_ptr<std::allocator<std::_List_node<Objector *,void *> > >, COMDAT

; 1123 :     explicit _Alloc_construct_ptr(_Alloc& _Al_) : _Al(_Al_), _Ptr(nullptr) {}

$LN3:
  00000	48 89 54 24 10	 mov	 QWORD PTR [rsp+16], rdx
  00005	48 89 4c 24 08	 mov	 QWORD PTR [rsp+8], rcx
  0000a	55		 push	 rbp
  0000b	57		 push	 rdi
  0000c	48 81 ec e8 00
	00 00		 sub	 rsp, 232		; 000000e8H
  00013	48 8d 6c 24 20	 lea	 rbp, QWORD PTR [rsp+32]
  00018	48 8b fc	 mov	 rdi, rsp
  0001b	b9 3a 00 00 00	 mov	 ecx, 58			; 0000003aH
  00020	b8 cc cc cc cc	 mov	 eax, -858993460		; ccccccccH
  00025	f3 ab		 rep stosd
  00027	48 8b 8c 24 08
	01 00 00	 mov	 rcx, QWORD PTR [rsp+264]
  0002f	48 8d 0d 00 00
	00 00		 lea	 rcx, OFFSET FLAT:__725EB186_xmemory
  00036	e8 00 00 00 00	 call	 __CheckForDebuggerJustMyCode
  0003b	48 8b 85 e0 00
	00 00		 mov	 rax, QWORD PTR this$[rbp]
  00042	48 8b 8d e8 00
	00 00		 mov	 rcx, QWORD PTR _Al_$[rbp]
  00049	48 89 08	 mov	 QWORD PTR [rax], rcx
  0004c	48 8b 85 e0 00
	00 00		 mov	 rax, QWORD PTR this$[rbp]
  00053	48 c7 40 08 00
	00 00 00	 mov	 QWORD PTR [rax+8], 0
  0005b	48 8b 85 e0 00
	00 00		 mov	 rax, QWORD PTR this$[rbp]
  00062	48 8d a5 c8 00
	00 00		 lea	 rsp, QWORD PTR [rbp+200]
  00069	5f		 pop	 rdi
  0006a	5d		 pop	 rbp
  0006b	c3		 ret	 0
??0?$_Alloc_construct_ptr@V?$allocator@U?$_List_node@PEAVObjector@@PEAX@std@@@std@@@std@@QEAA@AEAV?$allocator@U?$_List_node@PEAVObjector@@PEAX@std@@@1@@Z ENDP ; std::_Alloc_construct_ptr<std::allocator<std::_List_node<Objector *,void *> > >::_Alloc_construct_ptr<std::allocator<std::_List_node<Objector *,void *> > >
_TEXT	ENDS
; Function compile flags: /Odtp /RTCsu /ZI
; File C:\Program Files (x86)\Microsoft Visual Studio\2019\Enterprise\VC\Tools\MSVC\14.23.28105\include\ostream
;	COMDAT ??Bsentry@?$basic_ostream@DU?$char_traits@D@std@@@std@@QEBA_NXZ
_TEXT	SEGMENT
this$ = 224
??Bsentry@?$basic_ostream@DU?$char_traits@D@std@@@std@@QEBA_NXZ PROC ; std::basic_ostream<char,std::char_traits<char> >::sentry::operator bool, COMDAT

; 130  :         explicit __CLR_OR_THIS_CALL operator bool() const { // test if stream state okay

$LN3:
  00000	48 89 4c 24 08	 mov	 QWORD PTR [rsp+8], rcx
  00005	55		 push	 rbp
  00006	57		 push	 rdi
  00007	48 81 ec e8 00
	00 00		 sub	 rsp, 232		; 000000e8H
  0000e	48 8d 6c 24 20	 lea	 rbp, QWORD PTR [rsp+32]
  00013	48 8b fc	 mov	 rdi, rsp
  00016	b9 3a 00 00 00	 mov	 ecx, 58			; 0000003aH
  0001b	b8 cc cc cc cc	 mov	 eax, -858993460		; ccccccccH
  00020	f3 ab		 rep stosd
  00022	48 8b 8c 24 08
	01 00 00	 mov	 rcx, QWORD PTR [rsp+264]
  0002a	48 8d 0d 00 00
	00 00		 lea	 rcx, OFFSET FLAT:__CAA399EF_ostream
  00031	e8 00 00 00 00	 call	 __CheckForDebuggerJustMyCode

; 131  :             return _Ok;

  00036	48 8b 85 e0 00
	00 00		 mov	 rax, QWORD PTR this$[rbp]
  0003d	0f b6 40 08	 movzx	 eax, BYTE PTR [rax+8]

; 132  :         }

  00041	48 8d a5 c8 00
	00 00		 lea	 rsp, QWORD PTR [rbp+200]
  00048	5f		 pop	 rdi
  00049	5d		 pop	 rbp
  0004a	c3		 ret	 0
??Bsentry@?$basic_ostream@DU?$char_traits@D@std@@@std@@QEBA_NXZ ENDP ; std::basic_ostream<char,std::char_traits<char> >::sentry::operator bool
_TEXT	ENDS
; Function compile flags: /Odtp /RTCsu /ZI
; File C:\Program Files (x86)\Microsoft Visual Studio\2019\Enterprise\VC\Tools\MSVC\14.23.28105\include\ostream
;	COMDAT ??1sentry@?$basic_ostream@DU?$char_traits@D@std@@@std@@QEAA@XZ
_TEXT	SEGMENT
this$ = 224
??1sentry@?$basic_ostream@DU?$char_traits@D@std@@@std@@QEAA@XZ PROC ; std::basic_ostream<char,std::char_traits<char> >::sentry::~sentry, COMDAT

; 115  :         __CLR_OR_THIS_CALL ~sentry() noexcept {

$LN4:
  00000	48 89 4c 24 08	 mov	 QWORD PTR [rsp+8], rcx
  00005	55		 push	 rbp
  00006	57		 push	 rdi
  00007	48 81 ec e8 00
	00 00		 sub	 rsp, 232		; 000000e8H
  0000e	48 8d 6c 24 20	 lea	 rbp, QWORD PTR [rsp+32]
  00013	48 8b fc	 mov	 rdi, rsp
  00016	b9 3a 00 00 00	 mov	 ecx, 58			; 0000003aH
  0001b	b8 cc cc cc cc	 mov	 eax, -858993460		; ccccccccH
  00020	f3 ab		 rep stosd
  00022	48 8b 8c 24 08
	01 00 00	 mov	 rcx, QWORD PTR [rsp+264]
  0002a	48 8d 0d 00 00
	00 00		 lea	 rcx, OFFSET FLAT:__CAA399EF_ostream
  00031	e8 00 00 00 00	 call	 __CheckForDebuggerJustMyCode
  00036	90		 npad	 1

; 116  : #if _HAS_EXCEPTIONS
; 117  :             if (!_STD uncaught_exception()) { // TRANSITION, OS#15518458

  00037	e8 00 00 00 00	 call	 ?uncaught_exception@std@@YA_NXZ ; std::uncaught_exception
  0003c	90		 npad	 1
  0003d	0f b6 c0	 movzx	 eax, al
  00040	85 c0		 test	 eax, eax
  00042	75 11		 jne	 SHORT $LN2@sentry

; 118  :                 this->_Myostr._Osfx();

  00044	48 8b 85 e0 00
	00 00		 mov	 rax, QWORD PTR this$[rbp]
  0004b	48 8b 08	 mov	 rcx, QWORD PTR [rax]
  0004e	ff 15 00 00 00
	00		 call	 QWORD PTR __imp_?_Osfx@?$basic_ostream@DU?$char_traits@D@std@@@std@@QEAAXXZ
  00054	90		 npad	 1
$LN2@sentry:

; 119  :             }
; 120  : #else // _HAS_EXCEPTIONS
; 121  :             this->_Myostr._Osfx();
; 122  : #endif // _HAS_EXCEPTIONS
; 123  :         }

  00055	48 8b 8d e0 00
	00 00		 mov	 rcx, QWORD PTR this$[rbp]
  0005c	e8 00 00 00 00	 call	 ??1_Sentry_base@?$basic_ostream@DU?$char_traits@D@std@@@std@@QEAA@XZ ; std::basic_ostream<char,std::char_traits<char> >::_Sentry_base::~_Sentry_base
  00061	90		 npad	 1
  00062	48 8d a5 c8 00
	00 00		 lea	 rsp, QWORD PTR [rbp+200]
  00069	5f		 pop	 rdi
  0006a	5d		 pop	 rbp
  0006b	c3		 ret	 0
??1sentry@?$basic_ostream@DU?$char_traits@D@std@@@std@@QEAA@XZ ENDP ; std::basic_ostream<char,std::char_traits<char> >::sentry::~sentry
_TEXT	ENDS
; Function compile flags: /Odtp /RTCsu /ZI
; File C:\Program Files (x86)\Microsoft Visual Studio\2019\Enterprise\VC\Tools\MSVC\14.23.28105\include\ostream
;	COMDAT ??0sentry@?$basic_ostream@DU?$char_traits@D@std@@@std@@QEAA@AEAV12@@Z
_TEXT	SEGMENT
_Tied$ = 8
this$ = 256
_Ostr$ = 264
??0sentry@?$basic_ostream@DU?$char_traits@D@std@@@std@@QEAA@AEAV12@@Z PROC ; std::basic_ostream<char,std::char_traits<char> >::sentry::sentry, COMDAT

; 90   :         explicit __CLR_OR_THIS_CALL sentry(basic_ostream& _Ostr)

$LN7:
  00000	48 89 54 24 10	 mov	 QWORD PTR [rsp+16], rdx
  00005	48 89 4c 24 08	 mov	 QWORD PTR [rsp+8], rcx
  0000a	55		 push	 rbp
  0000b	57		 push	 rdi
  0000c	48 81 ec 08 01
	00 00		 sub	 rsp, 264		; 00000108H
  00013	48 8d 6c 24 20	 lea	 rbp, QWORD PTR [rsp+32]
  00018	48 8b fc	 mov	 rdi, rsp
  0001b	b9 42 00 00 00	 mov	 ecx, 66			; 00000042H
  00020	b8 cc cc cc cc	 mov	 eax, -858993460		; ccccccccH
  00025	f3 ab		 rep stosd
  00027	48 8b 8c 24 28
	01 00 00	 mov	 rcx, QWORD PTR [rsp+296]
  0002f	48 8d 0d 00 00
	00 00		 lea	 rcx, OFFSET FLAT:__CAA399EF_ostream
  00036	e8 00 00 00 00	 call	 __CheckForDebuggerJustMyCode

; 91   :             : _Sentry_base(_Ostr) { // construct locking and testing stream

  0003b	48 8b 95 08 01
	00 00		 mov	 rdx, QWORD PTR _Ostr$[rbp]
  00042	48 8b 8d 00 01
	00 00		 mov	 rcx, QWORD PTR this$[rbp]
  00049	e8 00 00 00 00	 call	 ??0_Sentry_base@?$basic_ostream@DU?$char_traits@D@std@@@std@@QEAA@AEAV12@@Z ; std::basic_ostream<char,std::char_traits<char> >::_Sentry_base::_Sentry_base
  0004e	90		 npad	 1

; 92   :             if (!_Ostr.good()) {

  0004f	48 8b 85 08 01
	00 00		 mov	 rax, QWORD PTR _Ostr$[rbp]
  00056	48 8b 00	 mov	 rax, QWORD PTR [rax]
  00059	48 63 40 04	 movsxd	 rax, DWORD PTR [rax+4]
  0005d	48 8b 8d 08 01
	00 00		 mov	 rcx, QWORD PTR _Ostr$[rbp]
  00064	48 03 c8	 add	 rcx, rax
  00067	48 8b c1	 mov	 rax, rcx
  0006a	48 8b c8	 mov	 rcx, rax
  0006d	ff 15 00 00 00
	00		 call	 QWORD PTR __imp_?good@ios_base@std@@QEBA_NXZ
  00073	0f b6 c0	 movzx	 eax, al
  00076	85 c0		 test	 eax, eax
  00078	75 10		 jne	 SHORT $LN2@sentry

; 93   :                 _Ok = false;

  0007a	48 8b 85 00 01
	00 00		 mov	 rax, QWORD PTR this$[rbp]
  00081	c6 40 08 00	 mov	 BYTE PTR [rax+8], 0

; 94   :                 return;

  00085	e9 81 00 00 00	 jmp	 $LN1@sentry
$LN2@sentry:

; 95   :             }
; 96   : 
; 97   :             const auto _Tied = _Ostr.tie();

  0008a	48 8b 85 08 01
	00 00		 mov	 rax, QWORD PTR _Ostr$[rbp]
  00091	48 8b 00	 mov	 rax, QWORD PTR [rax]
  00094	48 63 40 04	 movsxd	 rax, DWORD PTR [rax+4]
  00098	48 8b 8d 08 01
	00 00		 mov	 rcx, QWORD PTR _Ostr$[rbp]
  0009f	48 03 c8	 add	 rcx, rax
  000a2	48 8b c1	 mov	 rax, rcx
  000a5	48 8b c8	 mov	 rcx, rax
  000a8	ff 15 00 00 00
	00		 call	 QWORD PTR __imp_?tie@?$basic_ios@DU?$char_traits@D@std@@@std@@QEBAPEAV?$basic_ostream@DU?$char_traits@D@std@@@2@XZ
  000ae	48 89 45 08	 mov	 QWORD PTR _Tied$[rbp], rax

; 98   :             if (!_Tied || _Tied == &_Ostr) {

  000b2	48 83 7d 08 00	 cmp	 QWORD PTR _Tied$[rbp], 0
  000b7	74 0d		 je	 SHORT $LN4@sentry
  000b9	48 8b 85 08 01
	00 00		 mov	 rax, QWORD PTR _Ostr$[rbp]
  000c0	48 39 45 08	 cmp	 QWORD PTR _Tied$[rbp], rax
  000c4	75 0d		 jne	 SHORT $LN3@sentry
$LN4@sentry:

; 99   :                 _Ok = true;

  000c6	48 8b 85 00 01
	00 00		 mov	 rax, QWORD PTR this$[rbp]
  000cd	c6 40 08 01	 mov	 BYTE PTR [rax+8], 1

; 100  :                 return;

  000d1	eb 38		 jmp	 SHORT $LN1@sentry
$LN3@sentry:

; 101  :             }
; 102  : 
; 103  : 
; 104  :             _Tied->flush();

  000d3	48 8b 4d 08	 mov	 rcx, QWORD PTR _Tied$[rbp]
  000d7	ff 15 00 00 00
	00		 call	 QWORD PTR __imp_?flush@?$basic_ostream@DU?$char_traits@D@std@@@std@@QEAAAEAV12@XZ

; 105  :             _Ok = _Ostr.good(); // store test only after flushing tie

  000dd	48 8b 85 08 01
	00 00		 mov	 rax, QWORD PTR _Ostr$[rbp]
  000e4	48 8b 00	 mov	 rax, QWORD PTR [rax]
  000e7	48 63 40 04	 movsxd	 rax, DWORD PTR [rax+4]
  000eb	48 8b 8d 08 01
	00 00		 mov	 rcx, QWORD PTR _Ostr$[rbp]
  000f2	48 03 c8	 add	 rcx, rax
  000f5	48 8b c1	 mov	 rax, rcx
  000f8	48 8b c8	 mov	 rcx, rax
  000fb	ff 15 00 00 00
	00		 call	 QWORD PTR __imp_?good@ios_base@std@@QEBA_NXZ
  00101	48 8b 8d 00 01
	00 00		 mov	 rcx, QWORD PTR this$[rbp]
  00108	88 41 08	 mov	 BYTE PTR [rcx+8], al
$LN1@sentry:

; 106  :         }

  0010b	48 8b 85 00 01
	00 00		 mov	 rax, QWORD PTR this$[rbp]
  00112	48 8d a5 e8 00
	00 00		 lea	 rsp, QWORD PTR [rbp+232]
  00119	5f		 pop	 rdi
  0011a	5d		 pop	 rbp
  0011b	c3		 ret	 0
??0sentry@?$basic_ostream@DU?$char_traits@D@std@@@std@@QEAA@AEAV12@@Z ENDP ; std::basic_ostream<char,std::char_traits<char> >::sentry::sentry
_TEXT	ENDS
;	COMDAT text$x
text$x	SEGMENT
_Tied$ = 8
this$ = 256
_Ostr$ = 264
?dtor$0@?0???0sentry@?$basic_ostream@DU?$char_traits@D@std@@@std@@QEAA@AEAV12@@Z@4HA PROC ; `std::basic_ostream<char,std::char_traits<char> >::sentry::sentry'::`1'::dtor$0
  00000	48 89 4c 24 08	 mov	 QWORD PTR [rsp+8], rcx
  00005	48 89 54 24 10	 mov	 QWORD PTR [rsp+16], rdx
  0000a	55		 push	 rbp
  0000b	57		 push	 rdi
  0000c	48 83 ec 28	 sub	 rsp, 40			; 00000028H
  00010	48 8d 6a 20	 lea	 rbp, QWORD PTR [rdx+32]
  00014	48 8b 8d 00 01
	00 00		 mov	 rcx, QWORD PTR this$[rbp]
  0001b	e8 00 00 00 00	 call	 ??1_Sentry_base@?$basic_ostream@DU?$char_traits@D@std@@@std@@QEAA@XZ ; std::basic_ostream<char,std::char_traits<char> >::_Sentry_base::~_Sentry_base
  00020	48 83 c4 28	 add	 rsp, 40			; 00000028H
  00024	5f		 pop	 rdi
  00025	5d		 pop	 rbp
  00026	c3		 ret	 0
?dtor$0@?0???0sentry@?$basic_ostream@DU?$char_traits@D@std@@@std@@QEAA@AEAV12@@Z@4HA ENDP ; `std::basic_ostream<char,std::char_traits<char> >::sentry::sentry'::`1'::dtor$0
text$x	ENDS
; Function compile flags: /Odtp /RTCsu /ZI
;	COMDAT text$x
text$x	SEGMENT
_Tied$ = 8
this$ = 256
_Ostr$ = 264
?dtor$0@?0???0sentry@?$basic_ostream@DU?$char_traits@D@std@@@std@@QEAA@AEAV12@@Z@4HA PROC ; `std::basic_ostream<char,std::char_traits<char> >::sentry::sentry'::`1'::dtor$0
  00000	48 89 4c 24 08	 mov	 QWORD PTR [rsp+8], rcx
  00005	48 89 54 24 10	 mov	 QWORD PTR [rsp+16], rdx
  0000a	55		 push	 rbp
  0000b	57		 push	 rdi
  0000c	48 83 ec 28	 sub	 rsp, 40			; 00000028H
  00010	48 8d 6a 20	 lea	 rbp, QWORD PTR [rdx+32]
  00014	48 8b 8d 00 01
	00 00		 mov	 rcx, QWORD PTR this$[rbp]
  0001b	e8 00 00 00 00	 call	 ??1_Sentry_base@?$basic_ostream@DU?$char_traits@D@std@@@std@@QEAA@XZ ; std::basic_ostream<char,std::char_traits<char> >::_Sentry_base::~_Sentry_base
  00020	48 83 c4 28	 add	 rsp, 40			; 00000028H
  00024	5f		 pop	 rdi
  00025	5d		 pop	 rbp
  00026	c3		 ret	 0
?dtor$0@?0???0sentry@?$basic_ostream@DU?$char_traits@D@std@@@std@@QEAA@AEAV12@@Z@4HA ENDP ; `std::basic_ostream<char,std::char_traits<char> >::sentry::sentry'::`1'::dtor$0
text$x	ENDS
; Function compile flags: /Odtp /RTCsu /ZI
; File C:\Program Files (x86)\Microsoft Visual Studio\2019\Enterprise\VC\Tools\MSVC\14.23.28105\include\ostream
;	COMDAT ??1_Sentry_base@?$basic_ostream@DU?$char_traits@D@std@@@std@@QEAA@XZ
_TEXT	SEGMENT
_Rdbuf$ = 8
tv72 = 216
this$ = 256
??1_Sentry_base@?$basic_ostream@DU?$char_traits@D@std@@@std@@QEAA@XZ PROC ; std::basic_ostream<char,std::char_traits<char> >::_Sentry_base::~_Sentry_base, COMDAT

; 76   :         __CLR_OR_THIS_CALL ~_Sentry_base() noexcept { // destroy after unlocking

$LN4:
  00000	48 89 4c 24 08	 mov	 QWORD PTR [rsp+8], rcx
  00005	55		 push	 rbp
  00006	57		 push	 rdi
  00007	48 81 ec 08 01
	00 00		 sub	 rsp, 264		; 00000108H
  0000e	48 8d 6c 24 20	 lea	 rbp, QWORD PTR [rsp+32]
  00013	48 8b fc	 mov	 rdi, rsp
  00016	b9 42 00 00 00	 mov	 ecx, 66			; 00000042H
  0001b	b8 cc cc cc cc	 mov	 eax, -858993460		; ccccccccH
  00020	f3 ab		 rep stosd
  00022	48 8b 8c 24 28
	01 00 00	 mov	 rcx, QWORD PTR [rsp+296]
  0002a	48 8d 0d 00 00
	00 00		 lea	 rcx, OFFSET FLAT:__CAA399EF_ostream
  00031	e8 00 00 00 00	 call	 __CheckForDebuggerJustMyCode
  00036	90		 npad	 1

; 77   :             const auto _Rdbuf = _Myostr.rdbuf();

  00037	48 8b 85 00 01
	00 00		 mov	 rax, QWORD PTR this$[rbp]
  0003e	48 8b 00	 mov	 rax, QWORD PTR [rax]
  00041	48 89 85 d8 00
	00 00		 mov	 QWORD PTR tv72[rbp], rax
  00048	48 8b 85 d8 00
	00 00		 mov	 rax, QWORD PTR tv72[rbp]
  0004f	48 8b 00	 mov	 rax, QWORD PTR [rax]
  00052	48 63 40 04	 movsxd	 rax, DWORD PTR [rax+4]
  00056	48 8b 8d d8 00
	00 00		 mov	 rcx, QWORD PTR tv72[rbp]
  0005d	48 03 c8	 add	 rcx, rax
  00060	48 8b c1	 mov	 rax, rcx
  00063	48 8b c8	 mov	 rcx, rax
  00066	ff 15 00 00 00
	00		 call	 QWORD PTR __imp_?rdbuf@?$basic_ios@DU?$char_traits@D@std@@@std@@QEBAPEAV?$basic_streambuf@DU?$char_traits@D@std@@@2@XZ
  0006c	90		 npad	 1
  0006d	48 89 45 08	 mov	 QWORD PTR _Rdbuf$[rbp], rax

; 78   :             if (_Rdbuf) {

  00071	48 83 7d 08 00	 cmp	 QWORD PTR _Rdbuf$[rbp], 0
  00076	74 0f		 je	 SHORT $LN2@Sentry_bas

; 79   :                 _Rdbuf->_Unlock();

  00078	48 8b 45 08	 mov	 rax, QWORD PTR _Rdbuf$[rbp]
  0007c	48 8b 00	 mov	 rax, QWORD PTR [rax]
  0007f	48 8b 4d 08	 mov	 rcx, QWORD PTR _Rdbuf$[rbp]
  00083	ff 50 10	 call	 QWORD PTR [rax+16]
  00086	90		 npad	 1
$LN2@Sentry_bas:

; 80   :             }
; 81   :         }

  00087	48 8d a5 e8 00
	00 00		 lea	 rsp, QWORD PTR [rbp+232]
  0008e	5f		 pop	 rdi
  0008f	5d		 pop	 rbp
  00090	c3		 ret	 0
??1_Sentry_base@?$basic_ostream@DU?$char_traits@D@std@@@std@@QEAA@XZ ENDP ; std::basic_ostream<char,std::char_traits<char> >::_Sentry_base::~_Sentry_base
_TEXT	ENDS
; Function compile flags: /Odtp /RTCsu /ZI
; File C:\Program Files (x86)\Microsoft Visual Studio\2019\Enterprise\VC\Tools\MSVC\14.23.28105\include\ostream
;	COMDAT ??0_Sentry_base@?$basic_ostream@DU?$char_traits@D@std@@@std@@QEAA@AEAV12@@Z
_TEXT	SEGMENT
_Rdbuf$ = 8
tv73 = 216
this$ = 256
_Ostr$ = 264
??0_Sentry_base@?$basic_ostream@DU?$char_traits@D@std@@@std@@QEAA@AEAV12@@Z PROC ; std::basic_ostream<char,std::char_traits<char> >::_Sentry_base::_Sentry_base, COMDAT

; 69   :         __CLR_OR_THIS_CALL _Sentry_base(basic_ostream& _Ostr) : _Myostr(_Ostr) { // lock the stream buffer, if there

$LN4:
  00000	48 89 54 24 10	 mov	 QWORD PTR [rsp+16], rdx
  00005	48 89 4c 24 08	 mov	 QWORD PTR [rsp+8], rcx
  0000a	55		 push	 rbp
  0000b	57		 push	 rdi
  0000c	48 81 ec 08 01
	00 00		 sub	 rsp, 264		; 00000108H
  00013	48 8d 6c 24 20	 lea	 rbp, QWORD PTR [rsp+32]
  00018	48 8b fc	 mov	 rdi, rsp
  0001b	b9 42 00 00 00	 mov	 ecx, 66			; 00000042H
  00020	b8 cc cc cc cc	 mov	 eax, -858993460		; ccccccccH
  00025	f3 ab		 rep stosd
  00027	48 8b 8c 24 28
	01 00 00	 mov	 rcx, QWORD PTR [rsp+296]
  0002f	48 8d 0d 00 00
	00 00		 lea	 rcx, OFFSET FLAT:__CAA399EF_ostream
  00036	e8 00 00 00 00	 call	 __CheckForDebuggerJustMyCode
  0003b	48 8b 85 00 01
	00 00		 mov	 rax, QWORD PTR this$[rbp]
  00042	48 8b 8d 08 01
	00 00		 mov	 rcx, QWORD PTR _Ostr$[rbp]
  00049	48 89 08	 mov	 QWORD PTR [rax], rcx

; 70   :             const auto _Rdbuf = _Myostr.rdbuf();

  0004c	48 8b 85 00 01
	00 00		 mov	 rax, QWORD PTR this$[rbp]
  00053	48 8b 00	 mov	 rax, QWORD PTR [rax]
  00056	48 89 85 d8 00
	00 00		 mov	 QWORD PTR tv73[rbp], rax
  0005d	48 8b 85 d8 00
	00 00		 mov	 rax, QWORD PTR tv73[rbp]
  00064	48 8b 00	 mov	 rax, QWORD PTR [rax]
  00067	48 63 40 04	 movsxd	 rax, DWORD PTR [rax+4]
  0006b	48 8b 8d d8 00
	00 00		 mov	 rcx, QWORD PTR tv73[rbp]
  00072	48 03 c8	 add	 rcx, rax
  00075	48 8b c1	 mov	 rax, rcx
  00078	48 8b c8	 mov	 rcx, rax
  0007b	ff 15 00 00 00
	00		 call	 QWORD PTR __imp_?rdbuf@?$basic_ios@DU?$char_traits@D@std@@@std@@QEBAPEAV?$basic_streambuf@DU?$char_traits@D@std@@@2@XZ
  00081	48 89 45 08	 mov	 QWORD PTR _Rdbuf$[rbp], rax

; 71   :             if (_Rdbuf) {

  00085	48 83 7d 08 00	 cmp	 QWORD PTR _Rdbuf$[rbp], 0
  0008a	74 0e		 je	 SHORT $LN2@Sentry_bas

; 72   :                 _Rdbuf->_Lock();

  0008c	48 8b 45 08	 mov	 rax, QWORD PTR _Rdbuf$[rbp]
  00090	48 8b 00	 mov	 rax, QWORD PTR [rax]
  00093	48 8b 4d 08	 mov	 rcx, QWORD PTR _Rdbuf$[rbp]
  00097	ff 50 08	 call	 QWORD PTR [rax+8]
$LN2@Sentry_bas:

; 73   :             }
; 74   :         }

  0009a	48 8b 85 00 01
	00 00		 mov	 rax, QWORD PTR this$[rbp]
  000a1	48 8d a5 e8 00
	00 00		 lea	 rsp, QWORD PTR [rbp+232]
  000a8	5f		 pop	 rdi
  000a9	5d		 pop	 rbp
  000aa	c3		 ret	 0
??0_Sentry_base@?$basic_ostream@DU?$char_traits@D@std@@@std@@QEAA@AEAV12@@Z ENDP ; std::basic_ostream<char,std::char_traits<char> >::_Sentry_base::_Sentry_base
_TEXT	ENDS
; Function compile flags: /Odtp /RTCsu /ZI
; File C:\Program Files (x86)\Microsoft Visual Studio\2019\Enterprise\VC\Tools\MSVC\14.23.28105\include\type_traits
;	COMDAT ??$forward@PEAU_Container_base12@std@@@std@@YA$$QEAPEAU_Container_base12@0@AEAPEAU10@@Z
_TEXT	SEGMENT
_Arg$ = 224
??$forward@PEAU_Container_base12@std@@@std@@YA$$QEAPEAU_Container_base12@0@AEAPEAU10@@Z PROC ; std::forward<std::_Container_base12 *>, COMDAT

; 1420 :     remove_reference_t<_Ty>& _Arg) noexcept { // forward an lvalue as either an lvalue or an rvalue

$LN3:
  00000	48 89 4c 24 08	 mov	 QWORD PTR [rsp+8], rcx
  00005	55		 push	 rbp
  00006	57		 push	 rdi
  00007	48 81 ec e8 00
	00 00		 sub	 rsp, 232		; 000000e8H
  0000e	48 8d 6c 24 20	 lea	 rbp, QWORD PTR [rsp+32]
  00013	48 8b fc	 mov	 rdi, rsp
  00016	b9 3a 00 00 00	 mov	 ecx, 58			; 0000003aH
  0001b	b8 cc cc cc cc	 mov	 eax, -858993460		; ccccccccH
  00020	f3 ab		 rep stosd
  00022	48 8b 8c 24 08
	01 00 00	 mov	 rcx, QWORD PTR [rsp+264]
  0002a	48 8d 0d 00 00
	00 00		 lea	 rcx, OFFSET FLAT:__C8593937_type_traits
  00031	e8 00 00 00 00	 call	 __CheckForDebuggerJustMyCode
  00036	90		 npad	 1

; 1421 :     return static_cast<_Ty&&>(_Arg);

  00037	48 8b 85 e0 00
	00 00		 mov	 rax, QWORD PTR _Arg$[rbp]

; 1422 : }

  0003e	48 8d a5 c8 00
	00 00		 lea	 rsp, QWORD PTR [rbp+200]
  00045	5f		 pop	 rdi
  00046	5d		 pop	 rbp
  00047	c3		 ret	 0
??$forward@PEAU_Container_base12@std@@@std@@YA$$QEAPEAU_Container_base12@0@AEAPEAU10@@Z ENDP ; std::forward<std::_Container_base12 *>
_TEXT	ENDS
; Function compile flags: /Odtp /RTCsu /ZI
; File C:\Program Files (x86)\Microsoft Visual Studio\2019\Enterprise\VC\Tools\MSVC\14.23.28105\include\xstddef
;	COMDAT ??$addressof@U_Container_proxy@std@@@std@@YAPEAU_Container_proxy@0@AEAU10@@Z
_TEXT	SEGMENT
_Val$ = 224
??$addressof@U_Container_proxy@std@@@std@@YAPEAU_Container_proxy@0@AEAU10@@Z PROC ; std::addressof<std::_Container_proxy>, COMDAT

; 279  : _NODISCARD constexpr _Ty* addressof(_Ty& _Val) noexcept { // return address of _Val

$LN3:
  00000	48 89 4c 24 08	 mov	 QWORD PTR [rsp+8], rcx
  00005	55		 push	 rbp
  00006	57		 push	 rdi
  00007	48 81 ec e8 00
	00 00		 sub	 rsp, 232		; 000000e8H
  0000e	48 8d 6c 24 20	 lea	 rbp, QWORD PTR [rsp+32]
  00013	48 8b fc	 mov	 rdi, rsp
  00016	b9 3a 00 00 00	 mov	 ecx, 58			; 0000003aH
  0001b	b8 cc cc cc cc	 mov	 eax, -858993460		; ccccccccH
  00020	f3 ab		 rep stosd
  00022	48 8b 8c 24 08
	01 00 00	 mov	 rcx, QWORD PTR [rsp+264]
  0002a	48 8d 0d 00 00
	00 00		 lea	 rcx, OFFSET FLAT:__EFD44557_xstddef
  00031	e8 00 00 00 00	 call	 __CheckForDebuggerJustMyCode
  00036	90		 npad	 1

; 280  :     return __builtin_addressof(_Val);

  00037	48 8b 85 e0 00
	00 00		 mov	 rax, QWORD PTR _Val$[rbp]

; 281  : }

  0003e	48 8d a5 c8 00
	00 00		 lea	 rsp, QWORD PTR [rbp+200]
  00045	5f		 pop	 rdi
  00046	5d		 pop	 rbp
  00047	c3		 ret	 0
??$addressof@U_Container_proxy@std@@@std@@YAPEAU_Container_proxy@0@AEAU10@@Z ENDP ; std::addressof<std::_Container_proxy>
_TEXT	ENDS
; Function compile flags: /Odtp /RTCsu /ZI
; File C:\Program Files (x86)\Microsoft Visual Studio\2019\Enterprise\VC\Tools\MSVC\14.23.28105\include\xmemory
;	COMDAT ??$_Get_size_of_n@$0BI@@std@@YA_K_K@Z
_TEXT	SEGMENT
_Overflow_is_possible$ = 4
_Max_possible$1 = 40
_Count$ = 288
??$_Get_size_of_n@$0BI@@std@@YA_K_K@Z PROC		; std::_Get_size_of_n<24>, COMDAT

; 24   : _NODISCARD constexpr size_t _Get_size_of_n(const size_t _Count) {

$LN4:
  00000	48 89 4c 24 08	 mov	 QWORD PTR [rsp+8], rcx
  00005	55		 push	 rbp
  00006	57		 push	 rdi
  00007	48 81 ec 28 01
	00 00		 sub	 rsp, 296		; 00000128H
  0000e	48 8d 6c 24 20	 lea	 rbp, QWORD PTR [rsp+32]
  00013	48 8b fc	 mov	 rdi, rsp
  00016	b9 4a 00 00 00	 mov	 ecx, 74			; 0000004aH
  0001b	b8 cc cc cc cc	 mov	 eax, -858993460		; ccccccccH
  00020	f3 ab		 rep stosd
  00022	48 8b 8c 24 48
	01 00 00	 mov	 rcx, QWORD PTR [rsp+328]
  0002a	48 8d 0d 00 00
	00 00		 lea	 rcx, OFFSET FLAT:__725EB186_xmemory
  00031	e8 00 00 00 00	 call	 __CheckForDebuggerJustMyCode

; 25   :     constexpr bool _Overflow_is_possible = _Ty_size > 1;

  00036	c6 45 04 01	 mov	 BYTE PTR _Overflow_is_possible$[rbp], 1

; 26   : 
; 27   :     if
; 28   :         _CONSTEXPR_IF(_Overflow_is_possible) {
; 29   :             constexpr size_t _Max_possible = static_cast<size_t>(-1) / _Ty_size;

  0003a	48 b8 aa aa aa
	aa aa aa aa 0a	 mov	 rax, 768614336404564650	; 0aaaaaaaaaaaaaaaH
  00044	48 89 45 28	 mov	 QWORD PTR _Max_possible$1[rbp], rax

; 30   :             if (_Count > _Max_possible) {

  00048	48 b8 aa aa aa
	aa aa aa aa 0a	 mov	 rax, 768614336404564650	; 0aaaaaaaaaaaaaaaH
  00052	48 39 85 20 01
	00 00		 cmp	 QWORD PTR _Count$[rbp], rax
  00059	76 05		 jbe	 SHORT $LN2@Get_size_o

; 31   :                 _Throw_bad_array_new_length(); // multiply overflow

  0005b	e8 00 00 00 00	 call	 ?_Throw_bad_array_new_length@std@@YAXXZ ; std::_Throw_bad_array_new_length
$LN2@Get_size_o:

; 32   :             }
; 33   :         }
; 34   : 
; 35   :     return _Count * _Ty_size;

  00060	48 6b 85 20 01
	00 00 18	 imul	 rax, QWORD PTR _Count$[rbp], 24
$LN3@Get_size_o:

; 36   : }

  00068	48 8d a5 08 01
	00 00		 lea	 rsp, QWORD PTR [rbp+264]
  0006f	5f		 pop	 rdi
  00070	5d		 pop	 rbp
  00071	c3		 ret	 0
??$_Get_size_of_n@$0BI@@std@@YA_K_K@Z ENDP		; std::_Get_size_of_n<24>
_TEXT	ENDS
; Function compile flags: /Odtp /RTCsu /ZI
; File C:\Program Files (x86)\Microsoft Visual Studio\2019\Enterprise\VC\Tools\MSVC\14.23.28105\include\xmemory
;	COMDAT ??$_Get_size_of_n@$0BA@@std@@YA_K_K@Z
_TEXT	SEGMENT
_Overflow_is_possible$ = 4
_Max_possible$1 = 40
_Count$ = 288
??$_Get_size_of_n@$0BA@@std@@YA_K_K@Z PROC		; std::_Get_size_of_n<16>, COMDAT

; 24   : _NODISCARD constexpr size_t _Get_size_of_n(const size_t _Count) {

$LN4:
  00000	48 89 4c 24 08	 mov	 QWORD PTR [rsp+8], rcx
  00005	55		 push	 rbp
  00006	57		 push	 rdi
  00007	48 81 ec 28 01
	00 00		 sub	 rsp, 296		; 00000128H
  0000e	48 8d 6c 24 20	 lea	 rbp, QWORD PTR [rsp+32]
  00013	48 8b fc	 mov	 rdi, rsp
  00016	b9 4a 00 00 00	 mov	 ecx, 74			; 0000004aH
  0001b	b8 cc cc cc cc	 mov	 eax, -858993460		; ccccccccH
  00020	f3 ab		 rep stosd
  00022	48 8b 8c 24 48
	01 00 00	 mov	 rcx, QWORD PTR [rsp+328]
  0002a	48 8d 0d 00 00
	00 00		 lea	 rcx, OFFSET FLAT:__725EB186_xmemory
  00031	e8 00 00 00 00	 call	 __CheckForDebuggerJustMyCode

; 25   :     constexpr bool _Overflow_is_possible = _Ty_size > 1;

  00036	c6 45 04 01	 mov	 BYTE PTR _Overflow_is_possible$[rbp], 1

; 26   : 
; 27   :     if
; 28   :         _CONSTEXPR_IF(_Overflow_is_possible) {
; 29   :             constexpr size_t _Max_possible = static_cast<size_t>(-1) / _Ty_size;

  0003a	48 b8 ff ff ff
	ff ff ff ff 0f	 mov	 rax, 1152921504606846975 ; 0fffffffffffffffH
  00044	48 89 45 28	 mov	 QWORD PTR _Max_possible$1[rbp], rax

; 30   :             if (_Count > _Max_possible) {

  00048	48 b8 ff ff ff
	ff ff ff ff 0f	 mov	 rax, 1152921504606846975 ; 0fffffffffffffffH
  00052	48 39 85 20 01
	00 00		 cmp	 QWORD PTR _Count$[rbp], rax
  00059	76 05		 jbe	 SHORT $LN2@Get_size_o

; 31   :                 _Throw_bad_array_new_length(); // multiply overflow

  0005b	e8 00 00 00 00	 call	 ?_Throw_bad_array_new_length@std@@YAXXZ ; std::_Throw_bad_array_new_length
$LN2@Get_size_o:

; 32   :             }
; 33   :         }
; 34   : 
; 35   :     return _Count * _Ty_size;

  00060	48 6b 85 20 01
	00 00 10	 imul	 rax, QWORD PTR _Count$[rbp], 16
$LN3@Get_size_o:

; 36   : }

  00068	48 8d a5 08 01
	00 00		 lea	 rsp, QWORD PTR [rbp+264]
  0006f	5f		 pop	 rdi
  00070	5d		 pop	 rbp
  00071	c3		 ret	 0
??$_Get_size_of_n@$0BA@@std@@YA_K_K@Z ENDP		; std::_Get_size_of_n<16>
_TEXT	ENDS
; Function compile flags: /Odtp /RTCsu /ZI
; File C:\Program Files (x86)\Microsoft Visual Studio\2019\Enterprise\VC\Tools\MSVC\14.23.28105\include\xmemory
;	COMDAT ??$_Allocate@$0BA@U_Default_allocate_traits@std@@$0A@@std@@YAPEAX_K@Z
_TEXT	SEGMENT
_Bytes$ = 224
??$_Allocate@$0BA@U_Default_allocate_traits@std@@$0A@@std@@YAPEAX_K@Z PROC ; std::_Allocate<16,std::_Default_allocate_traits,0>, COMDAT

; 167  : _DECLSPEC_ALLOCATOR void* _Allocate(const size_t _Bytes) {

$LN5:
  00000	48 89 4c 24 08	 mov	 QWORD PTR [rsp+8], rcx
  00005	55		 push	 rbp
  00006	57		 push	 rdi
  00007	48 81 ec e8 00
	00 00		 sub	 rsp, 232		; 000000e8H
  0000e	48 8d 6c 24 20	 lea	 rbp, QWORD PTR [rsp+32]
  00013	48 8b fc	 mov	 rdi, rsp
  00016	b9 3a 00 00 00	 mov	 ecx, 58			; 0000003aH
  0001b	b8 cc cc cc cc	 mov	 eax, -858993460		; ccccccccH
  00020	f3 ab		 rep stosd
  00022	48 8b 8c 24 08
	01 00 00	 mov	 rcx, QWORD PTR [rsp+264]
  0002a	48 8d 0d 00 00
	00 00		 lea	 rcx, OFFSET FLAT:__725EB186_xmemory
  00031	e8 00 00 00 00	 call	 __CheckForDebuggerJustMyCode

; 168  :     // allocate _Bytes when !_HAS_ALIGNED_NEW || _Align <= __STDCPP_DEFAULT_NEW_ALIGNMENT__
; 169  : #if defined(_M_IX86) || defined(_M_X64)
; 170  :     if (_Bytes >= _Big_allocation_threshold) { // boost the alignment of big allocations to help autovectorization

  00036	48 81 bd e0 00
	00 00 00 10 00
	00		 cmp	 QWORD PTR _Bytes$[rbp], 4096 ; 00001000H
  00041	72 0e		 jb	 SHORT $LN2@Allocate

; 171  :         return _Allocate_manually_vector_aligned<_Traits>(_Bytes);

  00043	48 8b 8d e0 00
	00 00		 mov	 rcx, QWORD PTR _Bytes$[rbp]
  0004a	e8 00 00 00 00	 call	 ??$_Allocate_manually_vector_aligned@U_Default_allocate_traits@std@@@std@@YAPEAX_K@Z ; std::_Allocate_manually_vector_aligned<std::_Default_allocate_traits>
  0004f	eb 1a		 jmp	 SHORT $LN1@Allocate
$LN2@Allocate:

; 172  :     }
; 173  : #endif // defined(_M_IX86) || defined(_M_X64)
; 174  : 
; 175  :     if (_Bytes != 0) {

  00051	48 83 bd e0 00
	00 00 00	 cmp	 QWORD PTR _Bytes$[rbp], 0
  00059	74 0e		 je	 SHORT $LN3@Allocate

; 176  :         return _Traits::_Allocate(_Bytes);

  0005b	48 8b 8d e0 00
	00 00		 mov	 rcx, QWORD PTR _Bytes$[rbp]
  00062	e8 00 00 00 00	 call	 ?_Allocate@_Default_allocate_traits@std@@SAPEAX_K@Z ; std::_Default_allocate_traits::_Allocate
  00067	eb 02		 jmp	 SHORT $LN1@Allocate
$LN3@Allocate:

; 177  :     }
; 178  : 
; 179  :     return nullptr;

  00069	33 c0		 xor	 eax, eax
$LN1@Allocate:

; 180  : }

  0006b	48 8d a5 c8 00
	00 00		 lea	 rsp, QWORD PTR [rbp+200]
  00072	5f		 pop	 rdi
  00073	5d		 pop	 rbp
  00074	c3		 ret	 0
??$_Allocate@$0BA@U_Default_allocate_traits@std@@$0A@@std@@YAPEAX_K@Z ENDP ; std::_Allocate<16,std::_Default_allocate_traits,0>
_TEXT	ENDS
; Function compile flags: /Odtp /RTCsu /ZI
; File C:\Program Files (x86)\Microsoft Visual Studio\2019\Enterprise\VC\Tools\MSVC\14.23.28105\include\xmemory
;	COMDAT ??$_Deallocate@$0BA@$0A@@std@@YAXPEAX_K@Z
_TEXT	SEGMENT
_Ptr$ = 224
_Bytes$ = 232
??$_Deallocate@$0BA@$0A@@std@@YAXPEAX_K@Z PROC		; std::_Deallocate<16,0>, COMDAT

; 183  : void _Deallocate(void* _Ptr, size_t _Bytes) noexcept {

$LN4:
  00000	48 89 54 24 10	 mov	 QWORD PTR [rsp+16], rdx
  00005	48 89 4c 24 08	 mov	 QWORD PTR [rsp+8], rcx
  0000a	55		 push	 rbp
  0000b	57		 push	 rdi
  0000c	48 81 ec e8 00
	00 00		 sub	 rsp, 232		; 000000e8H
  00013	48 8d 6c 24 20	 lea	 rbp, QWORD PTR [rsp+32]
  00018	48 8b fc	 mov	 rdi, rsp
  0001b	b9 3a 00 00 00	 mov	 ecx, 58			; 0000003aH
  00020	b8 cc cc cc cc	 mov	 eax, -858993460		; ccccccccH
  00025	f3 ab		 rep stosd
  00027	48 8b 8c 24 08
	01 00 00	 mov	 rcx, QWORD PTR [rsp+264]
  0002f	48 8d 0d 00 00
	00 00		 lea	 rcx, OFFSET FLAT:__725EB186_xmemory
  00036	e8 00 00 00 00	 call	 __CheckForDebuggerJustMyCode
  0003b	90		 npad	 1

; 184  :     // deallocate storage allocated by _Allocate when !_HAS_ALIGNED_NEW || _Align <= __STDCPP_DEFAULT_NEW_ALIGNMENT__
; 185  : #if defined(_M_IX86) || defined(_M_X64)
; 186  :     if (_Bytes >= _Big_allocation_threshold) { // boost the alignment of big allocations to help autovectorization

  0003c	48 81 bd e8 00
	00 00 00 10 00
	00		 cmp	 QWORD PTR _Bytes$[rbp], 4096 ; 00001000H
  00047	72 14		 jb	 SHORT $LN2@Deallocate

; 187  :         _Adjust_manually_vector_aligned(_Ptr, _Bytes);

  00049	48 8d 95 e8 00
	00 00		 lea	 rdx, QWORD PTR _Bytes$[rbp]
  00050	48 8d 8d e0 00
	00 00		 lea	 rcx, QWORD PTR _Ptr$[rbp]
  00057	e8 00 00 00 00	 call	 ?_Adjust_manually_vector_aligned@std@@YAXAEAPEAXAEA_K@Z ; std::_Adjust_manually_vector_aligned
  0005c	90		 npad	 1
$LN2@Deallocate:

; 188  :     }
; 189  : #endif // defined(_M_IX86) || defined(_M_X64)
; 190  : 
; 191  :     ::operator delete(_Ptr, _Bytes);

  0005d	48 8b 95 e8 00
	00 00		 mov	 rdx, QWORD PTR _Bytes$[rbp]
  00064	48 8b 8d e0 00
	00 00		 mov	 rcx, QWORD PTR _Ptr$[rbp]
  0006b	e8 00 00 00 00	 call	 ??3@YAXPEAX_K@Z		; operator delete
  00070	90		 npad	 1

; 192  : }

  00071	48 8d a5 c8 00
	00 00		 lea	 rsp, QWORD PTR [rbp+200]
  00078	5f		 pop	 rdi
  00079	5d		 pop	 rbp
  0007a	c3		 ret	 0
??$_Deallocate@$0BA@$0A@@std@@YAXPEAX_K@Z ENDP		; std::_Deallocate<16,0>
_TEXT	ENDS
; Function compile flags: /Odtp /RTCsu /ZI
; File C:\Program Files (x86)\Microsoft Visual Studio\2019\Enterprise\VC\Tools\MSVC\14.23.28105\include\list
;	COMDAT ??$_Freenode0@V?$allocator@U?$_List_node@PEAVObjector@@PEAX@std@@@std@@@?$_List_node@PEAVObjector@@PEAX@std@@SAXAEAV?$allocator@U?$_List_node@PEAVObjector@@PEAX@std@@@1@PEAU01@@Z
_TEXT	SEGMENT
_Al$ = 224
_Ptr$ = 232
??$_Freenode0@V?$allocator@U?$_List_node@PEAVObjector@@PEAX@std@@@std@@@?$_List_node@PEAVObjector@@PEAX@std@@SAXAEAV?$allocator@U?$_List_node@PEAVObjector@@PEAX@std@@@1@PEAU01@@Z PROC ; std::_List_node<Objector *,void *>::_Freenode0<std::allocator<std::_List_node<Objector *,void *> > >, COMDAT

; 321  :     static void _Freenode0(_Alnode& _Al, _Nodeptr _Ptr) noexcept {

$LN3:
  00000	48 89 54 24 10	 mov	 QWORD PTR [rsp+16], rdx
  00005	48 89 4c 24 08	 mov	 QWORD PTR [rsp+8], rcx
  0000a	55		 push	 rbp
  0000b	57		 push	 rdi
  0000c	48 81 ec e8 00
	00 00		 sub	 rsp, 232		; 000000e8H
  00013	48 8d 6c 24 20	 lea	 rbp, QWORD PTR [rsp+32]
  00018	48 8b fc	 mov	 rdi, rsp
  0001b	b9 3a 00 00 00	 mov	 ecx, 58			; 0000003aH
  00020	b8 cc cc cc cc	 mov	 eax, -858993460		; ccccccccH
  00025	f3 ab		 rep stosd
  00027	48 8b 8c 24 08
	01 00 00	 mov	 rcx, QWORD PTR [rsp+264]
  0002f	48 8d 0d 00 00
	00 00		 lea	 rcx, OFFSET FLAT:__2EF0BD34_list
  00036	e8 00 00 00 00	 call	 __CheckForDebuggerJustMyCode
  0003b	90		 npad	 1

; 322  :         // destroy pointer members in _Ptr and deallocate with _Al
; 323  :         static_assert(is_same_v<typename _Alnode::value_type, _List_node>, "Bad _Freenode0 call");
; 324  :         _Destroy_in_place(_Ptr->_Next);

  0003c	48 8b 85 e8 00
	00 00		 mov	 rax, QWORD PTR _Ptr$[rbp]
  00043	48 8b c8	 mov	 rcx, rax
  00046	e8 00 00 00 00	 call	 ??$_Destroy_in_place@PEAU?$_List_node@PEAVObjector@@PEAX@std@@@std@@YAXAEAPEAU?$_List_node@PEAVObjector@@PEAX@0@@Z ; std::_Destroy_in_place<std::_List_node<Objector *,void *> *>
  0004b	90		 npad	 1

; 325  :         _Destroy_in_place(_Ptr->_Prev);

  0004c	48 8b 85 e8 00
	00 00		 mov	 rax, QWORD PTR _Ptr$[rbp]
  00053	48 83 c0 08	 add	 rax, 8
  00057	48 8b c8	 mov	 rcx, rax
  0005a	e8 00 00 00 00	 call	 ??$_Destroy_in_place@PEAU?$_List_node@PEAVObjector@@PEAX@std@@@std@@YAXAEAPEAU?$_List_node@PEAVObjector@@PEAX@0@@Z ; std::_Destroy_in_place<std::_List_node<Objector *,void *> *>
  0005f	90		 npad	 1

; 326  :         allocator_traits<_Alnode>::deallocate(_Al, _Ptr, 1);

  00060	41 b8 01 00 00
	00		 mov	 r8d, 1
  00066	48 8b 95 e8 00
	00 00		 mov	 rdx, QWORD PTR _Ptr$[rbp]
  0006d	48 8b 8d e0 00
	00 00		 mov	 rcx, QWORD PTR _Al$[rbp]
  00074	e8 00 00 00 00	 call	 ?deallocate@?$_Default_allocator_traits@V?$allocator@U?$_List_node@PEAVObjector@@PEAX@std@@@std@@@std@@SAXAEAV?$allocator@U?$_List_node@PEAVObjector@@PEAX@std@@@2@QEAU?$_List_node@PEAVObjector@@PEAX@2@_K@Z ; std::_Default_allocator_traits<std::allocator<std::_List_node<Objector *,void *> > >::deallocate
  00079	90		 npad	 1

; 327  :     }

  0007a	48 8d a5 c8 00
	00 00		 lea	 rsp, QWORD PTR [rbp+200]
  00081	5f		 pop	 rdi
  00082	5d		 pop	 rbp
  00083	c3		 ret	 0
??$_Freenode0@V?$allocator@U?$_List_node@PEAVObjector@@PEAX@std@@@std@@@?$_List_node@PEAVObjector@@PEAX@std@@SAXAEAV?$allocator@U?$_List_node@PEAVObjector@@PEAX@std@@@1@PEAU01@@Z ENDP ; std::_List_node<Objector *,void *>::_Freenode0<std::allocator<std::_List_node<Objector *,void *> > >
_TEXT	ENDS
; Function compile flags: /Odtp /RTCsu /ZI
; File C:\Program Files (x86)\Microsoft Visual Studio\2019\Enterprise\VC\Tools\MSVC\14.23.28105\include\list
;	COMDAT ??$_Free_non_head@V?$allocator@U?$_List_node@PEAVObjector@@PEAX@std@@@std@@@?$_List_node@PEAVObjector@@PEAX@std@@SAXAEAV?$allocator@U?$_List_node@PEAVObjector@@PEAX@std@@@1@PEAU01@@Z
_TEXT	SEGMENT
_Pnode$ = 8
_Pnext$1 = 40
_Al$ = 288
_Head$ = 296
??$_Free_non_head@V?$allocator@U?$_List_node@PEAVObjector@@PEAX@std@@@std@@@?$_List_node@PEAVObjector@@PEAX@std@@SAXAEAV?$allocator@U?$_List_node@PEAVObjector@@PEAX@std@@@1@PEAU01@@Z PROC ; std::_List_node<Objector *,void *>::_Free_non_head<std::allocator<std::_List_node<Objector *,void *> > >, COMDAT

; 337  :         _Alnode& _Al, _Nodeptr _Head) noexcept { // free a list starting at _First and terminated at nullptr

$LN6:
  00000	48 89 54 24 10	 mov	 QWORD PTR [rsp+16], rdx
  00005	48 89 4c 24 08	 mov	 QWORD PTR [rsp+8], rcx
  0000a	55		 push	 rbp
  0000b	57		 push	 rdi
  0000c	48 81 ec 28 01
	00 00		 sub	 rsp, 296		; 00000128H
  00013	48 8d 6c 24 20	 lea	 rbp, QWORD PTR [rsp+32]
  00018	48 8b fc	 mov	 rdi, rsp
  0001b	b9 4a 00 00 00	 mov	 ecx, 74			; 0000004aH
  00020	b8 cc cc cc cc	 mov	 eax, -858993460		; ccccccccH
  00025	f3 ab		 rep stosd
  00027	48 8b 8c 24 48
	01 00 00	 mov	 rcx, QWORD PTR [rsp+328]
  0002f	48 8d 0d 00 00
	00 00		 lea	 rcx, OFFSET FLAT:__2EF0BD34_list
  00036	e8 00 00 00 00	 call	 __CheckForDebuggerJustMyCode
  0003b	90		 npad	 1

; 338  :         _Head->_Prev->_Next = nullptr;

  0003c	48 8b 85 28 01
	00 00		 mov	 rax, QWORD PTR _Head$[rbp]
  00043	48 8b 40 08	 mov	 rax, QWORD PTR [rax+8]
  00047	48 c7 00 00 00
	00 00		 mov	 QWORD PTR [rax], 0

; 339  : 
; 340  :         auto _Pnode = _Head->_Next;

  0004e	48 8b 85 28 01
	00 00		 mov	 rax, QWORD PTR _Head$[rbp]
  00055	48 8b 00	 mov	 rax, QWORD PTR [rax]
  00058	48 89 45 08	 mov	 QWORD PTR _Pnode$[rbp], rax

; 341  :         for (_Nodeptr _Pnext; _Pnode; _Pnode = _Pnext) {

  0005c	eb 08		 jmp	 SHORT $LN4@Free_non_h
$LN2@Free_non_h:
  0005e	48 8b 45 28	 mov	 rax, QWORD PTR _Pnext$1[rbp]
  00062	48 89 45 08	 mov	 QWORD PTR _Pnode$[rbp], rax
$LN4@Free_non_h:
  00066	48 83 7d 08 00	 cmp	 QWORD PTR _Pnode$[rbp], 0
  0006b	74 1e		 je	 SHORT $LN3@Free_non_h

; 342  :             _Pnext = _Pnode->_Next;

  0006d	48 8b 45 08	 mov	 rax, QWORD PTR _Pnode$[rbp]
  00071	48 8b 00	 mov	 rax, QWORD PTR [rax]
  00074	48 89 45 28	 mov	 QWORD PTR _Pnext$1[rbp], rax

; 343  :             _Freenode(_Al, _Pnode);

  00078	48 8b 55 08	 mov	 rdx, QWORD PTR _Pnode$[rbp]
  0007c	48 8b 8d 20 01
	00 00		 mov	 rcx, QWORD PTR _Al$[rbp]
  00083	e8 00 00 00 00	 call	 ??$_Freenode@V?$allocator@U?$_List_node@PEAVObjector@@PEAX@std@@@std@@@?$_List_node@PEAVObjector@@PEAX@std@@SAXAEAV?$allocator@U?$_List_node@PEAVObjector@@PEAX@std@@@1@PEAU01@@Z ; std::_List_node<Objector *,void *>::_Freenode<std::allocator<std::_List_node<Objector *,void *> > >
  00088	90		 npad	 1

; 344  :         }

  00089	eb d3		 jmp	 SHORT $LN2@Free_non_h
$LN3@Free_non_h:

; 345  :     }

  0008b	48 8d a5 08 01
	00 00		 lea	 rsp, QWORD PTR [rbp+264]
  00092	5f		 pop	 rdi
  00093	5d		 pop	 rbp
  00094	c3		 ret	 0
??$_Free_non_head@V?$allocator@U?$_List_node@PEAVObjector@@PEAX@std@@@std@@@?$_List_node@PEAVObjector@@PEAX@std@@SAXAEAV?$allocator@U?$_List_node@PEAVObjector@@PEAX@std@@@1@PEAU01@@Z ENDP ; std::_List_node<Objector *,void *>::_Free_non_head<std::allocator<std::_List_node<Objector *,void *> > >
_TEXT	ENDS
; Function compile flags: /Odtp /RTCsu /ZI
; File C:\Program Files (x86)\Microsoft Visual Studio\2019\Enterprise\VC\Tools\MSVC\14.23.28105\include\xmemory
;	COMDAT ??$_Construct_in_place@PEAU?$_List_node@PEAVObjector@@PEAX@std@@AEAPEAU12@@std@@YAXAEAPEAU?$_List_node@PEAVObjector@@PEAX@0@0@Z
_TEXT	SEGMENT
$T1 = 200
_Obj$ = 256
<_Args_0>$ = 264
??$_Construct_in_place@PEAU?$_List_node@PEAVObjector@@PEAX@std@@AEAPEAU12@@std@@YAXAEAPEAU?$_List_node@PEAVObjector@@PEAX@0@0@Z PROC ; std::_Construct_in_place<std::_List_node<Objector *,void *> *,std::_List_node<Objector *,void *> * &>, COMDAT

; 198  : void _Construct_in_place(_Ty& _Obj, _Types&&... _Args) _NOEXCEPT_COND(is_nothrow_constructible_v<_Ty, _Types...>) {

$LN3:
  00000	48 89 54 24 10	 mov	 QWORD PTR [rsp+16], rdx
  00005	48 89 4c 24 08	 mov	 QWORD PTR [rsp+8], rcx
  0000a	55		 push	 rbp
  0000b	57		 push	 rdi
  0000c	48 81 ec 08 01
	00 00		 sub	 rsp, 264		; 00000108H
  00013	48 8d 6c 24 20	 lea	 rbp, QWORD PTR [rsp+32]
  00018	48 8b fc	 mov	 rdi, rsp
  0001b	b9 42 00 00 00	 mov	 ecx, 66			; 00000042H
  00020	b8 cc cc cc cc	 mov	 eax, -858993460		; ccccccccH
  00025	f3 ab		 rep stosd
  00027	48 8b 8c 24 28
	01 00 00	 mov	 rcx, QWORD PTR [rsp+296]
  0002f	48 8d 0d 00 00
	00 00		 lea	 rcx, OFFSET FLAT:__725EB186_xmemory
  00036	e8 00 00 00 00	 call	 __CheckForDebuggerJustMyCode
  0003b	90		 npad	 1
  0003c	48 8b 8d 00 01
	00 00		 mov	 rcx, QWORD PTR _Obj$[rbp]
  00043	e8 00 00 00 00	 call	 ??$addressof@PEAU?$_List_node@PEAVObjector@@PEAX@std@@@std@@YAPEAPEAU?$_List_node@PEAVObjector@@PEAX@0@AEAPEAU10@@Z ; std::addressof<std::_List_node<Objector *,void *> *>
  00048	90		 npad	 1
  00049	48 8b d0	 mov	 rdx, rax
  0004c	b9 08 00 00 00	 mov	 ecx, 8
  00051	e8 00 00 00 00	 call	 ??2@YAPEAX_KPEAX@Z	; operator new
  00056	90		 npad	 1
  00057	48 89 85 c8 00
	00 00		 mov	 QWORD PTR $T1[rbp], rax
  0005e	48 8b 8d 08 01
	00 00		 mov	 rcx, QWORD PTR <_Args_0>$[rbp]
  00065	e8 00 00 00 00	 call	 ??$forward@AEAPEAU?$_List_node@PEAVObjector@@PEAX@std@@@std@@YAAEAPEAU?$_List_node@PEAVObjector@@PEAX@0@AEAPEAU10@@Z ; std::forward<std::_List_node<Objector *,void *> * &>
  0006a	90		 npad	 1
  0006b	48 8b 8d c8 00
	00 00		 mov	 rcx, QWORD PTR $T1[rbp]
  00072	48 8b 00	 mov	 rax, QWORD PTR [rax]
  00075	48 89 01	 mov	 QWORD PTR [rcx], rax

; 199  :     ::new (const_cast<void*>(static_cast<const volatile void*>(_STD addressof(_Obj))))
; 200  :         _Ty(_STD forward<_Types>(_Args)...);
; 201  : }

  00078	48 8d a5 e8 00
	00 00		 lea	 rsp, QWORD PTR [rbp+232]
  0007f	5f		 pop	 rdi
  00080	5d		 pop	 rbp
  00081	c3		 ret	 0
??$_Construct_in_place@PEAU?$_List_node@PEAVObjector@@PEAX@std@@AEAPEAU12@@std@@YAXAEAPEAU?$_List_node@PEAVObjector@@PEAX@0@0@Z ENDP ; std::_Construct_in_place<std::_List_node<Objector *,void *> *,std::_List_node<Objector *,void *> * &>
_TEXT	ENDS
; Function compile flags: /Odtp /RTCsu /ZI
; File C:\Program Files (x86)\Microsoft Visual Studio\2019\Enterprise\VC\Tools\MSVC\14.23.28105\include\xstddef
;	COMDAT ??$_Unfancy@U_Container_proxy@std@@@std@@YAPEAU_Container_proxy@0@PEAU10@@Z
_TEXT	SEGMENT
_Ptr$ = 224
??$_Unfancy@U_Container_proxy@std@@@std@@YAPEAU_Container_proxy@0@PEAU10@@Z PROC ; std::_Unfancy<std::_Container_proxy>, COMDAT

; 293  : _Ty* _Unfancy(_Ty* _Ptr) { // do nothing for plain pointers

$LN3:
  00000	48 89 4c 24 08	 mov	 QWORD PTR [rsp+8], rcx
  00005	55		 push	 rbp
  00006	57		 push	 rdi
  00007	48 81 ec e8 00
	00 00		 sub	 rsp, 232		; 000000e8H
  0000e	48 8d 6c 24 20	 lea	 rbp, QWORD PTR [rsp+32]
  00013	48 8b fc	 mov	 rdi, rsp
  00016	b9 3a 00 00 00	 mov	 ecx, 58			; 0000003aH
  0001b	b8 cc cc cc cc	 mov	 eax, -858993460		; ccccccccH
  00020	f3 ab		 rep stosd
  00022	48 8b 8c 24 08
	01 00 00	 mov	 rcx, QWORD PTR [rsp+264]
  0002a	48 8d 0d 00 00
	00 00		 lea	 rcx, OFFSET FLAT:__EFD44557_xstddef
  00031	e8 00 00 00 00	 call	 __CheckForDebuggerJustMyCode

; 294  :     return _Ptr;

  00036	48 8b 85 e0 00
	00 00		 mov	 rax, QWORD PTR _Ptr$[rbp]

; 295  : }

  0003d	48 8d a5 c8 00
	00 00		 lea	 rsp, QWORD PTR [rbp+200]
  00044	5f		 pop	 rdi
  00045	5d		 pop	 rbp
  00046	c3		 ret	 0
??$_Unfancy@U_Container_proxy@std@@@std@@YAPEAU_Container_proxy@0@PEAU10@@Z ENDP ; std::_Unfancy<std::_Container_proxy>
_TEXT	ENDS
; Function compile flags: /Odtp /RTCsu /ZI
; File C:\Program Files (x86)\Microsoft Visual Studio\2019\Enterprise\VC\Tools\MSVC\14.23.28105\include\xmemory
;	COMDAT ??1?$_Container_proxy_ptr12@V?$allocator@U_Container_proxy@std@@@std@@@std@@QEAA@XZ
_TEXT	SEGMENT
this$ = 224
??1?$_Container_proxy_ptr12@V?$allocator@U_Container_proxy@std@@@std@@@std@@QEAA@XZ PROC ; std::_Container_proxy_ptr12<std::allocator<std::_Container_proxy> >::~_Container_proxy_ptr12<std::allocator<std::_Container_proxy> >, COMDAT

; 1382 :     ~_Container_proxy_ptr12() {

$LN4:
  00000	48 89 4c 24 08	 mov	 QWORD PTR [rsp+8], rcx
  00005	55		 push	 rbp
  00006	57		 push	 rdi
  00007	48 81 ec e8 00
	00 00		 sub	 rsp, 232		; 000000e8H
  0000e	48 8d 6c 24 20	 lea	 rbp, QWORD PTR [rsp+32]
  00013	48 8b fc	 mov	 rdi, rsp
  00016	b9 3a 00 00 00	 mov	 ecx, 58			; 0000003aH
  0001b	b8 cc cc cc cc	 mov	 eax, -858993460		; ccccccccH
  00020	f3 ab		 rep stosd
  00022	48 8b 8c 24 08
	01 00 00	 mov	 rcx, QWORD PTR [rsp+264]
  0002a	48 8d 0d 00 00
	00 00		 lea	 rcx, OFFSET FLAT:__725EB186_xmemory
  00031	e8 00 00 00 00	 call	 __CheckForDebuggerJustMyCode
  00036	90		 npad	 1

; 1383 :         if (_Ptr) {

  00037	48 8b 85 e0 00
	00 00		 mov	 rax, QWORD PTR this$[rbp]
  0003e	48 83 38 00	 cmp	 QWORD PTR [rax], 0
  00042	74 1b		 je	 SHORT $LN2@Container_

; 1384 :             _Delete_plain_internal(_Al, _Ptr);

  00044	48 8b 85 e0 00
	00 00		 mov	 rax, QWORD PTR this$[rbp]
  0004b	48 8b 10	 mov	 rdx, QWORD PTR [rax]
  0004e	48 8b 85 e0 00
	00 00		 mov	 rax, QWORD PTR this$[rbp]
  00055	48 8b 48 08	 mov	 rcx, QWORD PTR [rax+8]
  00059	e8 00 00 00 00	 call	 ??$_Delete_plain_internal@V?$allocator@U_Container_proxy@std@@@std@@@std@@YAXAEAV?$allocator@U_Container_proxy@std@@@0@QEAU_Container_proxy@0@@Z ; std::_Delete_plain_internal<std::allocator<std::_Container_proxy> >
  0005e	90		 npad	 1
$LN2@Container_:

; 1385 :         }
; 1386 :     }

  0005f	48 8d a5 c8 00
	00 00		 lea	 rsp, QWORD PTR [rbp+200]
  00066	5f		 pop	 rdi
  00067	5d		 pop	 rbp
  00068	c3		 ret	 0
??1?$_Container_proxy_ptr12@V?$allocator@U_Container_proxy@std@@@std@@@std@@QEAA@XZ ENDP ; std::_Container_proxy_ptr12<std::allocator<std::_Container_proxy> >::~_Container_proxy_ptr12<std::allocator<std::_Container_proxy> >
_TEXT	ENDS
; Function compile flags: /Odtp /RTCsu /ZI
; File C:\Program Files (x86)\Microsoft Visual Studio\2019\Enterprise\VC\Tools\MSVC\14.23.28105\include\xmemory
;	COMDAT ??0?$_Container_proxy_ptr12@V?$allocator@U_Container_proxy@std@@@std@@@std@@QEAA@AEAV?$allocator@U_Container_proxy@std@@@1@AEAU_Container_base12@1@@Z
_TEXT	SEGMENT
$T1 = 200
this$ = 256
_Al_$ = 264
_Mycont$ = 272
??0?$_Container_proxy_ptr12@V?$allocator@U_Container_proxy@std@@@std@@@std@@QEAA@AEAV?$allocator@U_Container_proxy@std@@@1@AEAU_Container_base12@1@@Z PROC ; std::_Container_proxy_ptr12<std::allocator<std::_Container_proxy> >::_Container_proxy_ptr12<std::allocator<std::_Container_proxy> >, COMDAT

; 1368 :     _Container_proxy_ptr12(_Alloc& _Al_, _Container_base12& _Mycont)

$LN3:
  00000	4c 89 44 24 18	 mov	 QWORD PTR [rsp+24], r8
  00005	48 89 54 24 10	 mov	 QWORD PTR [rsp+16], rdx
  0000a	48 89 4c 24 08	 mov	 QWORD PTR [rsp+8], rcx
  0000f	55		 push	 rbp
  00010	57		 push	 rdi
  00011	48 81 ec 08 01
	00 00		 sub	 rsp, 264		; 00000108H
  00018	48 8d 6c 24 20	 lea	 rbp, QWORD PTR [rsp+32]
  0001d	48 8b fc	 mov	 rdi, rsp
  00020	b9 42 00 00 00	 mov	 ecx, 66			; 00000042H
  00025	b8 cc cc cc cc	 mov	 eax, -858993460		; ccccccccH
  0002a	f3 ab		 rep stosd
  0002c	48 8b 8c 24 28
	01 00 00	 mov	 rcx, QWORD PTR [rsp+296]
  00034	48 8d 0d 00 00
	00 00		 lea	 rcx, OFFSET FLAT:__725EB186_xmemory
  0003b	e8 00 00 00 00	 call	 __CheckForDebuggerJustMyCode

; 1369 :         : _Al(_Al_) { // create a new _Container_proxy pointing at _Mycont

  00040	48 8b 85 00 01
	00 00		 mov	 rax, QWORD PTR this$[rbp]
  00047	48 8b 8d 08 01
	00 00		 mov	 rcx, QWORD PTR _Al_$[rbp]
  0004e	48 89 48 08	 mov	 QWORD PTR [rax+8], rcx

; 1370 :         _Ptr = _Unfancy(_Al_.allocate(1));

  00052	ba 01 00 00 00	 mov	 edx, 1
  00057	48 8b 8d 08 01
	00 00		 mov	 rcx, QWORD PTR _Al_$[rbp]
  0005e	e8 00 00 00 00	 call	 ?allocate@?$allocator@U_Container_proxy@std@@@std@@QEAAPEAU_Container_proxy@2@_K@Z ; std::allocator<std::_Container_proxy>::allocate
  00063	48 8b c8	 mov	 rcx, rax
  00066	e8 00 00 00 00	 call	 ??$_Unfancy@U_Container_proxy@std@@@std@@YAPEAU_Container_proxy@0@PEAU10@@Z ; std::_Unfancy<std::_Container_proxy>
  0006b	48 8b 8d 00 01
	00 00		 mov	 rcx, QWORD PTR this$[rbp]
  00072	48 89 01	 mov	 QWORD PTR [rcx], rax

; 1371 :         _Construct_in_place(*_Ptr, _STD addressof(_Mycont));

  00075	48 8b 8d 10 01
	00 00		 mov	 rcx, QWORD PTR _Mycont$[rbp]
  0007c	e8 00 00 00 00	 call	 ??$addressof@U_Container_base12@std@@@std@@YAPEAU_Container_base12@0@AEAU10@@Z ; std::addressof<std::_Container_base12>
  00081	48 89 85 c8 00
	00 00		 mov	 QWORD PTR $T1[rbp], rax
  00088	48 8d 95 c8 00
	00 00		 lea	 rdx, QWORD PTR $T1[rbp]
  0008f	48 8b 85 00 01
	00 00		 mov	 rax, QWORD PTR this$[rbp]
  00096	48 8b 08	 mov	 rcx, QWORD PTR [rax]
  00099	e8 00 00 00 00	 call	 ??$_Construct_in_place@U_Container_proxy@std@@PEAU_Container_base12@2@@std@@YAXAEAU_Container_proxy@0@$$QEAPEAU_Container_base12@0@@Z ; std::_Construct_in_place<std::_Container_proxy,std::_Container_base12 *>

; 1372 :         _Mycont._Myproxy = _Ptr;

  0009e	48 8b 85 10 01
	00 00		 mov	 rax, QWORD PTR _Mycont$[rbp]
  000a5	48 8b 8d 00 01
	00 00		 mov	 rcx, QWORD PTR this$[rbp]
  000ac	48 8b 09	 mov	 rcx, QWORD PTR [rcx]
  000af	48 89 08	 mov	 QWORD PTR [rax], rcx

; 1373 :     }

  000b2	48 8b 85 00 01
	00 00		 mov	 rax, QWORD PTR this$[rbp]
  000b9	48 8d a5 e8 00
	00 00		 lea	 rsp, QWORD PTR [rbp+232]
  000c0	5f		 pop	 rdi
  000c1	5d		 pop	 rbp
  000c2	c3		 ret	 0
??0?$_Container_proxy_ptr12@V?$allocator@U_Container_proxy@std@@@std@@@std@@QEAA@AEAV?$allocator@U_Container_proxy@std@@@1@AEAU_Container_base12@1@@Z ENDP ; std::_Container_proxy_ptr12<std::allocator<std::_Container_proxy> >::_Container_proxy_ptr12<std::allocator<std::_Container_proxy> >
_TEXT	ENDS
; Function compile flags: /Odtp /RTCsu /ZI
; File C:\Program Files (x86)\Microsoft Visual Studio\2019\Enterprise\VC\Tools\MSVC\14.23.28105\include\xmemory
;	COMDAT ??$?0$$V@?$_Compressed_pair@V?$allocator@U?$_List_node@PEAVObjector@@PEAX@std@@@std@@V?$_List_val@U?$_List_simple_types@PEAVObjector@@@std@@@2@$00@std@@QEAA@U_Zero_then_variadic_args_t@1@@Z
_TEXT	SEGMENT
this$ = 224
__formal$ = 232
??$?0$$V@?$_Compressed_pair@V?$allocator@U?$_List_node@PEAVObjector@@PEAX@std@@@std@@V?$_List_val@U?$_List_simple_types@PEAVObjector@@@std@@@2@$00@std@@QEAA@U_Zero_then_variadic_args_t@1@@Z PROC ; std::_Compressed_pair<std::allocator<std::_List_node<Objector *,void *> >,std::_List_val<std::_List_simple_types<Objector *> >,1>::_Compressed_pair<std::allocator<std::_List_node<Objector *,void *> >,std::_List_val<std::_List_simple_types<Objector *> >,1><>, COMDAT

; 1414 :         : _Ty1(), _Myval2(_STD forward<_Other2>(_Val2)...) {}

$LN3:
  00000	88 54 24 10	 mov	 BYTE PTR [rsp+16], dl
  00004	48 89 4c 24 08	 mov	 QWORD PTR [rsp+8], rcx
  00009	55		 push	 rbp
  0000a	57		 push	 rdi
  0000b	48 81 ec e8 00
	00 00		 sub	 rsp, 232		; 000000e8H
  00012	48 8d 6c 24 20	 lea	 rbp, QWORD PTR [rsp+32]
  00017	48 8b fc	 mov	 rdi, rsp
  0001a	b9 3a 00 00 00	 mov	 ecx, 58			; 0000003aH
  0001f	b8 cc cc cc cc	 mov	 eax, -858993460		; ccccccccH
  00024	f3 ab		 rep stosd
  00026	48 8b 8c 24 08
	01 00 00	 mov	 rcx, QWORD PTR [rsp+264]
  0002e	48 8d 0d 00 00
	00 00		 lea	 rcx, OFFSET FLAT:__725EB186_xmemory
  00035	e8 00 00 00 00	 call	 __CheckForDebuggerJustMyCode
  0003a	48 8b 8d e0 00
	00 00		 mov	 rcx, QWORD PTR this$[rbp]
  00041	e8 00 00 00 00	 call	 ??0?$allocator@U?$_List_node@PEAVObjector@@PEAX@std@@@std@@QEAA@XZ ; std::allocator<std::_List_node<Objector *,void *> >::allocator<std::_List_node<Objector *,void *> >
  00046	48 8b 85 e0 00
	00 00		 mov	 rax, QWORD PTR this$[rbp]
  0004d	48 8b c8	 mov	 rcx, rax
  00050	e8 00 00 00 00	 call	 ??0?$_List_val@U?$_List_simple_types@PEAVObjector@@@std@@@std@@QEAA@XZ ; std::_List_val<std::_List_simple_types<Objector *> >::_List_val<std::_List_simple_types<Objector *> >
  00055	48 8b 85 e0 00
	00 00		 mov	 rax, QWORD PTR this$[rbp]
  0005c	48 8d a5 c8 00
	00 00		 lea	 rsp, QWORD PTR [rbp+200]
  00063	5f		 pop	 rdi
  00064	5d		 pop	 rbp
  00065	c3		 ret	 0
??$?0$$V@?$_Compressed_pair@V?$allocator@U?$_List_node@PEAVObjector@@PEAX@std@@@std@@V?$_List_val@U?$_List_simple_types@PEAVObjector@@@std@@@2@$00@std@@QEAA@U_Zero_then_variadic_args_t@1@@Z ENDP ; std::_Compressed_pair<std::allocator<std::_List_node<Objector *,void *> >,std::_List_val<std::_List_simple_types<Objector *> >,1>::_Compressed_pair<std::allocator<std::_List_node<Objector *,void *> >,std::_List_val<std::_List_simple_types<Objector *> >,1><>
_TEXT	ENDS
; Function compile flags: /Odtp /RTCsu /ZI
; File C:\Program Files (x86)\Microsoft Visual Studio\2019\Enterprise\VC\Tools\MSVC\14.23.28105\include\xmemory
;	COMDAT ??$_Delete_plain_internal@V?$allocator@U_Container_proxy@std@@@std@@@std@@YAXAEAV?$allocator@U_Container_proxy@std@@@0@QEAU_Container_proxy@0@@Z
_TEXT	SEGMENT
_Al$ = 224
_Ptr$ = 232
??$_Delete_plain_internal@V?$allocator@U_Container_proxy@std@@@std@@@std@@YAXAEAV?$allocator@U_Container_proxy@std@@@0@QEAU_Container_proxy@0@@Z PROC ; std::_Delete_plain_internal<std::allocator<std::_Container_proxy> >, COMDAT

; 1109 : void _Delete_plain_internal(_Alloc& _Al, typename _Alloc::value_type* const _Ptr) noexcept {

$LN3:
  00000	48 89 54 24 10	 mov	 QWORD PTR [rsp+16], rdx
  00005	48 89 4c 24 08	 mov	 QWORD PTR [rsp+8], rcx
  0000a	55		 push	 rbp
  0000b	57		 push	 rdi
  0000c	48 81 ec e8 00
	00 00		 sub	 rsp, 232		; 000000e8H
  00013	48 8d 6c 24 20	 lea	 rbp, QWORD PTR [rsp+32]
  00018	48 8b fc	 mov	 rdi, rsp
  0001b	b9 3a 00 00 00	 mov	 ecx, 58			; 0000003aH
  00020	b8 cc cc cc cc	 mov	 eax, -858993460		; ccccccccH
  00025	f3 ab		 rep stosd
  00027	48 8b 8c 24 08
	01 00 00	 mov	 rcx, QWORD PTR [rsp+264]
  0002f	48 8d 0d 00 00
	00 00		 lea	 rcx, OFFSET FLAT:__725EB186_xmemory
  00036	e8 00 00 00 00	 call	 __CheckForDebuggerJustMyCode
  0003b	90		 npad	 1

; 1110 :     // destroy *_Ptr in place, then deallocate _Ptr using _Al; used for internal container types the user didn't name
; 1111 :     using _Ty = typename _Alloc::value_type;
; 1112 :     _Ptr->~_Ty();
; 1113 :     _Deallocate_plain(_Al, _Ptr);

  0003c	48 8b 95 e8 00
	00 00		 mov	 rdx, QWORD PTR _Ptr$[rbp]
  00043	48 8b 8d e0 00
	00 00		 mov	 rcx, QWORD PTR _Al$[rbp]
  0004a	e8 00 00 00 00	 call	 ??$_Deallocate_plain@V?$allocator@U_Container_proxy@std@@@std@@@std@@YAXAEAV?$allocator@U_Container_proxy@std@@@0@QEAU_Container_proxy@0@@Z ; std::_Deallocate_plain<std::allocator<std::_Container_proxy> >
  0004f	90		 npad	 1

; 1114 : }

  00050	48 8d a5 c8 00
	00 00		 lea	 rsp, QWORD PTR [rbp+200]
  00057	5f		 pop	 rdi
  00058	5d		 pop	 rbp
  00059	c3		 ret	 0
??$_Delete_plain_internal@V?$allocator@U_Container_proxy@std@@@std@@@std@@YAXAEAV?$allocator@U_Container_proxy@std@@@0@QEAU_Container_proxy@0@@Z ENDP ; std::_Delete_plain_internal<std::allocator<std::_Container_proxy> >
_TEXT	ENDS
; Function compile flags: /Odtp /RTCsu /ZI
; File C:\Program Files (x86)\Microsoft Visual Studio\2019\Enterprise\VC\Tools\MSVC\14.23.28105\include\xmemory
;	COMDAT ??$?0U?$_List_node@PEAVObjector@@PEAX@std@@@?$allocator@U_Container_proxy@std@@@std@@QEAA@AEBV?$allocator@U?$_List_node@PEAVObjector@@PEAX@std@@@1@@Z
_TEXT	SEGMENT
this$ = 224
__formal$ = 232
??$?0U?$_List_node@PEAVObjector@@PEAX@std@@@?$allocator@U_Container_proxy@std@@@std@@QEAA@AEBV?$allocator@U?$_List_node@PEAVObjector@@PEAX@std@@@1@@Z PROC ; std::allocator<std::_Container_proxy>::allocator<std::_Container_proxy><std::_List_node<Objector *,void *> >, COMDAT

; 863  :     constexpr allocator(const allocator<_Other>&) noexcept {}

$LN3:
  00000	48 89 54 24 10	 mov	 QWORD PTR [rsp+16], rdx
  00005	48 89 4c 24 08	 mov	 QWORD PTR [rsp+8], rcx
  0000a	55		 push	 rbp
  0000b	57		 push	 rdi
  0000c	48 81 ec e8 00
	00 00		 sub	 rsp, 232		; 000000e8H
  00013	48 8d 6c 24 20	 lea	 rbp, QWORD PTR [rsp+32]
  00018	48 8b fc	 mov	 rdi, rsp
  0001b	b9 3a 00 00 00	 mov	 ecx, 58			; 0000003aH
  00020	b8 cc cc cc cc	 mov	 eax, -858993460		; ccccccccH
  00025	f3 ab		 rep stosd
  00027	48 8b 8c 24 08
	01 00 00	 mov	 rcx, QWORD PTR [rsp+264]
  0002f	48 8d 0d 00 00
	00 00		 lea	 rcx, OFFSET FLAT:__725EB186_xmemory
  00036	e8 00 00 00 00	 call	 __CheckForDebuggerJustMyCode
  0003b	90		 npad	 1
  0003c	48 8b 85 e0 00
	00 00		 mov	 rax, QWORD PTR this$[rbp]
  00043	48 8d a5 c8 00
	00 00		 lea	 rsp, QWORD PTR [rbp+200]
  0004a	5f		 pop	 rdi
  0004b	5d		 pop	 rbp
  0004c	c3		 ret	 0
??$?0U?$_List_node@PEAVObjector@@PEAX@std@@@?$allocator@U_Container_proxy@std@@@std@@QEAA@AEBV?$allocator@U?$_List_node@PEAVObjector@@PEAX@std@@@1@@Z ENDP ; std::allocator<std::_Container_proxy>::allocator<std::_Container_proxy><std::_List_node<Objector *,void *> >
_TEXT	ENDS
; Function compile flags: /Odtp /RTCsu /ZI
; File C:\Program Files (x86)\Microsoft Visual Studio\2019\Enterprise\VC\Tools\MSVC\14.23.28105\include\xmemory
;	COMDAT ?allocate@?$allocator@U_Container_proxy@std@@@std@@QEAAPEAU_Container_proxy@2@_K@Z
_TEXT	SEGMENT
this$ = 224
_Count$ = 232
?allocate@?$allocator@U_Container_proxy@std@@@std@@QEAAPEAU_Container_proxy@2@_K@Z PROC ; std::allocator<std::_Container_proxy>::allocate, COMDAT

; 870  :     _NODISCARD _DECLSPEC_ALLOCATOR _Ty* allocate(_CRT_GUARDOVERFLOW const size_t _Count) {

$LN3:
  00000	48 89 54 24 10	 mov	 QWORD PTR [rsp+16], rdx
  00005	48 89 4c 24 08	 mov	 QWORD PTR [rsp+8], rcx
  0000a	55		 push	 rbp
  0000b	57		 push	 rdi
  0000c	48 81 ec e8 00
	00 00		 sub	 rsp, 232		; 000000e8H
  00013	48 8d 6c 24 20	 lea	 rbp, QWORD PTR [rsp+32]
  00018	48 8b fc	 mov	 rdi, rsp
  0001b	b9 3a 00 00 00	 mov	 ecx, 58			; 0000003aH
  00020	b8 cc cc cc cc	 mov	 eax, -858993460		; ccccccccH
  00025	f3 ab		 rep stosd
  00027	48 8b 8c 24 08
	01 00 00	 mov	 rcx, QWORD PTR [rsp+264]
  0002f	48 8d 0d 00 00
	00 00		 lea	 rcx, OFFSET FLAT:__725EB186_xmemory
  00036	e8 00 00 00 00	 call	 __CheckForDebuggerJustMyCode

; 871  :         return static_cast<_Ty*>(_Allocate<_New_alignof<_Ty>>(_Get_size_of_n<sizeof(_Ty)>(_Count)));

  0003b	48 8b 8d e8 00
	00 00		 mov	 rcx, QWORD PTR _Count$[rbp]
  00042	e8 00 00 00 00	 call	 ??$_Get_size_of_n@$0BA@@std@@YA_K_K@Z ; std::_Get_size_of_n<16>
  00047	48 8b c8	 mov	 rcx, rax
  0004a	e8 00 00 00 00	 call	 ??$_Allocate@$0BA@U_Default_allocate_traits@std@@$0A@@std@@YAPEAX_K@Z ; std::_Allocate<16,std::_Default_allocate_traits,0>

; 872  :     }

  0004f	48 8d a5 c8 00
	00 00		 lea	 rsp, QWORD PTR [rbp+200]
  00056	5f		 pop	 rdi
  00057	5d		 pop	 rbp
  00058	c3		 ret	 0
?allocate@?$allocator@U_Container_proxy@std@@@std@@QEAAPEAU_Container_proxy@2@_K@Z ENDP ; std::allocator<std::_Container_proxy>::allocate
_TEXT	ENDS
; Function compile flags: /Odtp /RTCsu /ZI
; File C:\Program Files (x86)\Microsoft Visual Studio\2019\Enterprise\VC\Tools\MSVC\14.23.28105\include\list
;	COMDAT ??$_Emplace@AEBQEAVObjector@@@?$list@PEAVObjector@@V?$allocator@PEAVObjector@@@std@@@std@@QEAAPEAU?$_List_node@PEAVObjector@@PEAX@1@QEAU21@AEBQEAVObjector@@@Z
_TEXT	SEGMENT
_Mysize$ = 8
_Op$ = 40
$T4 = 280
tv80 = 296
tv82 = 304
__$ArrayPad$ = 312
this$ = 352
_Where$ = 360
<_Val_0>$ = 368
??$_Emplace@AEBQEAVObjector@@@?$list@PEAVObjector@@V?$allocator@PEAVObjector@@@std@@@std@@QEAAPEAU?$_List_node@PEAVObjector@@PEAX@1@QEAU21@AEBQEAVObjector@@@Z PROC ; std::list<Objector *,std::allocator<Objector *> >::_Emplace<Objector * const &>, COMDAT

; 950  :     _Nodeptr _Emplace(const _Nodeptr _Where, _Valty&&... _Val) { // insert element at _Where

$LN5:
  00000	4c 89 44 24 18	 mov	 QWORD PTR [rsp+24], r8
  00005	48 89 54 24 10	 mov	 QWORD PTR [rsp+16], rdx
  0000a	48 89 4c 24 08	 mov	 QWORD PTR [rsp+8], rcx
  0000f	55		 push	 rbp
  00010	57		 push	 rdi
  00011	48 81 ec 68 01
	00 00		 sub	 rsp, 360		; 00000168H
  00018	48 8d 6c 24 20	 lea	 rbp, QWORD PTR [rsp+32]
  0001d	48 8b fc	 mov	 rdi, rsp
  00020	b9 5a 00 00 00	 mov	 ecx, 90			; 0000005aH
  00025	b8 cc cc cc cc	 mov	 eax, -858993460		; ccccccccH
  0002a	f3 ab		 rep stosd
  0002c	48 8b 8c 24 88
	01 00 00	 mov	 rcx, QWORD PTR [rsp+392]
  00034	48 8b 05 00 00
	00 00		 mov	 rax, QWORD PTR __security_cookie
  0003b	48 33 c5	 xor	 rax, rbp
  0003e	48 89 85 38 01
	00 00		 mov	 QWORD PTR __$ArrayPad$[rbp], rax
  00045	48 8d 0d 00 00
	00 00		 lea	 rcx, OFFSET FLAT:__2EF0BD34_list
  0004c	e8 00 00 00 00	 call	 __CheckForDebuggerJustMyCode

; 951  :         size_type& _Mysize = _Mypair._Myval2._Mysize;

  00051	48 8b 85 60 01
	00 00		 mov	 rax, QWORD PTR this$[rbp]
  00058	48 83 c0 10	 add	 rax, 16
  0005c	48 89 45 08	 mov	 QWORD PTR _Mysize$[rbp], rax

; 952  :         if (_Mysize == max_size()) {

  00060	48 8b 8d 60 01
	00 00		 mov	 rcx, QWORD PTR this$[rbp]
  00067	e8 00 00 00 00	 call	 ?max_size@?$list@PEAVObjector@@V?$allocator@PEAVObjector@@@std@@@std@@QEBA_KXZ ; std::list<Objector *,std::allocator<Objector *> >::max_size
  0006c	48 8b 4d 08	 mov	 rcx, QWORD PTR _Mysize$[rbp]
  00070	48 39 01	 cmp	 QWORD PTR [rcx], rax
  00073	75 0c		 jne	 SHORT $LN2@Emplace

; 953  :             _Xlength_error("list<T> too long");

  00075	48 8d 0d 00 00
	00 00		 lea	 rcx, OFFSET FLAT:??_C@_0BB@MOGOBHAF@list?$DMT?$DO?5too?5long@
  0007c	e8 00 00 00 00	 call	 ?_Xlength_error@std@@YAXPEBD@Z ; std::_Xlength_error
$LN2@Emplace:

; 954  :         }
; 955  : 
; 956  :         _List_node_emplace_op2<_Alnode> _Op{_Getal(), _STD forward<_Valty>(_Val)...};

  00081	48 8b 8d 60 01
	00 00		 mov	 rcx, QWORD PTR this$[rbp]
  00088	e8 00 00 00 00	 call	 ?_Getal@?$list@PEAVObjector@@V?$allocator@PEAVObjector@@@std@@@std@@AEAAAEAV?$allocator@U?$_List_node@PEAVObjector@@PEAX@std@@@2@XZ ; std::list<Objector *,std::allocator<Objector *> >::_Getal
  0008d	48 89 85 28 01
	00 00		 mov	 QWORD PTR tv80[rbp], rax
  00094	48 8b 8d 70 01
	00 00		 mov	 rcx, QWORD PTR <_Val_0>$[rbp]
  0009b	e8 00 00 00 00	 call	 ??$forward@AEBQEAVObjector@@@std@@YAAEBQEAVObjector@@AEBQEAV1@@Z ; std::forward<Objector * const &>
  000a0	48 89 85 30 01
	00 00		 mov	 QWORD PTR tv82[rbp], rax
  000a7	4c 8b 85 30 01
	00 00		 mov	 r8, QWORD PTR tv82[rbp]
  000ae	48 8b 95 28 01
	00 00		 mov	 rdx, QWORD PTR tv80[rbp]
  000b5	48 8d 4d 28	 lea	 rcx, QWORD PTR _Op$[rbp]
  000b9	e8 00 00 00 00	 call	 ??$?0AEBQEAVObjector@@@?$_List_node_emplace_op2@V?$allocator@U?$_List_node@PEAVObjector@@PEAX@std@@@std@@@std@@QEAA@AEAV?$allocator@U?$_List_node@PEAVObjector@@PEAX@std@@@1@AEBQEAVObjector@@@Z ; std::_List_node_emplace_op2<std::allocator<std::_List_node<Objector *,void *> > >::_List_node_emplace_op2<std::allocator<std::_List_node<Objector *,void *> > ><Objector * const &>

; 957  :         ++_Mysize;

  000be	48 8b 45 08	 mov	 rax, QWORD PTR _Mysize$[rbp]
  000c2	48 8b 00	 mov	 rax, QWORD PTR [rax]
  000c5	48 ff c0	 inc	 rax
  000c8	48 8b 4d 08	 mov	 rcx, QWORD PTR _Mysize$[rbp]
  000cc	48 89 01	 mov	 QWORD PTR [rcx], rax

; 958  :         return _Op._Transfer_before(_Where);

  000cf	48 8b 95 68 01
	00 00		 mov	 rdx, QWORD PTR _Where$[rbp]
  000d6	48 8d 4d 28	 lea	 rcx, QWORD PTR _Op$[rbp]
  000da	e8 00 00 00 00	 call	 ?_Transfer_before@?$_List_node_emplace_op2@V?$allocator@U?$_List_node@PEAVObjector@@PEAX@std@@@std@@@std@@QEAAPEAU?$_List_node@PEAVObjector@@PEAX@2@QEAU32@@Z ; std::_List_node_emplace_op2<std::allocator<std::_List_node<Objector *,void *> > >::_Transfer_before
  000df	48 89 85 18 01
	00 00		 mov	 QWORD PTR $T4[rbp], rax
  000e6	48 8d 4d 28	 lea	 rcx, QWORD PTR _Op$[rbp]
  000ea	e8 00 00 00 00	 call	 ??1?$_List_node_emplace_op2@V?$allocator@U?$_List_node@PEAVObjector@@PEAX@std@@@std@@@std@@QEAA@XZ ; std::_List_node_emplace_op2<std::allocator<std::_List_node<Objector *,void *> > >::~_List_node_emplace_op2<std::allocator<std::_List_node<Objector *,void *> > >
  000ef	48 8b 85 18 01
	00 00		 mov	 rax, QWORD PTR $T4[rbp]

; 959  :     }

  000f6	48 8b f8	 mov	 rdi, rax
  000f9	48 8d 4d e0	 lea	 rcx, QWORD PTR [rbp-32]
  000fd	48 8d 15 00 00
	00 00		 lea	 rdx, OFFSET FLAT:??$_Emplace@AEBQEAVObjector@@@?$list@PEAVObjector@@V?$allocator@PEAVObjector@@@std@@@std@@QEAAPEAU?$_List_node@PEAVObjector@@PEAX@1@QEAU21@AEBQEAVObjector@@@Z$rtcFrameData
  00104	e8 00 00 00 00	 call	 _RTC_CheckStackVars
  00109	48 8b c7	 mov	 rax, rdi
  0010c	48 8b 8d 38 01
	00 00		 mov	 rcx, QWORD PTR __$ArrayPad$[rbp]
  00113	48 33 cd	 xor	 rcx, rbp
  00116	e8 00 00 00 00	 call	 __security_check_cookie
  0011b	48 8d a5 48 01
	00 00		 lea	 rsp, QWORD PTR [rbp+328]
  00122	5f		 pop	 rdi
  00123	5d		 pop	 rbp
  00124	c3		 ret	 0
??$_Emplace@AEBQEAVObjector@@@?$list@PEAVObjector@@V?$allocator@PEAVObjector@@@std@@@std@@QEAAPEAU?$_List_node@PEAVObjector@@PEAX@1@QEAU21@AEBQEAVObjector@@@Z ENDP ; std::list<Objector *,std::allocator<Objector *> >::_Emplace<Objector * const &>
_TEXT	ENDS
; Function compile flags: /Odtp /RTCsu /ZI
; File C:\Program Files (x86)\Microsoft Visual Studio\2019\Enterprise\VC\Tools\MSVC\14.23.28105\include\utility
;	COMDAT ??$exchange@PEAU?$_List_node@PEAVObjector@@PEAX@std@@PEAU12@@std@@YAPEAU?$_List_node@PEAVObjector@@PEAX@0@AEAPEAU10@$$QEAPEAU10@@Z
_TEXT	SEGMENT
_Old_val$ = 8
_Val$ = 256
_New_val$ = 264
??$exchange@PEAU?$_List_node@PEAVObjector@@PEAX@std@@PEAU12@@std@@YAPEAU?$_List_node@PEAVObjector@@PEAX@0@AEAPEAU10@$$QEAPEAU10@@Z PROC ; std::exchange<std::_List_node<Objector *,void *> *,std::_List_node<Objector *,void *> *>, COMDAT

; 526  : _Ty exchange(_Ty& _Val, _Other&& _New_val) { // assign _New_val to _Val, return previous _Val

$LN3:
  00000	48 89 54 24 10	 mov	 QWORD PTR [rsp+16], rdx
  00005	48 89 4c 24 08	 mov	 QWORD PTR [rsp+8], rcx
  0000a	55		 push	 rbp
  0000b	57		 push	 rdi
  0000c	48 81 ec 08 01
	00 00		 sub	 rsp, 264		; 00000108H
  00013	48 8d 6c 24 20	 lea	 rbp, QWORD PTR [rsp+32]
  00018	48 8b fc	 mov	 rdi, rsp
  0001b	b9 42 00 00 00	 mov	 ecx, 66			; 00000042H
  00020	b8 cc cc cc cc	 mov	 eax, -858993460		; ccccccccH
  00025	f3 ab		 rep stosd
  00027	48 8b 8c 24 28
	01 00 00	 mov	 rcx, QWORD PTR [rsp+296]
  0002f	48 8d 0d 00 00
	00 00		 lea	 rcx, OFFSET FLAT:__18CBD245_utility
  00036	e8 00 00 00 00	 call	 __CheckForDebuggerJustMyCode

; 527  :     _Ty _Old_val = static_cast<_Ty&&>(_Val);

  0003b	48 8b 85 00 01
	00 00		 mov	 rax, QWORD PTR _Val$[rbp]
  00042	48 8b 00	 mov	 rax, QWORD PTR [rax]
  00045	48 89 45 08	 mov	 QWORD PTR _Old_val$[rbp], rax

; 528  :     _Val         = static_cast<_Other&&>(_New_val);

  00049	48 8b 85 00 01
	00 00		 mov	 rax, QWORD PTR _Val$[rbp]
  00050	48 8b 8d 08 01
	00 00		 mov	 rcx, QWORD PTR _New_val$[rbp]
  00057	48 8b 09	 mov	 rcx, QWORD PTR [rcx]
  0005a	48 89 08	 mov	 QWORD PTR [rax], rcx

; 529  :     return _Old_val;

  0005d	48 8b 45 08	 mov	 rax, QWORD PTR _Old_val$[rbp]

; 530  : }

  00061	48 8d a5 e8 00
	00 00		 lea	 rsp, QWORD PTR [rbp+232]
  00068	5f		 pop	 rdi
  00069	5d		 pop	 rbp
  0006a	c3		 ret	 0
??$exchange@PEAU?$_List_node@PEAVObjector@@PEAX@std@@PEAU12@@std@@YAPEAU?$_List_node@PEAVObjector@@PEAX@0@AEAPEAU10@$$QEAPEAU10@@Z ENDP ; std::exchange<std::_List_node<Objector *,void *> *,std::_List_node<Objector *,void *> *>
_TEXT	ENDS
; Function compile flags: /Odtp /RTCsu /ZI
; File C:\Program Files (x86)\Microsoft Visual Studio\2019\Enterprise\VC\Tools\MSVC\14.23.28105\include\xmemory
;	COMDAT ??$destroy@PEAVObjector@@@?$_Default_allocator_traits@V?$allocator@U?$_List_node@PEAVObjector@@PEAX@std@@@std@@@std@@SAXAEAV?$allocator@U?$_List_node@PEAVObjector@@PEAX@std@@@1@QEAPEAVObjector@@@Z
_TEXT	SEGMENT
__formal$ = 224
_Ptr$ = 232
??$destroy@PEAVObjector@@@?$_Default_allocator_traits@V?$allocator@U?$_List_node@PEAVObjector@@PEAX@std@@@std@@@std@@SAXAEAV?$allocator@U?$_List_node@PEAVObjector@@PEAX@std@@@1@QEAPEAVObjector@@@Z PROC ; std::_Default_allocator_traits<std::allocator<std::_List_node<Objector *,void *> > >::destroy<Objector *>, COMDAT

; 762  :     static void destroy(_Alloc&, _Uty* const _Ptr) {

$LN3:
  00000	48 89 54 24 10	 mov	 QWORD PTR [rsp+16], rdx
  00005	48 89 4c 24 08	 mov	 QWORD PTR [rsp+8], rcx
  0000a	55		 push	 rbp
  0000b	57		 push	 rdi
  0000c	48 81 ec e8 00
	00 00		 sub	 rsp, 232		; 000000e8H
  00013	48 8d 6c 24 20	 lea	 rbp, QWORD PTR [rsp+32]
  00018	48 8b fc	 mov	 rdi, rsp
  0001b	b9 3a 00 00 00	 mov	 ecx, 58			; 0000003aH
  00020	b8 cc cc cc cc	 mov	 eax, -858993460		; ccccccccH
  00025	f3 ab		 rep stosd
  00027	48 8b 8c 24 08
	01 00 00	 mov	 rcx, QWORD PTR [rsp+264]
  0002f	48 8d 0d 00 00
	00 00		 lea	 rcx, OFFSET FLAT:__725EB186_xmemory
  00036	e8 00 00 00 00	 call	 __CheckForDebuggerJustMyCode

; 763  :         _Ptr->~_Uty();
; 764  :     }

  0003b	48 8d a5 c8 00
	00 00		 lea	 rsp, QWORD PTR [rbp+200]
  00042	5f		 pop	 rdi
  00043	5d		 pop	 rbp
  00044	c3		 ret	 0
??$destroy@PEAVObjector@@@?$_Default_allocator_traits@V?$allocator@U?$_List_node@PEAVObjector@@PEAX@std@@@std@@@std@@SAXAEAV?$allocator@U?$_List_node@PEAVObjector@@PEAX@std@@@1@QEAPEAVObjector@@@Z ENDP ; std::_Default_allocator_traits<std::allocator<std::_List_node<Objector *,void *> > >::destroy<Objector *>
_TEXT	ENDS
; Function compile flags: /Odtp /RTCsu /ZI
; File C:\Program Files (x86)\Microsoft Visual Studio\2019\Enterprise\VC\Tools\MSVC\14.23.28105\include\xstddef
;	COMDAT ??$addressof@PEAVObjector@@@std@@YAPEAPEAVObjector@@AEAPEAV1@@Z
_TEXT	SEGMENT
_Val$ = 224
??$addressof@PEAVObjector@@@std@@YAPEAPEAVObjector@@AEAPEAV1@@Z PROC ; std::addressof<Objector *>, COMDAT

; 279  : _NODISCARD constexpr _Ty* addressof(_Ty& _Val) noexcept { // return address of _Val

$LN3:
  00000	48 89 4c 24 08	 mov	 QWORD PTR [rsp+8], rcx
  00005	55		 push	 rbp
  00006	57		 push	 rdi
  00007	48 81 ec e8 00
	00 00		 sub	 rsp, 232		; 000000e8H
  0000e	48 8d 6c 24 20	 lea	 rbp, QWORD PTR [rsp+32]
  00013	48 8b fc	 mov	 rdi, rsp
  00016	b9 3a 00 00 00	 mov	 ecx, 58			; 0000003aH
  0001b	b8 cc cc cc cc	 mov	 eax, -858993460		; ccccccccH
  00020	f3 ab		 rep stosd
  00022	48 8b 8c 24 08
	01 00 00	 mov	 rcx, QWORD PTR [rsp+264]
  0002a	48 8d 0d 00 00
	00 00		 lea	 rcx, OFFSET FLAT:__EFD44557_xstddef
  00031	e8 00 00 00 00	 call	 __CheckForDebuggerJustMyCode
  00036	90		 npad	 1

; 280  :     return __builtin_addressof(_Val);

  00037	48 8b 85 e0 00
	00 00		 mov	 rax, QWORD PTR _Val$[rbp]

; 281  : }

  0003e	48 8d a5 c8 00
	00 00		 lea	 rsp, QWORD PTR [rbp+200]
  00045	5f		 pop	 rdi
  00046	5d		 pop	 rbp
  00047	c3		 ret	 0
??$addressof@PEAVObjector@@@std@@YAPEAPEAVObjector@@AEAPEAV1@@Z ENDP ; std::addressof<Objector *>
_TEXT	ENDS
; Function compile flags: /Odtp /RTCsu /ZI
; File C:\Program Files (x86)\Microsoft Visual Studio\2019\Enterprise\VC\Tools\MSVC\14.23.28105\include\xmemory
;	COMDAT ??$destroy@PEAU?$_List_node@PEAVObjector@@PEAX@std@@@?$_Default_allocator_traits@V?$allocator@U?$_List_node@PEAVObjector@@PEAX@std@@@std@@@std@@SAXAEAV?$allocator@U?$_List_node@PEAVObjector@@PEAX@std@@@1@QEAPEAU?$_List_node@PEAVObjector@@PEAX@1@@Z
_TEXT	SEGMENT
__formal$ = 224
_Ptr$ = 232
??$destroy@PEAU?$_List_node@PEAVObjector@@PEAX@std@@@?$_Default_allocator_traits@V?$allocator@U?$_List_node@PEAVObjector@@PEAX@std@@@std@@@std@@SAXAEAV?$allocator@U?$_List_node@PEAVObjector@@PEAX@std@@@1@QEAPEAU?$_List_node@PEAVObjector@@PEAX@1@@Z PROC ; std::_Default_allocator_traits<std::allocator<std::_List_node<Objector *,void *> > >::destroy<std::_List_node<Objector *,void *> *>, COMDAT

; 762  :     static void destroy(_Alloc&, _Uty* const _Ptr) {

$LN3:
  00000	48 89 54 24 10	 mov	 QWORD PTR [rsp+16], rdx
  00005	48 89 4c 24 08	 mov	 QWORD PTR [rsp+8], rcx
  0000a	55		 push	 rbp
  0000b	57		 push	 rdi
  0000c	48 81 ec e8 00
	00 00		 sub	 rsp, 232		; 000000e8H
  00013	48 8d 6c 24 20	 lea	 rbp, QWORD PTR [rsp+32]
  00018	48 8b fc	 mov	 rdi, rsp
  0001b	b9 3a 00 00 00	 mov	 ecx, 58			; 0000003aH
  00020	b8 cc cc cc cc	 mov	 eax, -858993460		; ccccccccH
  00025	f3 ab		 rep stosd
  00027	48 8b 8c 24 08
	01 00 00	 mov	 rcx, QWORD PTR [rsp+264]
  0002f	48 8d 0d 00 00
	00 00		 lea	 rcx, OFFSET FLAT:__725EB186_xmemory
  00036	e8 00 00 00 00	 call	 __CheckForDebuggerJustMyCode

; 763  :         _Ptr->~_Uty();
; 764  :     }

  0003b	48 8d a5 c8 00
	00 00		 lea	 rsp, QWORD PTR [rbp+200]
  00042	5f		 pop	 rdi
  00043	5d		 pop	 rbp
  00044	c3		 ret	 0
??$destroy@PEAU?$_List_node@PEAVObjector@@PEAX@std@@@?$_Default_allocator_traits@V?$allocator@U?$_List_node@PEAVObjector@@PEAX@std@@@std@@@std@@SAXAEAV?$allocator@U?$_List_node@PEAVObjector@@PEAX@std@@@1@QEAPEAU?$_List_node@PEAVObjector@@PEAX@1@@Z ENDP ; std::_Default_allocator_traits<std::allocator<std::_List_node<Objector *,void *> > >::destroy<std::_List_node<Objector *,void *> *>
_TEXT	ENDS
; Function compile flags: /Odtp /RTCsu /ZI
; File C:\Program Files (x86)\Microsoft Visual Studio\2019\Enterprise\VC\Tools\MSVC\14.23.28105\include\xstddef
;	COMDAT ??$addressof@PEAU?$_List_node@PEAVObjector@@PEAX@std@@@std@@YAPEAPEAU?$_List_node@PEAVObjector@@PEAX@0@AEAPEAU10@@Z
_TEXT	SEGMENT
_Val$ = 224
??$addressof@PEAU?$_List_node@PEAVObjector@@PEAX@std@@@std@@YAPEAPEAU?$_List_node@PEAVObjector@@PEAX@0@AEAPEAU10@@Z PROC ; std::addressof<std::_List_node<Objector *,void *> *>, COMDAT

; 279  : _NODISCARD constexpr _Ty* addressof(_Ty& _Val) noexcept { // return address of _Val

$LN3:
  00000	48 89 4c 24 08	 mov	 QWORD PTR [rsp+8], rcx
  00005	55		 push	 rbp
  00006	57		 push	 rdi
  00007	48 81 ec e8 00
	00 00		 sub	 rsp, 232		; 000000e8H
  0000e	48 8d 6c 24 20	 lea	 rbp, QWORD PTR [rsp+32]
  00013	48 8b fc	 mov	 rdi, rsp
  00016	b9 3a 00 00 00	 mov	 ecx, 58			; 0000003aH
  0001b	b8 cc cc cc cc	 mov	 eax, -858993460		; ccccccccH
  00020	f3 ab		 rep stosd
  00022	48 8b 8c 24 08
	01 00 00	 mov	 rcx, QWORD PTR [rsp+264]
  0002a	48 8d 0d 00 00
	00 00		 lea	 rcx, OFFSET FLAT:__EFD44557_xstddef
  00031	e8 00 00 00 00	 call	 __CheckForDebuggerJustMyCode
  00036	90		 npad	 1

; 280  :     return __builtin_addressof(_Val);

  00037	48 8b 85 e0 00
	00 00		 mov	 rax, QWORD PTR _Val$[rbp]

; 281  : }

  0003e	48 8d a5 c8 00
	00 00		 lea	 rsp, QWORD PTR [rbp+200]
  00045	5f		 pop	 rdi
  00046	5d		 pop	 rbp
  00047	c3		 ret	 0
??$addressof@PEAU?$_List_node@PEAVObjector@@PEAX@std@@@std@@YAPEAPEAU?$_List_node@PEAVObjector@@PEAX@0@AEAPEAU10@@Z ENDP ; std::addressof<std::_List_node<Objector *,void *> *>
_TEXT	ENDS
; Function compile flags: /Odtp /RTCsu /ZI
; File C:\Program Files (x86)\Microsoft Visual Studio\2019\Enterprise\VC\Tools\MSVC\14.23.28105\include\ostream
;	COMDAT ??$endl@DU?$char_traits@D@std@@@std@@YAAEAV?$basic_ostream@DU?$char_traits@D@std@@@0@AEAV10@@Z
_TEXT	SEGMENT
tv80 = 192
_Ostr$ = 240
??$endl@DU?$char_traits@D@std@@@std@@YAAEAV?$basic_ostream@DU?$char_traits@D@std@@@0@AEAV10@@Z PROC ; std::endl<char,std::char_traits<char> >, COMDAT

; 950  :     basic_ostream<_Elem, _Traits>& _Ostr) { // insert newline and flush stream

$LN3:
  00000	48 89 4c 24 08	 mov	 QWORD PTR [rsp+8], rcx
  00005	55		 push	 rbp
  00006	57		 push	 rdi
  00007	48 81 ec f8 00
	00 00		 sub	 rsp, 248		; 000000f8H
  0000e	48 8d 6c 24 20	 lea	 rbp, QWORD PTR [rsp+32]
  00013	48 8b fc	 mov	 rdi, rsp
  00016	b9 3e 00 00 00	 mov	 ecx, 62			; 0000003eH
  0001b	b8 cc cc cc cc	 mov	 eax, -858993460		; ccccccccH
  00020	f3 ab		 rep stosd
  00022	48 8b 8c 24 18
	01 00 00	 mov	 rcx, QWORD PTR [rsp+280]
  0002a	48 8d 0d 00 00
	00 00		 lea	 rcx, OFFSET FLAT:__CAA399EF_ostream
  00031	e8 00 00 00 00	 call	 __CheckForDebuggerJustMyCode

; 951  :     _Ostr.put(_Ostr.widen('\n'));

  00036	48 8b 85 f0 00
	00 00		 mov	 rax, QWORD PTR _Ostr$[rbp]
  0003d	48 8b 00	 mov	 rax, QWORD PTR [rax]
  00040	48 63 40 04	 movsxd	 rax, DWORD PTR [rax+4]
  00044	48 8b 8d f0 00
	00 00		 mov	 rcx, QWORD PTR _Ostr$[rbp]
  0004b	48 03 c8	 add	 rcx, rax
  0004e	48 8b c1	 mov	 rax, rcx
  00051	48 89 85 c0 00
	00 00		 mov	 QWORD PTR tv80[rbp], rax
  00058	b2 0a		 mov	 dl, 10
  0005a	48 8b 8d c0 00
	00 00		 mov	 rcx, QWORD PTR tv80[rbp]
  00061	ff 15 00 00 00
	00		 call	 QWORD PTR __imp_?widen@?$basic_ios@DU?$char_traits@D@std@@@std@@QEBADD@Z
  00067	0f b6 d0	 movzx	 edx, al
  0006a	48 8b 8d f0 00
	00 00		 mov	 rcx, QWORD PTR _Ostr$[rbp]
  00071	ff 15 00 00 00
	00		 call	 QWORD PTR __imp_?put@?$basic_ostream@DU?$char_traits@D@std@@@std@@QEAAAEAV12@D@Z

; 952  :     _Ostr.flush();

  00077	48 8b 8d f0 00
	00 00		 mov	 rcx, QWORD PTR _Ostr$[rbp]
  0007e	ff 15 00 00 00
	00		 call	 QWORD PTR __imp_?flush@?$basic_ostream@DU?$char_traits@D@std@@@std@@QEAAAEAV12@XZ

; 953  :     return _Ostr;

  00084	48 8b 85 f0 00
	00 00		 mov	 rax, QWORD PTR _Ostr$[rbp]

; 954  : }

  0008b	48 8d a5 d8 00
	00 00		 lea	 rsp, QWORD PTR [rbp+216]
  00092	5f		 pop	 rdi
  00093	5d		 pop	 rbp
  00094	c3		 ret	 0
??$endl@DU?$char_traits@D@std@@@std@@YAAEAV?$basic_ostream@DU?$char_traits@D@std@@@0@AEAV10@@Z ENDP ; std::endl<char,std::char_traits<char> >
_TEXT	ENDS
; Function compile flags: /Odtp /RTCsu /ZI
; File C:\Program Files (x86)\Microsoft Visual Studio\2019\Enterprise\VC\Tools\MSVC\14.23.28105\include\ostream
;	COMDAT ??$?6U?$char_traits@D@std@@@std@@YAAEAV?$basic_ostream@DU?$char_traits@D@std@@@0@AEAV10@PEBD@Z
_TEXT	SEGMENT
_State$ = 4
_Count$ = 40
_Pad$ = 72
_Ok$ = 104
$T4 = 340
$T5 = 372
$T6 = 404
$T7 = 436
$T8 = 472
tv139 = 484
tv316 = 488
tv314 = 488
tv311 = 488
tv306 = 488
tv291 = 488
tv277 = 488
tv137 = 488
tv256 = 496
tv219 = 496
tv194 = 496
tv317 = 504
tv315 = 504
tv312 = 504
tv254 = 505
tv192 = 505
tv318 = 508
tv313 = 508
__$ArrayPad$ = 512
_Ostr$ = 560
_Val$ = 568
??$?6U?$char_traits@D@std@@@std@@YAAEAV?$basic_ostream@DU?$char_traits@D@std@@@0@AEAV10@PEBD@Z PROC ; std::operator<<<std::char_traits<char> >, COMDAT

; 738  :     const char* _Val) { // insert NTBS into char stream

$LN25:
  00000	48 89 54 24 10	 mov	 QWORD PTR [rsp+16], rdx
  00005	48 89 4c 24 08	 mov	 QWORD PTR [rsp+8], rcx
  0000a	55		 push	 rbp
  0000b	57		 push	 rdi
  0000c	48 81 ec 38 02
	00 00		 sub	 rsp, 568		; 00000238H
  00013	48 8d 6c 24 20	 lea	 rbp, QWORD PTR [rsp+32]
  00018	48 8b fc	 mov	 rdi, rsp
  0001b	b9 8e 00 00 00	 mov	 ecx, 142		; 0000008eH
  00020	b8 cc cc cc cc	 mov	 eax, -858993460		; ccccccccH
  00025	f3 ab		 rep stosd
  00027	48 8b 8c 24 58
	02 00 00	 mov	 rcx, QWORD PTR [rsp+600]
  0002f	48 8b 05 00 00
	00 00		 mov	 rax, QWORD PTR __security_cookie
  00036	48 33 c5	 xor	 rax, rbp
  00039	48 89 85 00 02
	00 00		 mov	 QWORD PTR __$ArrayPad$[rbp], rax
  00040	48 8d 0d 00 00
	00 00		 lea	 rcx, OFFSET FLAT:__CAA399EF_ostream
  00047	e8 00 00 00 00	 call	 __CheckForDebuggerJustMyCode

; 739  :     using _Elem = char;
; 740  :     using _Myos = basic_ostream<_Elem, _Traits>;
; 741  : 
; 742  :     ios_base::iostate _State = ios_base::goodbit;

  0004c	c7 45 04 00 00
	00 00		 mov	 DWORD PTR _State$[rbp], 0

; 743  :     streamsize _Count        = static_cast<streamsize>(_Traits::length(_Val));

  00053	48 8b 8d 38 02
	00 00		 mov	 rcx, QWORD PTR _Val$[rbp]
  0005a	e8 00 00 00 00	 call	 ?length@?$_Narrow_char_traits@DH@std@@SA_KQEBD@Z ; std::_Narrow_char_traits<char,int>::length
  0005f	48 89 45 28	 mov	 QWORD PTR _Count$[rbp], rax

; 744  :     streamsize _Pad          = _Ostr.width() <= 0 || _Ostr.width() <= _Count ? 0 : _Ostr.width() - _Count;

  00063	48 8b 85 30 02
	00 00		 mov	 rax, QWORD PTR _Ostr$[rbp]
  0006a	48 8b 00	 mov	 rax, QWORD PTR [rax]
  0006d	48 63 40 04	 movsxd	 rax, DWORD PTR [rax+4]
  00071	48 8b 8d 30 02
	00 00		 mov	 rcx, QWORD PTR _Ostr$[rbp]
  00078	48 03 c8	 add	 rcx, rax
  0007b	48 8b c1	 mov	 rax, rcx
  0007e	48 8b c8	 mov	 rcx, rax
  00081	ff 15 00 00 00
	00		 call	 QWORD PTR __imp_?width@ios_base@std@@QEBA_JXZ
  00087	48 85 c0	 test	 rax, rax
  0008a	7e 5b		 jle	 SHORT $LN17@operator
  0008c	48 8b 85 30 02
	00 00		 mov	 rax, QWORD PTR _Ostr$[rbp]
  00093	48 8b 00	 mov	 rax, QWORD PTR [rax]
  00096	48 63 40 04	 movsxd	 rax, DWORD PTR [rax+4]
  0009a	48 8b 8d 30 02
	00 00		 mov	 rcx, QWORD PTR _Ostr$[rbp]
  000a1	48 03 c8	 add	 rcx, rax
  000a4	48 8b c1	 mov	 rax, rcx
  000a7	48 8b c8	 mov	 rcx, rax
  000aa	ff 15 00 00 00
	00		 call	 QWORD PTR __imp_?width@ios_base@std@@QEBA_JXZ
  000b0	48 3b 45 28	 cmp	 rax, QWORD PTR _Count$[rbp]
  000b4	7e 31		 jle	 SHORT $LN17@operator
  000b6	48 8b 85 30 02
	00 00		 mov	 rax, QWORD PTR _Ostr$[rbp]
  000bd	48 8b 00	 mov	 rax, QWORD PTR [rax]
  000c0	48 63 40 04	 movsxd	 rax, DWORD PTR [rax+4]
  000c4	48 8b 8d 30 02
	00 00		 mov	 rcx, QWORD PTR _Ostr$[rbp]
  000cb	48 03 c8	 add	 rcx, rax
  000ce	48 8b c1	 mov	 rax, rcx
  000d1	48 8b c8	 mov	 rcx, rax
  000d4	ff 15 00 00 00
	00		 call	 QWORD PTR __imp_?width@ios_base@std@@QEBA_JXZ
  000da	48 2b 45 28	 sub	 rax, QWORD PTR _Count$[rbp]
  000de	48 89 85 e8 01
	00 00		 mov	 QWORD PTR tv137[rbp], rax
  000e5	eb 0b		 jmp	 SHORT $LN18@operator
$LN17@operator:
  000e7	48 c7 85 e8 01
	00 00 00 00 00
	00		 mov	 QWORD PTR tv137[rbp], 0
$LN18@operator:
  000f2	48 8b 85 e8 01
	00 00		 mov	 rax, QWORD PTR tv137[rbp]
  000f9	48 89 45 48	 mov	 QWORD PTR _Pad$[rbp], rax

; 745  :     const typename _Myos::sentry _Ok(_Ostr);

  000fd	48 8b 95 30 02
	00 00		 mov	 rdx, QWORD PTR _Ostr$[rbp]
  00104	48 8d 4d 68	 lea	 rcx, QWORD PTR _Ok$[rbp]
  00108	e8 00 00 00 00	 call	 ??0sentry@?$basic_ostream@DU?$char_traits@D@std@@@std@@QEAA@AEAV12@@Z ; std::basic_ostream<char,std::char_traits<char> >::sentry::sentry
  0010d	90		 npad	 1

; 746  : 
; 747  :     if (!_Ok) {

  0010e	48 8d 4d 68	 lea	 rcx, QWORD PTR _Ok$[rbp]
  00112	e8 00 00 00 00	 call	 ??Bsentry@?$basic_ostream@DU?$char_traits@D@std@@@std@@QEBA_NXZ ; std::basic_ostream<char,std::char_traits<char> >::sentry::operator bool
  00117	0f b6 c0	 movzx	 eax, al
  0011a	85 c0		 test	 eax, eax
  0011c	75 0e		 jne	 SHORT $LN8@operator

; 748  :         _State |= ios_base::badbit;

  0011e	8b 45 04	 mov	 eax, DWORD PTR _State$[rbp]
  00121	83 c8 04	 or	 eax, 4
  00124	89 45 04	 mov	 DWORD PTR _State$[rbp], eax

; 749  :     } else { // state okay, insert

  00127	e9 b6 02 00 00	 jmp	 $LN9@operator
$LN8@operator:

; 750  :         _TRY_IO_BEGIN
; 751  :         if ((_Ostr.flags() & ios_base::adjustfield) != ios_base::left) {

  0012c	48 8b 85 30 02
	00 00		 mov	 rax, QWORD PTR _Ostr$[rbp]
  00133	48 8b 00	 mov	 rax, QWORD PTR [rax]
  00136	48 63 40 04	 movsxd	 rax, DWORD PTR [rax+4]
  0013a	48 8b 8d 30 02
	00 00		 mov	 rcx, QWORD PTR _Ostr$[rbp]
  00141	48 03 c8	 add	 rcx, rax
  00144	48 8b c1	 mov	 rax, rcx
  00147	48 8b c8	 mov	 rcx, rax
  0014a	ff 15 00 00 00
	00		 call	 QWORD PTR __imp_?flags@ios_base@std@@QEBAHXZ
  00150	89 85 e4 01 00
	00		 mov	 DWORD PTR tv139[rbp], eax
  00156	8b 85 e4 01 00
	00		 mov	 eax, DWORD PTR tv139[rbp]
  0015c	25 c0 01 00 00	 and	 eax, 448		; 000001c0H
  00161	83 f8 40	 cmp	 eax, 64			; 00000040H
  00164	0f 84 e3 00 00
	00		 je	 $LN11@operator

; 752  :             for (; 0 < _Pad; --_Pad) { // pad on left

  0016a	eb 0b		 jmp	 SHORT $LN4@operator
$LN2@operator:
  0016c	48 8b 45 48	 mov	 rax, QWORD PTR _Pad$[rbp]
  00170	48 ff c8	 dec	 rax
  00173	48 89 45 48	 mov	 QWORD PTR _Pad$[rbp], rax
$LN4@operator:
  00177	48 83 7d 48 00	 cmp	 QWORD PTR _Pad$[rbp], 0
  0017c	0f 8e cb 00 00
	00		 jle	 $LN11@operator

; 753  :                 if (_Traits::eq_int_type(_Traits::eof(), _Ostr.rdbuf()->sputc(_Ostr.fill()))) {

  00182	48 8b 85 30 02
	00 00		 mov	 rax, QWORD PTR _Ostr$[rbp]
  00189	48 8b 00	 mov	 rax, QWORD PTR [rax]
  0018c	48 63 40 04	 movsxd	 rax, DWORD PTR [rax+4]
  00190	48 8b 8d 30 02
	00 00		 mov	 rcx, QWORD PTR _Ostr$[rbp]
  00197	48 03 c8	 add	 rcx, rax
  0019a	48 8b c1	 mov	 rax, rcx
  0019d	48 8b c8	 mov	 rcx, rax
  001a0	ff 15 00 00 00
	00		 call	 QWORD PTR __imp_?rdbuf@?$basic_ios@DU?$char_traits@D@std@@@std@@QEBAPEAV?$basic_streambuf@DU?$char_traits@D@std@@@2@XZ
  001a6	48 89 85 e8 01
	00 00		 mov	 QWORD PTR tv311[rbp], rax
  001ad	48 8b 85 e8 01
	00 00		 mov	 rax, QWORD PTR tv311[rbp]
  001b4	48 89 85 f0 01
	00 00		 mov	 QWORD PTR tv194[rbp], rax
  001bb	48 8b 85 30 02
	00 00		 mov	 rax, QWORD PTR _Ostr$[rbp]
  001c2	48 8b 00	 mov	 rax, QWORD PTR [rax]
  001c5	48 63 40 04	 movsxd	 rax, DWORD PTR [rax+4]
  001c9	48 8b 8d 30 02
	00 00		 mov	 rcx, QWORD PTR _Ostr$[rbp]
  001d0	48 03 c8	 add	 rcx, rax
  001d3	48 8b c1	 mov	 rax, rcx
  001d6	48 8b c8	 mov	 rcx, rax
  001d9	ff 15 00 00 00
	00		 call	 QWORD PTR __imp_?fill@?$basic_ios@DU?$char_traits@D@std@@@std@@QEBADXZ
  001df	88 85 f8 01 00
	00		 mov	 BYTE PTR tv312[rbp], al
  001e5	0f b6 85 f8 01
	00 00		 movzx	 eax, BYTE PTR tv312[rbp]
  001ec	88 85 f9 01 00
	00		 mov	 BYTE PTR tv192[rbp], al
  001f2	0f b6 95 f9 01
	00 00		 movzx	 edx, BYTE PTR tv192[rbp]
  001f9	48 8b 8d f0 01
	00 00		 mov	 rcx, QWORD PTR tv194[rbp]
  00200	ff 15 00 00 00
	00		 call	 QWORD PTR __imp_?sputc@?$basic_streambuf@DU?$char_traits@D@std@@@std@@QEAAHD@Z
  00206	89 85 fc 01 00
	00		 mov	 DWORD PTR tv313[rbp], eax
  0020c	8b 85 fc 01 00
	00		 mov	 eax, DWORD PTR tv313[rbp]
  00212	89 85 54 01 00
	00		 mov	 DWORD PTR $T4[rbp], eax
  00218	e8 00 00 00 00	 call	 ?eof@?$_Narrow_char_traits@DH@std@@SAHXZ ; std::_Narrow_char_traits<char,int>::eof
  0021d	89 85 74 01 00
	00		 mov	 DWORD PTR $T5[rbp], eax
  00223	48 8d 95 54 01
	00 00		 lea	 rdx, QWORD PTR $T4[rbp]
  0022a	48 8d 8d 74 01
	00 00		 lea	 rcx, QWORD PTR $T5[rbp]
  00231	e8 00 00 00 00	 call	 ?eq_int_type@?$_Narrow_char_traits@DH@std@@SA_NAEBH0@Z ; std::_Narrow_char_traits<char,int>::eq_int_type
  00236	0f b6 c0	 movzx	 eax, al
  00239	85 c0		 test	 eax, eax
  0023b	74 0b		 je	 SHORT $LN12@operator

; 754  :                     _State |= ios_base::badbit; // insertion failed, quit

  0023d	8b 45 04	 mov	 eax, DWORD PTR _State$[rbp]
  00240	83 c8 04	 or	 eax, 4
  00243	89 45 04	 mov	 DWORD PTR _State$[rbp], eax

; 755  :                     break;

  00246	eb 05		 jmp	 SHORT $LN11@operator
$LN12@operator:

; 756  :                 }
; 757  :             }

  00248	e9 1f ff ff ff	 jmp	 $LN2@operator
$LN11@operator:

; 758  :         }
; 759  : 
; 760  :         if (_State == ios_base::goodbit && _Ostr.rdbuf()->sputn(_Val, _Count) != _Count) {

  0024d	83 7d 04 00	 cmp	 DWORD PTR _State$[rbp], 0
  00251	75 6e		 jne	 SHORT $LN13@operator
  00253	48 8b 85 30 02
	00 00		 mov	 rax, QWORD PTR _Ostr$[rbp]
  0025a	48 8b 00	 mov	 rax, QWORD PTR [rax]
  0025d	48 63 40 04	 movsxd	 rax, DWORD PTR [rax+4]
  00261	48 8b 8d 30 02
	00 00		 mov	 rcx, QWORD PTR _Ostr$[rbp]
  00268	48 03 c8	 add	 rcx, rax
  0026b	48 8b c1	 mov	 rax, rcx
  0026e	48 8b c8	 mov	 rcx, rax
  00271	ff 15 00 00 00
	00		 call	 QWORD PTR __imp_?rdbuf@?$basic_ios@DU?$char_traits@D@std@@@std@@QEBAPEAV?$basic_streambuf@DU?$char_traits@D@std@@@2@XZ
  00277	48 89 85 e8 01
	00 00		 mov	 QWORD PTR tv314[rbp], rax
  0027e	48 8b 85 e8 01
	00 00		 mov	 rax, QWORD PTR tv314[rbp]
  00285	48 89 85 f0 01
	00 00		 mov	 QWORD PTR tv219[rbp], rax
  0028c	4c 8b 45 28	 mov	 r8, QWORD PTR _Count$[rbp]
  00290	48 8b 95 38 02
	00 00		 mov	 rdx, QWORD PTR _Val$[rbp]
  00297	48 8b 8d f0 01
	00 00		 mov	 rcx, QWORD PTR tv219[rbp]
  0029e	ff 15 00 00 00
	00		 call	 QWORD PTR __imp_?sputn@?$basic_streambuf@DU?$char_traits@D@std@@@std@@QEAA_JPEBD_J@Z
  002a4	48 89 85 f8 01
	00 00		 mov	 QWORD PTR tv315[rbp], rax
  002ab	48 8b 45 28	 mov	 rax, QWORD PTR _Count$[rbp]
  002af	48 39 85 f8 01
	00 00		 cmp	 QWORD PTR tv315[rbp], rax
  002b6	74 09		 je	 SHORT $LN13@operator

; 761  :             _State |= ios_base::badbit;

  002b8	8b 45 04	 mov	 eax, DWORD PTR _State$[rbp]
  002bb	83 c8 04	 or	 eax, 4
  002be	89 45 04	 mov	 DWORD PTR _State$[rbp], eax
$LN13@operator:

; 762  :         }
; 763  : 
; 764  :         if (_State == ios_base::goodbit) {

  002c1	83 7d 04 00	 cmp	 DWORD PTR _State$[rbp], 0
  002c5	0f 85 e3 00 00
	00		 jne	 $LN14@operator

; 765  :             for (; 0 < _Pad; --_Pad) { // pad on right

  002cb	eb 0b		 jmp	 SHORT $LN7@operator
$LN5@operator:
  002cd	48 8b 45 48	 mov	 rax, QWORD PTR _Pad$[rbp]
  002d1	48 ff c8	 dec	 rax
  002d4	48 89 45 48	 mov	 QWORD PTR _Pad$[rbp], rax
$LN7@operator:
  002d8	48 83 7d 48 00	 cmp	 QWORD PTR _Pad$[rbp], 0
  002dd	0f 8e cb 00 00
	00		 jle	 $LN14@operator

; 766  :                 if (_Traits::eq_int_type(_Traits::eof(), _Ostr.rdbuf()->sputc(_Ostr.fill()))) {

  002e3	48 8b 85 30 02
	00 00		 mov	 rax, QWORD PTR _Ostr$[rbp]
  002ea	48 8b 00	 mov	 rax, QWORD PTR [rax]
  002ed	48 63 40 04	 movsxd	 rax, DWORD PTR [rax+4]
  002f1	48 8b 8d 30 02
	00 00		 mov	 rcx, QWORD PTR _Ostr$[rbp]
  002f8	48 03 c8	 add	 rcx, rax
  002fb	48 8b c1	 mov	 rax, rcx
  002fe	48 8b c8	 mov	 rcx, rax
  00301	ff 15 00 00 00
	00		 call	 QWORD PTR __imp_?rdbuf@?$basic_ios@DU?$char_traits@D@std@@@std@@QEBAPEAV?$basic_streambuf@DU?$char_traits@D@std@@@2@XZ
  00307	48 89 85 e8 01
	00 00		 mov	 QWORD PTR tv316[rbp], rax
  0030e	48 8b 85 e8 01
	00 00		 mov	 rax, QWORD PTR tv316[rbp]
  00315	48 89 85 f0 01
	00 00		 mov	 QWORD PTR tv256[rbp], rax
  0031c	48 8b 85 30 02
	00 00		 mov	 rax, QWORD PTR _Ostr$[rbp]
  00323	48 8b 00	 mov	 rax, QWORD PTR [rax]
  00326	48 63 40 04	 movsxd	 rax, DWORD PTR [rax+4]
  0032a	48 8b 8d 30 02
	00 00		 mov	 rcx, QWORD PTR _Ostr$[rbp]
  00331	48 03 c8	 add	 rcx, rax
  00334	48 8b c1	 mov	 rax, rcx
  00337	48 8b c8	 mov	 rcx, rax
  0033a	ff 15 00 00 00
	00		 call	 QWORD PTR __imp_?fill@?$basic_ios@DU?$char_traits@D@std@@@std@@QEBADXZ
  00340	88 85 f8 01 00
	00		 mov	 BYTE PTR tv317[rbp], al
  00346	0f b6 85 f8 01
	00 00		 movzx	 eax, BYTE PTR tv317[rbp]
  0034d	88 85 f9 01 00
	00		 mov	 BYTE PTR tv254[rbp], al
  00353	0f b6 95 f9 01
	00 00		 movzx	 edx, BYTE PTR tv254[rbp]
  0035a	48 8b 8d f0 01
	00 00		 mov	 rcx, QWORD PTR tv256[rbp]
  00361	ff 15 00 00 00
	00		 call	 QWORD PTR __imp_?sputc@?$basic_streambuf@DU?$char_traits@D@std@@@std@@QEAAHD@Z
  00367	89 85 fc 01 00
	00		 mov	 DWORD PTR tv318[rbp], eax
  0036d	8b 85 fc 01 00
	00		 mov	 eax, DWORD PTR tv318[rbp]
  00373	89 85 94 01 00
	00		 mov	 DWORD PTR $T6[rbp], eax
  00379	e8 00 00 00 00	 call	 ?eof@?$_Narrow_char_traits@DH@std@@SAHXZ ; std::_Narrow_char_traits<char,int>::eof
  0037e	89 85 b4 01 00
	00		 mov	 DWORD PTR $T7[rbp], eax
  00384	48 8d 95 94 01
	00 00		 lea	 rdx, QWORD PTR $T6[rbp]
  0038b	48 8d 8d b4 01
	00 00		 lea	 rcx, QWORD PTR $T7[rbp]
  00392	e8 00 00 00 00	 call	 ?eq_int_type@?$_Narrow_char_traits@DH@std@@SA_NAEBH0@Z ; std::_Narrow_char_traits<char,int>::eq_int_type
  00397	0f b6 c0	 movzx	 eax, al
  0039a	85 c0		 test	 eax, eax
  0039c	74 0b		 je	 SHORT $LN15@operator

; 767  :                     _State |= ios_base::badbit; // insertion failed, quit

  0039e	8b 45 04	 mov	 eax, DWORD PTR _State$[rbp]
  003a1	83 c8 04	 or	 eax, 4
  003a4	89 45 04	 mov	 DWORD PTR _State$[rbp], eax

; 768  :                     break;

  003a7	eb 05		 jmp	 SHORT $LN14@operator
$LN15@operator:

; 769  :                 }
; 770  :             }

  003a9	e9 1f ff ff ff	 jmp	 $LN5@operator
$LN14@operator:

; 771  :         }
; 772  : 
; 773  :         _Ostr.width(0);

  003ae	48 8b 85 30 02
	00 00		 mov	 rax, QWORD PTR _Ostr$[rbp]
  003b5	48 8b 00	 mov	 rax, QWORD PTR [rax]
  003b8	48 63 40 04	 movsxd	 rax, DWORD PTR [rax+4]
  003bc	48 8b 8d 30 02
	00 00		 mov	 rcx, QWORD PTR _Ostr$[rbp]
  003c3	48 03 c8	 add	 rcx, rax
  003c6	48 8b c1	 mov	 rax, rcx
  003c9	48 89 85 e8 01
	00 00		 mov	 QWORD PTR tv277[rbp], rax
  003d0	33 d2		 xor	 edx, edx
  003d2	48 8b 8d e8 01
	00 00		 mov	 rcx, QWORD PTR tv277[rbp]
  003d9	ff 15 00 00 00
	00		 call	 QWORD PTR __imp_?width@ios_base@std@@QEAA_J_J@Z
  003df	90		 npad	 1
  003e0	eb 00		 jmp	 SHORT $LN9@operator
$LN23@operator:
$LN9@operator:

; 774  :         _CATCH_IO_(ios_base, _Ostr)
; 775  :     }
; 776  : 
; 777  :     _Ostr.setstate(_State);

  003e2	48 8b 85 30 02
	00 00		 mov	 rax, QWORD PTR _Ostr$[rbp]
  003e9	48 8b 00	 mov	 rax, QWORD PTR [rax]
  003ec	48 63 40 04	 movsxd	 rax, DWORD PTR [rax+4]
  003f0	48 8b 8d 30 02
	00 00		 mov	 rcx, QWORD PTR _Ostr$[rbp]
  003f7	48 03 c8	 add	 rcx, rax
  003fa	48 8b c1	 mov	 rax, rcx
  003fd	48 89 85 e8 01
	00 00		 mov	 QWORD PTR tv306[rbp], rax
  00404	45 33 c0	 xor	 r8d, r8d
  00407	8b 55 04	 mov	 edx, DWORD PTR _State$[rbp]
  0040a	48 8b 8d e8 01
	00 00		 mov	 rcx, QWORD PTR tv306[rbp]
  00411	ff 15 00 00 00
	00		 call	 QWORD PTR __imp_?setstate@?$basic_ios@DU?$char_traits@D@std@@@std@@QEAAXH_N@Z

; 778  :     return _Ostr;

  00417	48 8b 85 30 02
	00 00		 mov	 rax, QWORD PTR _Ostr$[rbp]
  0041e	48 89 85 d8 01
	00 00		 mov	 QWORD PTR $T8[rbp], rax
  00425	48 8d 4d 68	 lea	 rcx, QWORD PTR _Ok$[rbp]
  00429	e8 00 00 00 00	 call	 ??1sentry@?$basic_ostream@DU?$char_traits@D@std@@@std@@QEAA@XZ ; std::basic_ostream<char,std::char_traits<char> >::sentry::~sentry
  0042e	48 8b 85 d8 01
	00 00		 mov	 rax, QWORD PTR $T8[rbp]

; 779  : }

  00435	48 8b f8	 mov	 rdi, rax
  00438	48 8d 4d e0	 lea	 rcx, QWORD PTR [rbp-32]
  0043c	48 8d 15 00 00
	00 00		 lea	 rdx, OFFSET FLAT:??$?6U?$char_traits@D@std@@@std@@YAAEAV?$basic_ostream@DU?$char_traits@D@std@@@0@AEAV10@PEBD@Z$rtcFrameData
  00443	e8 00 00 00 00	 call	 _RTC_CheckStackVars
  00448	48 8b c7	 mov	 rax, rdi
  0044b	48 8b 8d 00 02
	00 00		 mov	 rcx, QWORD PTR __$ArrayPad$[rbp]
  00452	48 33 cd	 xor	 rcx, rbp
  00455	e8 00 00 00 00	 call	 __security_check_cookie
  0045a	48 8d a5 18 02
	00 00		 lea	 rsp, QWORD PTR [rbp+536]
  00461	5f		 pop	 rdi
  00462	5d		 pop	 rbp
  00463	c3		 ret	 0
??$?6U?$char_traits@D@std@@@std@@YAAEAV?$basic_ostream@DU?$char_traits@D@std@@@0@AEAV10@PEBD@Z ENDP ; std::operator<<<std::char_traits<char> >
_TEXT	ENDS
;	COMDAT text$x
text$x	SEGMENT
_State$ = 4
_Count$ = 40
_Pad$ = 72
_Ok$ = 104
$T4 = 340
$T5 = 372
$T6 = 404
$T7 = 436
$T8 = 472
tv139 = 484
tv316 = 488
tv314 = 488
tv311 = 488
tv306 = 488
tv291 = 488
tv277 = 488
tv137 = 488
tv256 = 496
tv219 = 496
tv194 = 496
tv317 = 504
tv315 = 504
tv312 = 504
tv254 = 505
tv192 = 505
tv318 = 508
tv313 = 508
__$ArrayPad$ = 512
_Ostr$ = 560
_Val$ = 568
?dtor$0@?0???$?6U?$char_traits@D@std@@@std@@YAAEAV?$basic_ostream@DU?$char_traits@D@std@@@0@AEAV10@PEBD@Z@4HA PROC ; `std::operator<<<std::char_traits<char> >'::`1'::dtor$0
  00000	48 89 4c 24 08	 mov	 QWORD PTR [rsp+8], rcx
  00005	48 89 54 24 10	 mov	 QWORD PTR [rsp+16], rdx
  0000a	55		 push	 rbp
  0000b	57		 push	 rdi
  0000c	48 83 ec 28	 sub	 rsp, 40			; 00000028H
  00010	48 8d 6a 20	 lea	 rbp, QWORD PTR [rdx+32]
  00014	48 8d 4d 68	 lea	 rcx, QWORD PTR _Ok$[rbp]
  00018	e8 00 00 00 00	 call	 ??1sentry@?$basic_ostream@DU?$char_traits@D@std@@@std@@QEAA@XZ ; std::basic_ostream<char,std::char_traits<char> >::sentry::~sentry
  0001d	48 83 c4 28	 add	 rsp, 40			; 00000028H
  00021	5f		 pop	 rdi
  00022	5d		 pop	 rbp
  00023	c3		 ret	 0
?dtor$0@?0???$?6U?$char_traits@D@std@@@std@@YAAEAV?$basic_ostream@DU?$char_traits@D@std@@@0@AEAV10@PEBD@Z@4HA ENDP ; `std::operator<<<std::char_traits<char> >'::`1'::dtor$0
text$x	ENDS
;	COMDAT text$x
text$x	SEGMENT
_State$ = 4
_Count$ = 40
_Pad$ = 72
_Ok$ = 104
$T4 = 340
$T5 = 372
$T6 = 404
$T7 = 436
$T8 = 472
tv139 = 484
tv316 = 488
tv314 = 488
tv311 = 488
tv306 = 488
tv291 = 488
tv277 = 488
tv137 = 488
tv256 = 496
tv219 = 496
tv194 = 496
tv317 = 504
tv315 = 504
tv312 = 504
tv254 = 505
tv192 = 505
tv318 = 508
tv313 = 508
__$ArrayPad$ = 512
_Ostr$ = 560
_Val$ = 568
?catch$1@?0???$?6U?$char_traits@D@std@@@std@@YAAEAV?$basic_ostream@DU?$char_traits@D@std@@@0@AEAV10@PEBD@Z@4HA PROC ; `std::operator<<<std::char_traits<char> >'::`1'::catch$1

; 774  :         _CATCH_IO_(ios_base, _Ostr)

  00000	48 89 4c 24 08	 mov	 QWORD PTR [rsp+8], rcx
  00005	48 89 54 24 10	 mov	 QWORD PTR [rsp+16], rdx
  0000a	55		 push	 rbp
  0000b	57		 push	 rdi
  0000c	48 83 ec 28	 sub	 rsp, 40			; 00000028H
  00010	48 8d 6a 20	 lea	 rbp, QWORD PTR [rdx+32]
__catch$??$?6U?$char_traits@D@std@@@std@@YAAEAV?$basic_ostream@DU?$char_traits@D@std@@@0@AEAV10@PEBD@Z$0:
  00014	48 8b 85 30 02
	00 00		 mov	 rax, QWORD PTR _Ostr$[rbp]
  0001b	48 8b 00	 mov	 rax, QWORD PTR [rax]
  0001e	48 63 40 04	 movsxd	 rax, DWORD PTR [rax+4]
  00022	48 8b 8d 30 02
	00 00		 mov	 rcx, QWORD PTR _Ostr$[rbp]
  00029	48 03 c8	 add	 rcx, rax
  0002c	48 8b c1	 mov	 rax, rcx
  0002f	48 89 85 e8 01
	00 00		 mov	 QWORD PTR tv291[rbp], rax
  00036	41 b0 01	 mov	 r8b, 1
  00039	ba 04 00 00 00	 mov	 edx, 4
  0003e	48 8b 8d e8 01
	00 00		 mov	 rcx, QWORD PTR tv291[rbp]
  00045	ff 15 00 00 00
	00		 call	 QWORD PTR __imp_?setstate@?$basic_ios@DU?$char_traits@D@std@@@std@@QEAAXH_N@Z
  0004b	90		 npad	 1
  0004c	48 8d 05 00 00
	00 00		 lea	 rax, $LN23@catch$1
  00053	48 83 c4 28	 add	 rsp, 40			; 00000028H
  00057	5f		 pop	 rdi
  00058	5d		 pop	 rbp
  00059	c3		 ret	 0
  0005a	cc		 int	 3
?catch$1@?0???$?6U?$char_traits@D@std@@@std@@YAAEAV?$basic_ostream@DU?$char_traits@D@std@@@0@AEAV10@PEBD@Z@4HA ENDP ; `std::operator<<<std::char_traits<char> >'::`1'::catch$1
text$x	ENDS
; Function compile flags: /Odtp /RTCsu /ZI
;	COMDAT text$x
text$x	SEGMENT
_State$ = 4
_Count$ = 40
_Pad$ = 72
_Ok$ = 104
$T4 = 340
$T5 = 372
$T6 = 404
$T7 = 436
$T8 = 472
tv139 = 484
tv316 = 488
tv314 = 488
tv311 = 488
tv306 = 488
tv291 = 488
tv277 = 488
tv137 = 488
tv256 = 496
tv219 = 496
tv194 = 496
tv317 = 504
tv315 = 504
tv312 = 504
tv254 = 505
tv192 = 505
tv318 = 508
tv313 = 508
__$ArrayPad$ = 512
_Ostr$ = 560
_Val$ = 568
?dtor$0@?0???$?6U?$char_traits@D@std@@@std@@YAAEAV?$basic_ostream@DU?$char_traits@D@std@@@0@AEAV10@PEBD@Z@4HA PROC ; `std::operator<<<std::char_traits<char> >'::`1'::dtor$0
  00000	48 89 4c 24 08	 mov	 QWORD PTR [rsp+8], rcx
  00005	48 89 54 24 10	 mov	 QWORD PTR [rsp+16], rdx
  0000a	55		 push	 rbp
  0000b	57		 push	 rdi
  0000c	48 83 ec 28	 sub	 rsp, 40			; 00000028H
  00010	48 8d 6a 20	 lea	 rbp, QWORD PTR [rdx+32]
  00014	48 8d 4d 68	 lea	 rcx, QWORD PTR _Ok$[rbp]
  00018	e8 00 00 00 00	 call	 ??1sentry@?$basic_ostream@DU?$char_traits@D@std@@@std@@QEAA@XZ ; std::basic_ostream<char,std::char_traits<char> >::sentry::~sentry
  0001d	48 83 c4 28	 add	 rsp, 40			; 00000028H
  00021	5f		 pop	 rdi
  00022	5d		 pop	 rbp
  00023	c3		 ret	 0
?dtor$0@?0???$?6U?$char_traits@D@std@@@std@@YAAEAV?$basic_ostream@DU?$char_traits@D@std@@@0@AEAV10@PEBD@Z@4HA ENDP ; `std::operator<<<std::char_traits<char> >'::`1'::dtor$0
text$x	ENDS
; Function compile flags: /Odtp /RTCsu /ZI
;	COMDAT text$x
text$x	SEGMENT
_State$ = 4
_Count$ = 40
_Pad$ = 72
_Ok$ = 104
$T4 = 340
$T5 = 372
$T6 = 404
$T7 = 436
$T8 = 472
tv139 = 484
tv316 = 488
tv314 = 488
tv311 = 488
tv306 = 488
tv291 = 488
tv277 = 488
tv137 = 488
tv256 = 496
tv219 = 496
tv194 = 496
tv317 = 504
tv315 = 504
tv312 = 504
tv254 = 505
tv192 = 505
tv318 = 508
tv313 = 508
__$ArrayPad$ = 512
_Ostr$ = 560
_Val$ = 568
?catch$1@?0???$?6U?$char_traits@D@std@@@std@@YAAEAV?$basic_ostream@DU?$char_traits@D@std@@@0@AEAV10@PEBD@Z@4HA PROC ; `std::operator<<<std::char_traits<char> >'::`1'::catch$1

; 774  :         _CATCH_IO_(ios_base, _Ostr)

  00000	48 89 4c 24 08	 mov	 QWORD PTR [rsp+8], rcx
  00005	48 89 54 24 10	 mov	 QWORD PTR [rsp+16], rdx
  0000a	55		 push	 rbp
  0000b	57		 push	 rdi
  0000c	48 83 ec 28	 sub	 rsp, 40			; 00000028H
  00010	48 8d 6a 20	 lea	 rbp, QWORD PTR [rdx+32]
__catch$??$?6U?$char_traits@D@std@@@std@@YAAEAV?$basic_ostream@DU?$char_traits@D@std@@@0@AEAV10@PEBD@Z$0:
  00014	48 8b 85 30 02
	00 00		 mov	 rax, QWORD PTR _Ostr$[rbp]
  0001b	48 8b 00	 mov	 rax, QWORD PTR [rax]
  0001e	48 63 40 04	 movsxd	 rax, DWORD PTR [rax+4]
  00022	48 8b 8d 30 02
	00 00		 mov	 rcx, QWORD PTR _Ostr$[rbp]
  00029	48 03 c8	 add	 rcx, rax
  0002c	48 8b c1	 mov	 rax, rcx
  0002f	48 89 85 e8 01
	00 00		 mov	 QWORD PTR tv291[rbp], rax
  00036	41 b0 01	 mov	 r8b, 1
  00039	ba 04 00 00 00	 mov	 edx, 4
  0003e	48 8b 8d e8 01
	00 00		 mov	 rcx, QWORD PTR tv291[rbp]
  00045	ff 15 00 00 00
	00		 call	 QWORD PTR __imp_?setstate@?$basic_ios@DU?$char_traits@D@std@@@std@@QEAAXH_N@Z
  0004b	90		 npad	 1
  0004c	48 8d 05 00 00
	00 00		 lea	 rax, $LN23@catch$1
  00053	48 83 c4 28	 add	 rsp, 40			; 00000028H
  00057	5f		 pop	 rdi
  00058	5d		 pop	 rbp
  00059	c3		 ret	 0
  0005a	cc		 int	 3
?catch$1@?0???$?6U?$char_traits@D@std@@@std@@YAAEAV?$basic_ostream@DU?$char_traits@D@std@@@0@AEAV10@PEBD@Z@4HA ENDP ; `std::operator<<<std::char_traits<char> >'::`1'::catch$1
text$x	ENDS
; Function compile flags: /Odtp /RTCsu /ZI
;	COMDAT ?__autoclassinit2@?$_List_unchecked_iterator@V?$_List_val@U?$_List_simple_types@PEAVObjector@@@std@@@std@@@std@@QEAAX_K@Z
_TEXT	SEGMENT
this$ = 224
classSize$ = 232
?__autoclassinit2@?$_List_unchecked_iterator@V?$_List_val@U?$_List_simple_types@PEAVObjector@@@std@@@std@@@std@@QEAAX_K@Z PROC ; std::_List_unchecked_iterator<std::_List_val<std::_List_simple_types<Objector *> > >::__autoclassinit2, COMDAT
$LN3:
  00000	48 89 54 24 10	 mov	 QWORD PTR [rsp+16], rdx
  00005	48 89 4c 24 08	 mov	 QWORD PTR [rsp+8], rcx
  0000a	55		 push	 rbp
  0000b	57		 push	 rdi
  0000c	48 81 ec c8 00
	00 00		 sub	 rsp, 200		; 000000c8H
  00013	48 8b ec	 mov	 rbp, rsp
  00016	48 8b fc	 mov	 rdi, rsp
  00019	b9 32 00 00 00	 mov	 ecx, 50			; 00000032H
  0001e	b8 cc cc cc cc	 mov	 eax, -858993460		; ccccccccH
  00023	f3 ab		 rep stosd
  00025	48 8b 8c 24 e8
	00 00 00	 mov	 rcx, QWORD PTR [rsp+232]
  0002d	48 8b bd e0 00
	00 00		 mov	 rdi, QWORD PTR this$[rbp]
  00034	33 c0		 xor	 eax, eax
  00036	48 8b 8d e8 00
	00 00		 mov	 rcx, QWORD PTR classSize$[rbp]
  0003d	f3 aa		 rep stosb
  0003f	48 8d a5 c8 00
	00 00		 lea	 rsp, QWORD PTR [rbp+200]
  00046	5f		 pop	 rdi
  00047	5d		 pop	 rbp
  00048	c3		 ret	 0
?__autoclassinit2@?$_List_unchecked_iterator@V?$_List_val@U?$_List_simple_types@PEAVObjector@@@std@@@std@@@std@@QEAAX_K@Z ENDP ; std::_List_unchecked_iterator<std::_List_val<std::_List_simple_types<Objector *> > >::__autoclassinit2
_TEXT	ENDS
; Function compile flags: /Odtp /RTCsu /ZI
; File C:\Program Files (x86)\Microsoft Visual Studio\2019\Enterprise\VC\Tools\MSVC\14.23.28105\include\list
;	COMDAT ??E?$_List_unchecked_iterator@V?$_List_val@U?$_List_simple_types@PEAVObjector@@@std@@@std@@@std@@QEAAAEAV01@XZ
_TEXT	SEGMENT
this$ = 224
??E?$_List_unchecked_iterator@V?$_List_val@U?$_List_simple_types@PEAVObjector@@@std@@@std@@@std@@QEAAAEAV01@XZ PROC ; std::_List_unchecked_iterator<std::_List_val<std::_List_simple_types<Objector *> > >::operator++, COMDAT

; 110  :     _List_unchecked_iterator& operator++() {

$LN3:
  00000	48 89 4c 24 08	 mov	 QWORD PTR [rsp+8], rcx
  00005	55		 push	 rbp
  00006	57		 push	 rdi
  00007	48 81 ec e8 00
	00 00		 sub	 rsp, 232		; 000000e8H
  0000e	48 8d 6c 24 20	 lea	 rbp, QWORD PTR [rsp+32]
  00013	48 8b fc	 mov	 rdi, rsp
  00016	b9 3a 00 00 00	 mov	 ecx, 58			; 0000003aH
  0001b	b8 cc cc cc cc	 mov	 eax, -858993460		; ccccccccH
  00020	f3 ab		 rep stosd
  00022	48 8b 8c 24 08
	01 00 00	 mov	 rcx, QWORD PTR [rsp+264]
  0002a	48 8d 0d 00 00
	00 00		 lea	 rcx, OFFSET FLAT:__2EF0BD34_list
  00031	e8 00 00 00 00	 call	 __CheckForDebuggerJustMyCode

; 111  :         _Mybase::operator++();

  00036	48 8b 8d e0 00
	00 00		 mov	 rcx, QWORD PTR this$[rbp]
  0003d	e8 00 00 00 00	 call	 ??E?$_List_unchecked_const_iterator@V?$_List_val@U?$_List_simple_types@PEAVObjector@@@std@@@std@@U_Iterator_base0@2@@std@@QEAAAEAV01@XZ ; std::_List_unchecked_const_iterator<std::_List_val<std::_List_simple_types<Objector *> >,std::_Iterator_base0>::operator++

; 112  :         return *this;

  00042	48 8b 85 e0 00
	00 00		 mov	 rax, QWORD PTR this$[rbp]

; 113  :     }

  00049	48 8d a5 c8 00
	00 00		 lea	 rsp, QWORD PTR [rbp+200]
  00050	5f		 pop	 rdi
  00051	5d		 pop	 rbp
  00052	c3		 ret	 0
??E?$_List_unchecked_iterator@V?$_List_val@U?$_List_simple_types@PEAVObjector@@@std@@@std@@@std@@QEAAAEAV01@XZ ENDP ; std::_List_unchecked_iterator<std::_List_val<std::_List_simple_types<Objector *> > >::operator++
_TEXT	ENDS
; Function compile flags: /Odtp /RTCsu /ZI
; File C:\Program Files (x86)\Microsoft Visual Studio\2019\Enterprise\VC\Tools\MSVC\14.23.28105\include\list
;	COMDAT ??D?$_List_unchecked_iterator@V?$_List_val@U?$_List_simple_types@PEAVObjector@@@std@@@std@@@std@@QEBAAEAPEAVObjector@@XZ
_TEXT	SEGMENT
this$ = 224
??D?$_List_unchecked_iterator@V?$_List_val@U?$_List_simple_types@PEAVObjector@@@std@@@std@@@std@@QEBAAEAPEAVObjector@@XZ PROC ; std::_List_unchecked_iterator<std::_List_val<std::_List_simple_types<Objector *> > >::operator*, COMDAT

; 102  :     _NODISCARD reference operator*() const {

$LN3:
  00000	48 89 4c 24 08	 mov	 QWORD PTR [rsp+8], rcx
  00005	55		 push	 rbp
  00006	57		 push	 rdi
  00007	48 81 ec e8 00
	00 00		 sub	 rsp, 232		; 000000e8H
  0000e	48 8d 6c 24 20	 lea	 rbp, QWORD PTR [rsp+32]
  00013	48 8b fc	 mov	 rdi, rsp
  00016	b9 3a 00 00 00	 mov	 ecx, 58			; 0000003aH
  0001b	b8 cc cc cc cc	 mov	 eax, -858993460		; ccccccccH
  00020	f3 ab		 rep stosd
  00022	48 8b 8c 24 08
	01 00 00	 mov	 rcx, QWORD PTR [rsp+264]
  0002a	48 8d 0d 00 00
	00 00		 lea	 rcx, OFFSET FLAT:__2EF0BD34_list
  00031	e8 00 00 00 00	 call	 __CheckForDebuggerJustMyCode

; 103  :         return const_cast<reference>(_Mybase::operator*());

  00036	48 8b 8d e0 00
	00 00		 mov	 rcx, QWORD PTR this$[rbp]
  0003d	e8 00 00 00 00	 call	 ??D?$_List_unchecked_const_iterator@V?$_List_val@U?$_List_simple_types@PEAVObjector@@@std@@@std@@U_Iterator_base0@2@@std@@QEBAAEBQEAVObjector@@XZ ; std::_List_unchecked_const_iterator<std::_List_val<std::_List_simple_types<Objector *> >,std::_Iterator_base0>::operator*

; 104  :     }

  00042	48 8d a5 c8 00
	00 00		 lea	 rsp, QWORD PTR [rbp+200]
  00049	5f		 pop	 rdi
  0004a	5d		 pop	 rbp
  0004b	c3		 ret	 0
??D?$_List_unchecked_iterator@V?$_List_val@U?$_List_simple_types@PEAVObjector@@@std@@@std@@@std@@QEBAAEAPEAVObjector@@XZ ENDP ; std::_List_unchecked_iterator<std::_List_val<std::_List_simple_types<Objector *> > >::operator*
_TEXT	ENDS
; Function compile flags: /Odtp /RTCsu /ZI
; File C:\Program Files (x86)\Microsoft Visual Studio\2019\Enterprise\VC\Tools\MSVC\14.23.28105\include\list
;	COMDAT ??0?$_List_unchecked_iterator@V?$_List_val@U?$_List_simple_types@PEAVObjector@@@std@@@std@@@std@@QEAA@PEAU?$_List_node@PEAVObjector@@PEAX@1@PEBV?$_List_val@U?$_List_simple_types@PEAVObjector@@@std@@@1@@Z
_TEXT	SEGMENT
this$ = 224
_Pnode$ = 232
_Plist$ = 240
??0?$_List_unchecked_iterator@V?$_List_val@U?$_List_simple_types@PEAVObjector@@@std@@@std@@@std@@QEAA@PEAU?$_List_node@PEAVObjector@@PEAX@1@PEBV?$_List_val@U?$_List_simple_types@PEAVObjector@@@std@@@1@@Z PROC ; std::_List_unchecked_iterator<std::_List_val<std::_List_simple_types<Objector *> > >::_List_unchecked_iterator<std::_List_val<std::_List_simple_types<Objector *> > >, COMDAT

; 98   :     _List_unchecked_iterator(_Nodeptr _Pnode, const _Mylist* _Plist)

$LN3:
  00000	4c 89 44 24 18	 mov	 QWORD PTR [rsp+24], r8
  00005	48 89 54 24 10	 mov	 QWORD PTR [rsp+16], rdx
  0000a	48 89 4c 24 08	 mov	 QWORD PTR [rsp+8], rcx
  0000f	55		 push	 rbp
  00010	57		 push	 rdi
  00011	48 81 ec e8 00
	00 00		 sub	 rsp, 232		; 000000e8H
  00018	48 8d 6c 24 20	 lea	 rbp, QWORD PTR [rsp+32]
  0001d	48 8b fc	 mov	 rdi, rsp
  00020	b9 3a 00 00 00	 mov	 ecx, 58			; 0000003aH
  00025	b8 cc cc cc cc	 mov	 eax, -858993460		; ccccccccH
  0002a	f3 ab		 rep stosd
  0002c	48 8b 8c 24 08
	01 00 00	 mov	 rcx, QWORD PTR [rsp+264]
  00034	48 8d 0d 00 00
	00 00		 lea	 rcx, OFFSET FLAT:__2EF0BD34_list
  0003b	e8 00 00 00 00	 call	 __CheckForDebuggerJustMyCode

; 99   :         : _Mybase(_Pnode, _Plist) { // construct with node pointer _Pnode

  00040	4c 8b 85 f0 00
	00 00		 mov	 r8, QWORD PTR _Plist$[rbp]
  00047	48 8b 95 e8 00
	00 00		 mov	 rdx, QWORD PTR _Pnode$[rbp]
  0004e	48 8b 8d e0 00
	00 00		 mov	 rcx, QWORD PTR this$[rbp]
  00055	e8 00 00 00 00	 call	 ??0?$_List_unchecked_const_iterator@V?$_List_val@U?$_List_simple_types@PEAVObjector@@@std@@@std@@U_Iterator_base0@2@@std@@QEAA@PEAU?$_List_node@PEAVObjector@@PEAX@1@PEBV?$_List_val@U?$_List_simple_types@PEAVObjector@@@std@@@1@@Z ; std::_List_unchecked_const_iterator<std::_List_val<std::_List_simple_types<Objector *> >,std::_Iterator_base0>::_List_unchecked_const_iterator<std::_List_val<std::_List_simple_types<Objector *> >,std::_Iterator_base0>

; 100  :     }

  0005a	48 8b 85 e0 00
	00 00		 mov	 rax, QWORD PTR this$[rbp]
  00061	48 8d a5 c8 00
	00 00		 lea	 rsp, QWORD PTR [rbp+200]
  00068	5f		 pop	 rdi
  00069	5d		 pop	 rbp
  0006a	c3		 ret	 0
??0?$_List_unchecked_iterator@V?$_List_val@U?$_List_simple_types@PEAVObjector@@@std@@@std@@@std@@QEAA@PEAU?$_List_node@PEAVObjector@@PEAX@1@PEBV?$_List_val@U?$_List_simple_types@PEAVObjector@@@std@@@1@@Z ENDP ; std::_List_unchecked_iterator<std::_List_val<std::_List_simple_types<Objector *> > >::_List_unchecked_iterator<std::_List_val<std::_List_simple_types<Objector *> > >
_TEXT	ENDS
; Function compile flags: /Odtp /RTCsu /ZI
; File C:\Program Files (x86)\Microsoft Visual Studio\2019\Enterprise\VC\Tools\MSVC\14.23.28105\include\list
;	COMDAT ??9?$_List_unchecked_const_iterator@V?$_List_val@U?$_List_simple_types@PEAVObjector@@@std@@@std@@U_Iterator_base0@2@@std@@QEBA_NAEBV01@@Z
_TEXT	SEGMENT
tv69 = 192
this$ = 240
_Right$ = 248
??9?$_List_unchecked_const_iterator@V?$_List_val@U?$_List_simple_types@PEAVObjector@@@std@@@std@@U_Iterator_base0@2@@std@@QEBA_NAEBV01@@Z PROC ; std::_List_unchecked_const_iterator<std::_List_val<std::_List_simple_types<Objector *> >,std::_Iterator_base0>::operator!=, COMDAT

; 75   :     _NODISCARD bool operator!=(const _List_unchecked_const_iterator& _Right) const {

$LN5:
  00000	48 89 54 24 10	 mov	 QWORD PTR [rsp+16], rdx
  00005	48 89 4c 24 08	 mov	 QWORD PTR [rsp+8], rcx
  0000a	55		 push	 rbp
  0000b	57		 push	 rdi
  0000c	48 81 ec f8 00
	00 00		 sub	 rsp, 248		; 000000f8H
  00013	48 8d 6c 24 20	 lea	 rbp, QWORD PTR [rsp+32]
  00018	48 8b fc	 mov	 rdi, rsp
  0001b	b9 3e 00 00 00	 mov	 ecx, 62			; 0000003eH
  00020	b8 cc cc cc cc	 mov	 eax, -858993460		; ccccccccH
  00025	f3 ab		 rep stosd
  00027	48 8b 8c 24 18
	01 00 00	 mov	 rcx, QWORD PTR [rsp+280]
  0002f	48 8d 0d 00 00
	00 00		 lea	 rcx, OFFSET FLAT:__2EF0BD34_list
  00036	e8 00 00 00 00	 call	 __CheckForDebuggerJustMyCode

; 76   :         return !(*this == _Right);

  0003b	48 8b 95 f8 00
	00 00		 mov	 rdx, QWORD PTR _Right$[rbp]
  00042	48 8b 8d f0 00
	00 00		 mov	 rcx, QWORD PTR this$[rbp]
  00049	e8 00 00 00 00	 call	 ??8?$_List_unchecked_const_iterator@V?$_List_val@U?$_List_simple_types@PEAVObjector@@@std@@@std@@U_Iterator_base0@2@@std@@QEBA_NAEBV01@@Z ; std::_List_unchecked_const_iterator<std::_List_val<std::_List_simple_types<Objector *> >,std::_Iterator_base0>::operator==
  0004e	0f b6 c0	 movzx	 eax, al
  00051	85 c0		 test	 eax, eax
  00053	75 0c		 jne	 SHORT $LN3@operator
  00055	c7 85 c0 00 00
	00 01 00 00 00	 mov	 DWORD PTR tv69[rbp], 1
  0005f	eb 0a		 jmp	 SHORT $LN4@operator
$LN3@operator:
  00061	c7 85 c0 00 00
	00 00 00 00 00	 mov	 DWORD PTR tv69[rbp], 0
$LN4@operator:
  0006b	0f b6 85 c0 00
	00 00		 movzx	 eax, BYTE PTR tv69[rbp]

; 77   :     }

  00072	48 8d a5 d8 00
	00 00		 lea	 rsp, QWORD PTR [rbp+216]
  00079	5f		 pop	 rdi
  0007a	5d		 pop	 rbp
  0007b	c3		 ret	 0
??9?$_List_unchecked_const_iterator@V?$_List_val@U?$_List_simple_types@PEAVObjector@@@std@@@std@@U_Iterator_base0@2@@std@@QEBA_NAEBV01@@Z ENDP ; std::_List_unchecked_const_iterator<std::_List_val<std::_List_simple_types<Objector *> >,std::_Iterator_base0>::operator!=
_TEXT	ENDS
; Function compile flags: /Odtp /RTCsu /ZI
; File C:\Program Files (x86)\Microsoft Visual Studio\2019\Enterprise\VC\Tools\MSVC\14.23.28105\include\list
;	COMDAT ??8?$_List_unchecked_const_iterator@V?$_List_val@U?$_List_simple_types@PEAVObjector@@@std@@@std@@U_Iterator_base0@2@@std@@QEBA_NAEBV01@@Z
_TEXT	SEGMENT
tv67 = 192
this$ = 240
_Right$ = 248
??8?$_List_unchecked_const_iterator@V?$_List_val@U?$_List_simple_types@PEAVObjector@@@std@@@std@@U_Iterator_base0@2@@std@@QEBA_NAEBV01@@Z PROC ; std::_List_unchecked_const_iterator<std::_List_val<std::_List_simple_types<Objector *> >,std::_Iterator_base0>::operator==, COMDAT

; 71   :     _NODISCARD bool operator==(const _List_unchecked_const_iterator& _Right) const {

$LN5:
  00000	48 89 54 24 10	 mov	 QWORD PTR [rsp+16], rdx
  00005	48 89 4c 24 08	 mov	 QWORD PTR [rsp+8], rcx
  0000a	55		 push	 rbp
  0000b	57		 push	 rdi
  0000c	48 81 ec f8 00
	00 00		 sub	 rsp, 248		; 000000f8H
  00013	48 8d 6c 24 20	 lea	 rbp, QWORD PTR [rsp+32]
  00018	48 8b fc	 mov	 rdi, rsp
  0001b	b9 3e 00 00 00	 mov	 ecx, 62			; 0000003eH
  00020	b8 cc cc cc cc	 mov	 eax, -858993460		; ccccccccH
  00025	f3 ab		 rep stosd
  00027	48 8b 8c 24 18
	01 00 00	 mov	 rcx, QWORD PTR [rsp+280]
  0002f	48 8d 0d 00 00
	00 00		 lea	 rcx, OFFSET FLAT:__2EF0BD34_list
  00036	e8 00 00 00 00	 call	 __CheckForDebuggerJustMyCode

; 72   :         return _Ptr == _Right._Ptr;

  0003b	48 8b 85 f0 00
	00 00		 mov	 rax, QWORD PTR this$[rbp]
  00042	48 8b 8d f8 00
	00 00		 mov	 rcx, QWORD PTR _Right$[rbp]
  00049	48 8b 09	 mov	 rcx, QWORD PTR [rcx]
  0004c	48 39 08	 cmp	 QWORD PTR [rax], rcx
  0004f	75 0c		 jne	 SHORT $LN3@operator
  00051	c7 85 c0 00 00
	00 01 00 00 00	 mov	 DWORD PTR tv67[rbp], 1
  0005b	eb 0a		 jmp	 SHORT $LN4@operator
$LN3@operator:
  0005d	c7 85 c0 00 00
	00 00 00 00 00	 mov	 DWORD PTR tv67[rbp], 0
$LN4@operator:
  00067	0f b6 85 c0 00
	00 00		 movzx	 eax, BYTE PTR tv67[rbp]

; 73   :     }

  0006e	48 8d a5 d8 00
	00 00		 lea	 rsp, QWORD PTR [rbp+216]
  00075	5f		 pop	 rdi
  00076	5d		 pop	 rbp
  00077	c3		 ret	 0
??8?$_List_unchecked_const_iterator@V?$_List_val@U?$_List_simple_types@PEAVObjector@@@std@@@std@@U_Iterator_base0@2@@std@@QEBA_NAEBV01@@Z ENDP ; std::_List_unchecked_const_iterator<std::_List_val<std::_List_simple_types<Objector *> >,std::_Iterator_base0>::operator==
_TEXT	ENDS
; Function compile flags: /Odtp /RTCsu /ZI
; File C:\Program Files (x86)\Microsoft Visual Studio\2019\Enterprise\VC\Tools\MSVC\14.23.28105\include\list
;	COMDAT ??E?$_List_unchecked_const_iterator@V?$_List_val@U?$_List_simple_types@PEAVObjector@@@std@@@std@@U_Iterator_base0@2@@std@@QEAAAEAV01@XZ
_TEXT	SEGMENT
this$ = 224
??E?$_List_unchecked_const_iterator@V?$_List_val@U?$_List_simple_types@PEAVObjector@@@std@@@std@@U_Iterator_base0@2@@std@@QEAAAEAV01@XZ PROC ; std::_List_unchecked_const_iterator<std::_List_val<std::_List_simple_types<Objector *> >,std::_Iterator_base0>::operator++, COMDAT

; 49   :     _List_unchecked_const_iterator& operator++() {

$LN3:
  00000	48 89 4c 24 08	 mov	 QWORD PTR [rsp+8], rcx
  00005	55		 push	 rbp
  00006	57		 push	 rdi
  00007	48 81 ec e8 00
	00 00		 sub	 rsp, 232		; 000000e8H
  0000e	48 8d 6c 24 20	 lea	 rbp, QWORD PTR [rsp+32]
  00013	48 8b fc	 mov	 rdi, rsp
  00016	b9 3a 00 00 00	 mov	 ecx, 58			; 0000003aH
  0001b	b8 cc cc cc cc	 mov	 eax, -858993460		; ccccccccH
  00020	f3 ab		 rep stosd
  00022	48 8b 8c 24 08
	01 00 00	 mov	 rcx, QWORD PTR [rsp+264]
  0002a	48 8d 0d 00 00
	00 00		 lea	 rcx, OFFSET FLAT:__2EF0BD34_list
  00031	e8 00 00 00 00	 call	 __CheckForDebuggerJustMyCode

; 50   :         _Ptr = _Ptr->_Next;

  00036	48 8b 85 e0 00
	00 00		 mov	 rax, QWORD PTR this$[rbp]
  0003d	48 8b 00	 mov	 rax, QWORD PTR [rax]
  00040	48 8b 8d e0 00
	00 00		 mov	 rcx, QWORD PTR this$[rbp]
  00047	48 8b 00	 mov	 rax, QWORD PTR [rax]
  0004a	48 89 01	 mov	 QWORD PTR [rcx], rax

; 51   :         return *this;

  0004d	48 8b 85 e0 00
	00 00		 mov	 rax, QWORD PTR this$[rbp]

; 52   :     }

  00054	48 8d a5 c8 00
	00 00		 lea	 rsp, QWORD PTR [rbp+200]
  0005b	5f		 pop	 rdi
  0005c	5d		 pop	 rbp
  0005d	c3		 ret	 0
??E?$_List_unchecked_const_iterator@V?$_List_val@U?$_List_simple_types@PEAVObjector@@@std@@@std@@U_Iterator_base0@2@@std@@QEAAAEAV01@XZ ENDP ; std::_List_unchecked_const_iterator<std::_List_val<std::_List_simple_types<Objector *> >,std::_Iterator_base0>::operator++
_TEXT	ENDS
; Function compile flags: /Odtp /RTCsu /ZI
; File C:\Program Files (x86)\Microsoft Visual Studio\2019\Enterprise\VC\Tools\MSVC\14.23.28105\include\list
;	COMDAT ??D?$_List_unchecked_const_iterator@V?$_List_val@U?$_List_simple_types@PEAVObjector@@@std@@@std@@U_Iterator_base0@2@@std@@QEBAAEBQEAVObjector@@XZ
_TEXT	SEGMENT
this$ = 224
??D?$_List_unchecked_const_iterator@V?$_List_val@U?$_List_simple_types@PEAVObjector@@@std@@@std@@U_Iterator_base0@2@@std@@QEBAAEBQEAVObjector@@XZ PROC ; std::_List_unchecked_const_iterator<std::_List_val<std::_List_simple_types<Objector *> >,std::_Iterator_base0>::operator*, COMDAT

; 41   :     _NODISCARD reference operator*() const {

$LN3:
  00000	48 89 4c 24 08	 mov	 QWORD PTR [rsp+8], rcx
  00005	55		 push	 rbp
  00006	57		 push	 rdi
  00007	48 81 ec e8 00
	00 00		 sub	 rsp, 232		; 000000e8H
  0000e	48 8d 6c 24 20	 lea	 rbp, QWORD PTR [rsp+32]
  00013	48 8b fc	 mov	 rdi, rsp
  00016	b9 3a 00 00 00	 mov	 ecx, 58			; 0000003aH
  0001b	b8 cc cc cc cc	 mov	 eax, -858993460		; ccccccccH
  00020	f3 ab		 rep stosd
  00022	48 8b 8c 24 08
	01 00 00	 mov	 rcx, QWORD PTR [rsp+264]
  0002a	48 8d 0d 00 00
	00 00		 lea	 rcx, OFFSET FLAT:__2EF0BD34_list
  00031	e8 00 00 00 00	 call	 __CheckForDebuggerJustMyCode

; 42   :         return _Ptr->_Myval;

  00036	48 8b 85 e0 00
	00 00		 mov	 rax, QWORD PTR this$[rbp]
  0003d	48 8b 00	 mov	 rax, QWORD PTR [rax]
  00040	48 83 c0 10	 add	 rax, 16

; 43   :     }

  00044	48 8d a5 c8 00
	00 00		 lea	 rsp, QWORD PTR [rbp+200]
  0004b	5f		 pop	 rdi
  0004c	5d		 pop	 rbp
  0004d	c3		 ret	 0
??D?$_List_unchecked_const_iterator@V?$_List_val@U?$_List_simple_types@PEAVObjector@@@std@@@std@@U_Iterator_base0@2@@std@@QEBAAEBQEAVObjector@@XZ ENDP ; std::_List_unchecked_const_iterator<std::_List_val<std::_List_simple_types<Objector *> >,std::_Iterator_base0>::operator*
_TEXT	ENDS
; Function compile flags: /Odtp /RTCsu /ZI
; File C:\Program Files (x86)\Microsoft Visual Studio\2019\Enterprise\VC\Tools\MSVC\14.23.28105\include\list
;	COMDAT ??0?$_List_unchecked_const_iterator@V?$_List_val@U?$_List_simple_types@PEAVObjector@@@std@@@std@@U_Iterator_base0@2@@std@@QEAA@PEAU?$_List_node@PEAVObjector@@PEAX@1@PEBV?$_List_val@U?$_List_simple_types@PEAVObjector@@@std@@@1@@Z
_TEXT	SEGMENT
this$ = 224
_Pnode$ = 232
_Plist$ = 240
??0?$_List_unchecked_const_iterator@V?$_List_val@U?$_List_simple_types@PEAVObjector@@@std@@@std@@U_Iterator_base0@2@@std@@QEAA@PEAU?$_List_node@PEAVObjector@@PEAX@1@PEBV?$_List_val@U?$_List_simple_types@PEAVObjector@@@std@@@1@@Z PROC ; std::_List_unchecked_const_iterator<std::_List_val<std::_List_simple_types<Objector *> >,std::_Iterator_base0>::_List_unchecked_const_iterator<std::_List_val<std::_List_simple_types<Objector *> >,std::_Iterator_base0>, COMDAT

; 36   :     _List_unchecked_const_iterator(_Nodeptr _Pnode, const _Mylist* _Plist)

$LN3:
  00000	4c 89 44 24 18	 mov	 QWORD PTR [rsp+24], r8
  00005	48 89 54 24 10	 mov	 QWORD PTR [rsp+16], rdx
  0000a	48 89 4c 24 08	 mov	 QWORD PTR [rsp+8], rcx
  0000f	55		 push	 rbp
  00010	57		 push	 rdi
  00011	48 81 ec e8 00
	00 00		 sub	 rsp, 232		; 000000e8H
  00018	48 8d 6c 24 20	 lea	 rbp, QWORD PTR [rsp+32]
  0001d	48 8b fc	 mov	 rdi, rsp
  00020	b9 3a 00 00 00	 mov	 ecx, 58			; 0000003aH
  00025	b8 cc cc cc cc	 mov	 eax, -858993460		; ccccccccH
  0002a	f3 ab		 rep stosd
  0002c	48 8b 8c 24 08
	01 00 00	 mov	 rcx, QWORD PTR [rsp+264]
  00034	48 8d 0d 00 00
	00 00		 lea	 rcx, OFFSET FLAT:__2EF0BD34_list
  0003b	e8 00 00 00 00	 call	 __CheckForDebuggerJustMyCode

; 37   :         : _Ptr(_Pnode) { // construct with node pointer _Pnode

  00040	48 8b 85 e0 00
	00 00		 mov	 rax, QWORD PTR this$[rbp]
  00047	48 8b 8d e8 00
	00 00		 mov	 rcx, QWORD PTR _Pnode$[rbp]
  0004e	48 89 08	 mov	 QWORD PTR [rax], rcx

; 38   :         this->_Adopt(_Plist);

  00051	48 8b 95 f0 00
	00 00		 mov	 rdx, QWORD PTR _Plist$[rbp]
  00058	48 8b 8d e0 00
	00 00		 mov	 rcx, QWORD PTR this$[rbp]
  0005f	e8 00 00 00 00	 call	 ?_Adopt@_Iterator_base0@std@@QEAAXPEBX@Z ; std::_Iterator_base0::_Adopt

; 39   :     }

  00064	48 8b 85 e0 00
	00 00		 mov	 rax, QWORD PTR this$[rbp]
  0006b	48 8d a5 c8 00
	00 00		 lea	 rsp, QWORD PTR [rbp+200]
  00072	5f		 pop	 rdi
  00073	5d		 pop	 rbp
  00074	c3		 ret	 0
??0?$_List_unchecked_const_iterator@V?$_List_val@U?$_List_simple_types@PEAVObjector@@@std@@@std@@U_Iterator_base0@2@@std@@QEAA@PEAU?$_List_node@PEAVObjector@@PEAX@1@PEBV?$_List_val@U?$_List_simple_types@PEAVObjector@@@std@@@1@@Z ENDP ; std::_List_unchecked_const_iterator<std::_List_val<std::_List_simple_types<Objector *> >,std::_Iterator_base0>::_List_unchecked_const_iterator<std::_List_val<std::_List_simple_types<Objector *> >,std::_Iterator_base0>
_TEXT	ENDS
; Function compile flags: /Odtp /RTCsu /ZI
; File C:\Program Files (x86)\Microsoft Visual Studio\2019\Enterprise\VC\Tools\MSVC\14.23.28105\include\list
;	COMDAT ??1_List_node_remove_op@?$list@PEAVObjector@@V?$allocator@PEAVObjector@@@std@@@std@@QEAA@XZ
_TEXT	SEGMENT
_Al$ = 8
_Lock$4 = 36
_Pnext$5 = 72
_Pnextnext$6 = 104
_Pnextptr$7 = 136
_Target$ = 168
_Next$8 = 200
tv135 = 408
__$ArrayPad$ = 416
this$ = 464
??1_List_node_remove_op@?$list@PEAVObjector@@V?$allocator@PEAVObjector@@@std@@@std@@QEAA@XZ PROC ; std::list<Objector *,std::allocator<Objector *> >::_List_node_remove_op::~_List_node_remove_op, COMDAT

; 1439 :         ~_List_node_remove_op() {

$LN9:
  00000	48 89 4c 24 08	 mov	 QWORD PTR [rsp+8], rcx
  00005	55		 push	 rbp
  00006	57		 push	 rdi
  00007	48 81 ec d8 01
	00 00		 sub	 rsp, 472		; 000001d8H
  0000e	48 8d 6c 24 20	 lea	 rbp, QWORD PTR [rsp+32]
  00013	48 8b fc	 mov	 rdi, rsp
  00016	b9 76 00 00 00	 mov	 ecx, 118		; 00000076H
  0001b	b8 cc cc cc cc	 mov	 eax, -858993460		; ccccccccH
  00020	f3 ab		 rep stosd
  00022	48 8b 8c 24 f8
	01 00 00	 mov	 rcx, QWORD PTR [rsp+504]
  0002a	48 8b 05 00 00
	00 00		 mov	 rax, QWORD PTR __security_cookie
  00031	48 33 c5	 xor	 rax, rbp
  00034	48 89 85 a0 01
	00 00		 mov	 QWORD PTR __$ArrayPad$[rbp], rax
  0003b	48 8d 0d 00 00
	00 00		 lea	 rcx, OFFSET FLAT:__2EF0BD34_list
  00042	e8 00 00 00 00	 call	 __CheckForDebuggerJustMyCode
  00047	90		 npad	 1

; 1440 :             auto& _Al = _List._Getal();

  00048	48 8b 85 d0 01
	00 00		 mov	 rax, QWORD PTR this$[rbp]
  0004f	48 8b 08	 mov	 rcx, QWORD PTR [rax]
  00052	e8 00 00 00 00	 call	 ?_Getal@?$list@PEAVObjector@@V?$allocator@PEAVObjector@@@std@@@std@@AEAAAEAV?$allocator@U?$_List_node@PEAVObjector@@PEAX@std@@@2@XZ ; std::list<Objector *,std::allocator<Objector *> >::_Getal
  00057	90		 npad	 1
  00058	48 89 45 08	 mov	 QWORD PTR _Al$[rbp], rax

; 1441 : 
; 1442 : #if _ITERATOR_DEBUG_LEVEL == 2
; 1443 :             {
; 1444 :                 _Lockit _Lock(_LOCK_DEBUG);

  0005c	ba 03 00 00 00	 mov	 edx, 3
  00061	48 8d 4d 24	 lea	 rcx, QWORD PTR _Lock$4[rbp]
  00065	ff 15 00 00 00
	00		 call	 QWORD PTR __imp_??0_Lockit@std@@QEAA@H@Z
  0006b	90		 npad	 1

; 1445 :                 _Iterator_base12** _Pnext = &_List._Mypair._Myval2._Myproxy->_Myfirstiter;

  0006c	48 8b 85 d0 01
	00 00		 mov	 rax, QWORD PTR this$[rbp]
  00073	48 8b 00	 mov	 rax, QWORD PTR [rax]
  00076	48 8b 00	 mov	 rax, QWORD PTR [rax]
  00079	48 83 c0 08	 add	 rax, 8
  0007d	48 89 45 48	 mov	 QWORD PTR _Pnext$5[rbp], rax
$LN2@List_node_:

; 1446 :                 while (*_Pnext) {

  00081	48 8b 45 48	 mov	 rax, QWORD PTR _Pnext$5[rbp]
  00085	48 83 38 00	 cmp	 QWORD PTR [rax], 0
  00089	74 57		 je	 SHORT $LN3@List_node_

; 1447 :                     _Iterator_base12** _Pnextnext = &(*_Pnext)->_Mynextiter;

  0008b	48 8b 45 48	 mov	 rax, QWORD PTR _Pnext$5[rbp]
  0008f	48 8b 00	 mov	 rax, QWORD PTR [rax]
  00092	48 83 c0 08	 add	 rax, 8
  00096	48 89 45 68	 mov	 QWORD PTR _Pnextnext$6[rbp], rax

; 1448 :                     const auto _Pnextptr          = static_cast<const_iterator&>(**_Pnext)._Ptr;

  0009a	48 8b 45 48	 mov	 rax, QWORD PTR _Pnext$5[rbp]
  0009e	48 8b 00	 mov	 rax, QWORD PTR [rax]
  000a1	48 8b 40 10	 mov	 rax, QWORD PTR [rax+16]
  000a5	48 89 85 88 00
	00 00		 mov	 QWORD PTR _Pnextptr$7[rbp], rax

; 1449 :                     if (_Pnextptr->_Prev) {

  000ac	48 8b 85 88 00
	00 00		 mov	 rax, QWORD PTR _Pnextptr$7[rbp]
  000b3	48 83 78 08 00	 cmp	 QWORD PTR [rax+8], 0
  000b8	74 0a		 je	 SHORT $LN6@List_node_

; 1450 :                         // iterator doesn't point to one of the elements we're removing
; 1451 :                         _Pnext = _Pnextnext;

  000ba	48 8b 45 68	 mov	 rax, QWORD PTR _Pnextnext$6[rbp]
  000be	48 89 45 48	 mov	 QWORD PTR _Pnext$5[rbp], rax

; 1452 :                     } else { // orphan the iterator

  000c2	eb 1c		 jmp	 SHORT $LN7@List_node_
$LN6@List_node_:

; 1453 :                         (*_Pnext)->_Myproxy = nullptr;

  000c4	48 8b 45 48	 mov	 rax, QWORD PTR _Pnext$5[rbp]
  000c8	48 8b 00	 mov	 rax, QWORD PTR [rax]
  000cb	48 c7 00 00 00
	00 00		 mov	 QWORD PTR [rax], 0

; 1454 :                         *_Pnext             = *_Pnextnext;

  000d2	48 8b 45 48	 mov	 rax, QWORD PTR _Pnext$5[rbp]
  000d6	48 8b 4d 68	 mov	 rcx, QWORD PTR _Pnextnext$6[rbp]
  000da	48 8b 09	 mov	 rcx, QWORD PTR [rcx]
  000dd	48 89 08	 mov	 QWORD PTR [rax], rcx
$LN7@List_node_:

; 1455 :                     }
; 1456 :                 }

  000e0	eb 9f		 jmp	 SHORT $LN2@List_node_
$LN3@List_node_:

; 1457 :             }

  000e2	48 8d 4d 24	 lea	 rcx, QWORD PTR _Lock$4[rbp]
  000e6	ff 15 00 00 00
	00		 call	 QWORD PTR __imp_??1_Lockit@std@@QEAA@XZ
  000ec	90		 npad	 1

; 1458 : #endif // _ITERATOR_DEBUG_LEVEL == 2
; 1459 : 
; 1460 :             auto _Target = _Head;

  000ed	48 8b 85 d0 01
	00 00		 mov	 rax, QWORD PTR this$[rbp]
  000f4	48 8b 40 08	 mov	 rax, QWORD PTR [rax+8]
  000f8	48 89 85 a8 00
	00 00		 mov	 QWORD PTR _Target$[rbp], rax
$LN4@List_node_:

; 1461 :             while (_Target) {

  000ff	48 83 bd a8 00
	00 00 00	 cmp	 QWORD PTR _Target$[rbp], 0
  00107	0f 84 bf 00 00
	00		 je	 $LN5@List_node_

; 1462 :                 auto _Next = _Target->_Next;

  0010d	48 8b 85 a8 00
	00 00		 mov	 rax, QWORD PTR _Target$[rbp]
  00114	48 8b 00	 mov	 rax, QWORD PTR [rax]
  00117	48 89 85 c8 00
	00 00		 mov	 QWORD PTR _Next$8[rbp], rax

; 1463 :                 _List._Mypair._Myval2._Orphan_ptr2(_Target);

  0011e	48 8b 85 d0 01
	00 00		 mov	 rax, QWORD PTR this$[rbp]
  00125	48 8b 00	 mov	 rax, QWORD PTR [rax]
  00128	48 89 85 98 01
	00 00		 mov	 QWORD PTR tv135[rbp], rax
  0012f	48 8b 95 a8 00
	00 00		 mov	 rdx, QWORD PTR _Target$[rbp]
  00136	48 8b 8d 98 01
	00 00		 mov	 rcx, QWORD PTR tv135[rbp]
  0013d	e8 00 00 00 00	 call	 ?_Orphan_ptr2@?$_List_val@U?$_List_simple_types@PEAVObjector@@@std@@@std@@QEAAXPEAU?$_List_node@PEAVObjector@@PEAX@2@@Z ; std::_List_val<std::_List_simple_types<Objector *> >::_Orphan_ptr2
  00142	90		 npad	 1

; 1464 :                 _Alnode_traits::destroy(_Al, _STD addressof(_Target->_Next));

  00143	48 8b 85 a8 00
	00 00		 mov	 rax, QWORD PTR _Target$[rbp]
  0014a	48 8b c8	 mov	 rcx, rax
  0014d	e8 00 00 00 00	 call	 ??$addressof@PEAU?$_List_node@PEAVObjector@@PEAX@std@@@std@@YAPEAPEAU?$_List_node@PEAVObjector@@PEAX@0@AEAPEAU10@@Z ; std::addressof<std::_List_node<Objector *,void *> *>
  00152	90		 npad	 1
  00153	48 8b d0	 mov	 rdx, rax
  00156	48 8b 4d 08	 mov	 rcx, QWORD PTR _Al$[rbp]
  0015a	e8 00 00 00 00	 call	 ??$destroy@PEAU?$_List_node@PEAVObjector@@PEAX@std@@@?$_Default_allocator_traits@V?$allocator@U?$_List_node@PEAVObjector@@PEAX@std@@@std@@@std@@SAXAEAV?$allocator@U?$_List_node@PEAVObjector@@PEAX@std@@@1@QEAPEAU?$_List_node@PEAVObjector@@PEAX@1@@Z ; std::_Default_allocator_traits<std::allocator<std::_List_node<Objector *,void *> > >::destroy<std::_List_node<Objector *,void *> *>
  0015f	90		 npad	 1

; 1465 :                 _Alnode_traits::destroy(_Al, _STD addressof(_Target->_Prev));

  00160	48 8b 85 a8 00
	00 00		 mov	 rax, QWORD PTR _Target$[rbp]
  00167	48 83 c0 08	 add	 rax, 8
  0016b	48 8b c8	 mov	 rcx, rax
  0016e	e8 00 00 00 00	 call	 ??$addressof@PEAU?$_List_node@PEAVObjector@@PEAX@std@@@std@@YAPEAPEAU?$_List_node@PEAVObjector@@PEAX@0@AEAPEAU10@@Z ; std::addressof<std::_List_node<Objector *,void *> *>
  00173	90		 npad	 1
  00174	48 8b d0	 mov	 rdx, rax
  00177	48 8b 4d 08	 mov	 rcx, QWORD PTR _Al$[rbp]
  0017b	e8 00 00 00 00	 call	 ??$destroy@PEAU?$_List_node@PEAVObjector@@PEAX@std@@@?$_Default_allocator_traits@V?$allocator@U?$_List_node@PEAVObjector@@PEAX@std@@@std@@@std@@SAXAEAV?$allocator@U?$_List_node@PEAVObjector@@PEAX@std@@@1@QEAPEAU?$_List_node@PEAVObjector@@PEAX@1@@Z ; std::_Default_allocator_traits<std::allocator<std::_List_node<Objector *,void *> > >::destroy<std::_List_node<Objector *,void *> *>
  00180	90		 npad	 1

; 1466 :                 _Alnode_traits::destroy(_Al, _STD addressof(_Target->_Myval));

  00181	48 8b 85 a8 00
	00 00		 mov	 rax, QWORD PTR _Target$[rbp]
  00188	48 83 c0 10	 add	 rax, 16
  0018c	48 8b c8	 mov	 rcx, rax
  0018f	e8 00 00 00 00	 call	 ??$addressof@PEAVObjector@@@std@@YAPEAPEAVObjector@@AEAPEAV1@@Z ; std::addressof<Objector *>
  00194	90		 npad	 1
  00195	48 8b d0	 mov	 rdx, rax
  00198	48 8b 4d 08	 mov	 rcx, QWORD PTR _Al$[rbp]
  0019c	e8 00 00 00 00	 call	 ??$destroy@PEAVObjector@@@?$_Default_allocator_traits@V?$allocator@U?$_List_node@PEAVObjector@@PEAX@std@@@std@@@std@@SAXAEAV?$allocator@U?$_List_node@PEAVObjector@@PEAX@std@@@1@QEAPEAVObjector@@@Z ; std::_Default_allocator_traits<std::allocator<std::_List_node<Objector *,void *> > >::destroy<Objector *>
  001a1	90		 npad	 1

; 1467 :                 _Al.deallocate(_Target, 1);

  001a2	41 b8 01 00 00
	00		 mov	 r8d, 1
  001a8	48 8b 95 a8 00
	00 00		 mov	 rdx, QWORD PTR _Target$[rbp]
  001af	48 8b 4d 08	 mov	 rcx, QWORD PTR _Al$[rbp]
  001b3	e8 00 00 00 00	 call	 ?deallocate@?$allocator@U?$_List_node@PEAVObjector@@PEAX@std@@@std@@QEAAXQEAU?$_List_node@PEAVObjector@@PEAX@2@_K@Z ; std::allocator<std::_List_node<Objector *,void *> >::deallocate
  001b8	90		 npad	 1

; 1468 :                 _Target = _Next;

  001b9	48 8b 85 c8 00
	00 00		 mov	 rax, QWORD PTR _Next$8[rbp]
  001c0	48 89 85 a8 00
	00 00		 mov	 QWORD PTR _Target$[rbp], rax

; 1469 :             }

  001c7	e9 33 ff ff ff	 jmp	 $LN4@List_node_
$LN5@List_node_:

; 1470 :         }

  001cc	48 8d 4d e0	 lea	 rcx, QWORD PTR [rbp-32]
  001d0	48 8d 15 00 00
	00 00		 lea	 rdx, OFFSET FLAT:??1_List_node_remove_op@?$list@PEAVObjector@@V?$allocator@PEAVObjector@@@std@@@std@@QEAA@XZ$rtcFrameData
  001d7	e8 00 00 00 00	 call	 _RTC_CheckStackVars
  001dc	90		 npad	 1
  001dd	48 8b 8d a0 01
	00 00		 mov	 rcx, QWORD PTR __$ArrayPad$[rbp]
  001e4	48 33 cd	 xor	 rcx, rbp
  001e7	e8 00 00 00 00	 call	 __security_check_cookie
  001ec	90		 npad	 1
  001ed	48 8d a5 b8 01
	00 00		 lea	 rsp, QWORD PTR [rbp+440]
  001f4	5f		 pop	 rdi
  001f5	5d		 pop	 rbp
  001f6	c3		 ret	 0
??1_List_node_remove_op@?$list@PEAVObjector@@V?$allocator@PEAVObjector@@@std@@@std@@QEAA@XZ ENDP ; std::list<Objector *,std::allocator<Objector *> >::_List_node_remove_op::~_List_node_remove_op
_TEXT	ENDS
; Function compile flags: /Odtp /RTCsu /ZI
; File C:\Program Files (x86)\Microsoft Visual Studio\2019\Enterprise\VC\Tools\MSVC\14.23.28105\include\list
;	COMDAT ?_Transfer_back@_List_node_remove_op@?$list@PEAVObjector@@V?$allocator@PEAVObjector@@@std@@@std@@QEAAPEAU?$_List_node@PEAVObjector@@PEAX@3@QEAU43@@Z
_TEXT	SEGMENT
_Next$ = 8
_Prev$ = 40
$T1 = 264
this$ = 320
_Removed$ = 328
?_Transfer_back@_List_node_remove_op@?$list@PEAVObjector@@V?$allocator@PEAVObjector@@@std@@@std@@QEAAPEAU?$_List_node@PEAVObjector@@PEAX@3@QEAU43@@Z PROC ; std::list<Objector *,std::allocator<Objector *> >::_List_node_remove_op::_Transfer_back, COMDAT

; 1416 :         _Nodeptr _Transfer_back(const _Nodeptr _Removed) noexcept {

$LN3:
  00000	48 89 54 24 10	 mov	 QWORD PTR [rsp+16], rdx
  00005	48 89 4c 24 08	 mov	 QWORD PTR [rsp+8], rcx
  0000a	55		 push	 rbp
  0000b	57		 push	 rdi
  0000c	48 81 ec 48 01
	00 00		 sub	 rsp, 328		; 00000148H
  00013	48 8d 6c 24 20	 lea	 rbp, QWORD PTR [rsp+32]
  00018	48 8b fc	 mov	 rdi, rsp
  0001b	b9 52 00 00 00	 mov	 ecx, 82			; 00000052H
  00020	b8 cc cc cc cc	 mov	 eax, -858993460		; ccccccccH
  00025	f3 ab		 rep stosd
  00027	48 8b 8c 24 68
	01 00 00	 mov	 rcx, QWORD PTR [rsp+360]
  0002f	48 8d 0d 00 00
	00 00		 lea	 rcx, OFFSET FLAT:__2EF0BD34_list
  00036	e8 00 00 00 00	 call	 __CheckForDebuggerJustMyCode
  0003b	90		 npad	 1

; 1417 :             // extract _Removed from the list, and add it to the singly-linked list of nodes to destroy
; 1418 :             // returns the node after _Removed
; 1419 :             _STL_INTERNAL_CHECK(_List._Mypair._Myval2._Myhead != _Removed);
; 1420 : 
; 1421 :             // snip the node out
; 1422 :             --_List._Mypair._Myval2._Mysize;

  0003c	48 8b 85 40 01
	00 00		 mov	 rax, QWORD PTR this$[rbp]
  00043	48 8b 00	 mov	 rax, QWORD PTR [rax]
  00046	48 8b 40 10	 mov	 rax, QWORD PTR [rax+16]
  0004a	48 ff c8	 dec	 rax
  0004d	48 8b 8d 40 01
	00 00		 mov	 rcx, QWORD PTR this$[rbp]
  00054	48 8b 09	 mov	 rcx, QWORD PTR [rcx]
  00057	48 89 41 10	 mov	 QWORD PTR [rcx+16], rax

; 1423 :             const auto _Next = _STD exchange(_Removed->_Next, _Nodeptr());

  0005b	48 c7 85 08 01
	00 00 00 00 00
	00		 mov	 QWORD PTR $T1[rbp], 0
  00066	48 8b 85 48 01
	00 00		 mov	 rax, QWORD PTR _Removed$[rbp]
  0006d	48 8d 95 08 01
	00 00		 lea	 rdx, QWORD PTR $T1[rbp]
  00074	48 8b c8	 mov	 rcx, rax
  00077	e8 00 00 00 00	 call	 ??$exchange@PEAU?$_List_node@PEAVObjector@@PEAX@std@@PEAU12@@std@@YAPEAU?$_List_node@PEAVObjector@@PEAX@0@AEAPEAU10@$$QEAPEAU10@@Z ; std::exchange<std::_List_node<Objector *,void *> *,std::_List_node<Objector *,void *> *>
  0007c	90		 npad	 1
  0007d	48 89 45 08	 mov	 QWORD PTR _Next$[rbp], rax

; 1424 :             const auto _Prev = _Removed->_Prev;

  00081	48 8b 85 48 01
	00 00		 mov	 rax, QWORD PTR _Removed$[rbp]
  00088	48 8b 40 08	 mov	 rax, QWORD PTR [rax+8]
  0008c	48 89 45 28	 mov	 QWORD PTR _Prev$[rbp], rax

; 1425 :             _Prev->_Next     = _Next;

  00090	48 8b 45 28	 mov	 rax, QWORD PTR _Prev$[rbp]
  00094	48 8b 4d 08	 mov	 rcx, QWORD PTR _Next$[rbp]
  00098	48 89 08	 mov	 QWORD PTR [rax], rcx

; 1426 :             _Next->_Prev     = _Prev;

  0009b	48 8b 45 08	 mov	 rax, QWORD PTR _Next$[rbp]
  0009f	48 8b 4d 28	 mov	 rcx, QWORD PTR _Prev$[rbp]
  000a3	48 89 48 08	 mov	 QWORD PTR [rax+8], rcx

; 1427 : 
; 1428 : #if _ITERATOR_DEBUG_LEVEL == 2
; 1429 :             // mark removed node for IDL to snip out later
; 1430 :             _Removed->_Prev = _Nodeptr();

  000a7	48 8b 85 48 01
	00 00		 mov	 rax, QWORD PTR _Removed$[rbp]
  000ae	48 c7 40 08 00
	00 00 00	 mov	 QWORD PTR [rax+8], 0

; 1431 : #endif // _ITERATOR_DEBUG_LEVEL == 2
; 1432 : 
; 1433 :             *_Tail = _Removed;

  000b6	48 8b 85 40 01
	00 00		 mov	 rax, QWORD PTR this$[rbp]
  000bd	48 8b 40 10	 mov	 rax, QWORD PTR [rax+16]
  000c1	48 8b 8d 48 01
	00 00		 mov	 rcx, QWORD PTR _Removed$[rbp]
  000c8	48 89 08	 mov	 QWORD PTR [rax], rcx

; 1434 :             _Tail  = _STD addressof(_Removed->_Next);

  000cb	48 8b 85 48 01
	00 00		 mov	 rax, QWORD PTR _Removed$[rbp]
  000d2	48 8b c8	 mov	 rcx, rax
  000d5	e8 00 00 00 00	 call	 ??$addressof@PEAU?$_List_node@PEAVObjector@@PEAX@std@@@std@@YAPEAPEAU?$_List_node@PEAVObjector@@PEAX@0@AEAPEAU10@@Z ; std::addressof<std::_List_node<Objector *,void *> *>
  000da	90		 npad	 1
  000db	48 8b 8d 40 01
	00 00		 mov	 rcx, QWORD PTR this$[rbp]
  000e2	48 89 41 10	 mov	 QWORD PTR [rcx+16], rax

; 1435 : 
; 1436 :             return _Next;

  000e6	48 8b 45 08	 mov	 rax, QWORD PTR _Next$[rbp]

; 1437 :         }

  000ea	48 8d a5 28 01
	00 00		 lea	 rsp, QWORD PTR [rbp+296]
  000f1	5f		 pop	 rdi
  000f2	5d		 pop	 rbp
  000f3	c3		 ret	 0
?_Transfer_back@_List_node_remove_op@?$list@PEAVObjector@@V?$allocator@PEAVObjector@@@std@@@std@@QEAAPEAU?$_List_node@PEAVObjector@@PEAX@3@QEAU43@@Z ENDP ; std::list<Objector *,std::allocator<Objector *> >::_List_node_remove_op::_Transfer_back
_TEXT	ENDS
; Function compile flags: /Odtp /RTCsu /ZI
; File C:\Program Files (x86)\Microsoft Visual Studio\2019\Enterprise\VC\Tools\MSVC\14.23.28105\include\list
;	COMDAT ??0_List_node_remove_op@?$list@PEAVObjector@@V?$allocator@PEAVObjector@@@std@@@std@@QEAA@AEAV12@@Z
_TEXT	SEGMENT
this$ = 224
_List_$ = 232
??0_List_node_remove_op@?$list@PEAVObjector@@V?$allocator@PEAVObjector@@@std@@@std@@QEAA@AEAV12@@Z PROC ; std::list<Objector *,std::allocator<Objector *> >::_List_node_remove_op::_List_node_remove_op, COMDAT

; 1411 :         explicit _List_node_remove_op(list& _List_) noexcept : _List(_List_), _Head(), _Tail(_STD addressof(_Head)) {}

$LN3:
  00000	48 89 54 24 10	 mov	 QWORD PTR [rsp+16], rdx
  00005	48 89 4c 24 08	 mov	 QWORD PTR [rsp+8], rcx
  0000a	55		 push	 rbp
  0000b	57		 push	 rdi
  0000c	48 81 ec e8 00
	00 00		 sub	 rsp, 232		; 000000e8H
  00013	48 8d 6c 24 20	 lea	 rbp, QWORD PTR [rsp+32]
  00018	48 8b fc	 mov	 rdi, rsp
  0001b	b9 3a 00 00 00	 mov	 ecx, 58			; 0000003aH
  00020	b8 cc cc cc cc	 mov	 eax, -858993460		; ccccccccH
  00025	f3 ab		 rep stosd
  00027	48 8b 8c 24 08
	01 00 00	 mov	 rcx, QWORD PTR [rsp+264]
  0002f	48 8d 0d 00 00
	00 00		 lea	 rcx, OFFSET FLAT:__2EF0BD34_list
  00036	e8 00 00 00 00	 call	 __CheckForDebuggerJustMyCode
  0003b	90		 npad	 1
  0003c	48 8b 85 e0 00
	00 00		 mov	 rax, QWORD PTR this$[rbp]
  00043	48 8b 8d e8 00
	00 00		 mov	 rcx, QWORD PTR _List_$[rbp]
  0004a	48 89 08	 mov	 QWORD PTR [rax], rcx
  0004d	48 8b 85 e0 00
	00 00		 mov	 rax, QWORD PTR this$[rbp]
  00054	48 c7 40 08 00
	00 00 00	 mov	 QWORD PTR [rax+8], 0
  0005c	48 8b 85 e0 00
	00 00		 mov	 rax, QWORD PTR this$[rbp]
  00063	48 83 c0 08	 add	 rax, 8
  00067	48 8b c8	 mov	 rcx, rax
  0006a	e8 00 00 00 00	 call	 ??$addressof@PEAU?$_List_node@PEAVObjector@@PEAX@std@@@std@@YAPEAPEAU?$_List_node@PEAVObjector@@PEAX@0@AEAPEAU10@@Z ; std::addressof<std::_List_node<Objector *,void *> *>
  0006f	90		 npad	 1
  00070	48 8b 8d e0 00
	00 00		 mov	 rcx, QWORD PTR this$[rbp]
  00077	48 89 41 10	 mov	 QWORD PTR [rcx+16], rax
  0007b	48 8b 85 e0 00
	00 00		 mov	 rax, QWORD PTR this$[rbp]
  00082	48 8d a5 c8 00
	00 00		 lea	 rsp, QWORD PTR [rbp+200]
  00089	5f		 pop	 rdi
  0008a	5d		 pop	 rbp
  0008b	c3		 ret	 0
??0_List_node_remove_op@?$list@PEAVObjector@@V?$allocator@PEAVObjector@@@std@@@std@@QEAA@AEAV12@@Z ENDP ; std::list<Objector *,std::allocator<Objector *> >::_List_node_remove_op::_List_node_remove_op
_TEXT	ENDS
; Function compile flags: /Odtp /RTCsu /ZI
; File C:\Program Files (x86)\Microsoft Visual Studio\2019\Enterprise\VC\Tools\MSVC\14.23.28105\include\list
;	COMDAT ??$remove_if@V<lambda_1>@?1??remove@?$list@PEAVObjector@@V?$allocator@PEAVObjector@@@std@@@std@@QEAA@AEBQEAVObjector@@@Z@@?$list@PEAVObjector@@V?$allocator@PEAVObjector@@@std@@@std@@QEAA@V<lambda_1>@?1??remove@01@QEAA@AEBQEAVObjector@@@Z@@Z
_TEXT	SEGMENT
_My_data$ = 8
_Op$ = 40
_Last$ = 88
_Oldsize$ = 120
_First$4 = 152
_Next$5 = 184
$T6 = 408
__$ArrayPad$ = 424
this$ = 464
_Pred$ = 472
??$remove_if@V<lambda_1>@?1??remove@?$list@PEAVObjector@@V?$allocator@PEAVObjector@@@std@@@std@@QEAA@AEBQEAVObjector@@@Z@@?$list@PEAVObjector@@V?$allocator@PEAVObjector@@@std@@@std@@QEAA@V<lambda_1>@?1??remove@01@QEAA@AEBQEAVObjector@@@Z@@Z PROC ; std::list<Objector *,std::allocator<Objector *> >::remove_if<`std::list<Objector *,std::allocator<Objector *> >::remove'::`2'::<lambda_1> >, COMDAT

; 1482 :     auto remove_if(_Pr1 _Pred) { // erase each element satisfying _Pred

$LN8:
  00000	48 89 54 24 10	 mov	 QWORD PTR [rsp+16], rdx
  00005	48 89 4c 24 08	 mov	 QWORD PTR [rsp+8], rcx
  0000a	55		 push	 rbp
  0000b	57		 push	 rdi
  0000c	48 81 ec d8 01
	00 00		 sub	 rsp, 472		; 000001d8H
  00013	48 8d 6c 24 20	 lea	 rbp, QWORD PTR [rsp+32]
  00018	48 8b fc	 mov	 rdi, rsp
  0001b	b9 76 00 00 00	 mov	 ecx, 118		; 00000076H
  00020	b8 cc cc cc cc	 mov	 eax, -858993460		; ccccccccH
  00025	f3 ab		 rep stosd
  00027	48 8b 8c 24 f8
	01 00 00	 mov	 rcx, QWORD PTR [rsp+504]
  0002f	48 8b 05 00 00
	00 00		 mov	 rax, QWORD PTR __security_cookie
  00036	48 33 c5	 xor	 rax, rbp
  00039	48 89 85 a8 01
	00 00		 mov	 QWORD PTR __$ArrayPad$[rbp], rax
  00040	48 8d 0d 00 00
	00 00		 lea	 rcx, OFFSET FLAT:__2EF0BD34_list
  00047	e8 00 00 00 00	 call	 __CheckForDebuggerJustMyCode

; 1483 :         auto& _My_data = _Mypair._Myval2;

  0004c	48 8b 85 d0 01
	00 00		 mov	 rax, QWORD PTR this$[rbp]
  00053	48 89 45 08	 mov	 QWORD PTR _My_data$[rbp], rax

; 1484 :         _List_node_remove_op _Op(*this);

  00057	48 8b 95 d0 01
	00 00		 mov	 rdx, QWORD PTR this$[rbp]
  0005e	48 8d 4d 28	 lea	 rcx, QWORD PTR _Op$[rbp]
  00062	e8 00 00 00 00	 call	 ??0_List_node_remove_op@?$list@PEAVObjector@@V?$allocator@PEAVObjector@@@std@@@std@@QEAA@AEAV12@@Z ; std::list<Objector *,std::allocator<Objector *> >::_List_node_remove_op::_List_node_remove_op
  00067	90		 npad	 1

; 1485 :         const auto _Last         = _My_data._Myhead;

  00068	48 8b 45 08	 mov	 rax, QWORD PTR _My_data$[rbp]
  0006c	48 8b 40 08	 mov	 rax, QWORD PTR [rax+8]
  00070	48 89 45 58	 mov	 QWORD PTR _Last$[rbp], rax

; 1486 :         const size_type _Oldsize = _My_data._Mysize;

  00074	48 8b 45 08	 mov	 rax, QWORD PTR _My_data$[rbp]
  00078	48 8b 40 10	 mov	 rax, QWORD PTR [rax+16]
  0007c	48 89 45 78	 mov	 QWORD PTR _Oldsize$[rbp], rax

; 1487 :         for (auto _First = _Last->_Next; _First != _Last;) {

  00080	48 8b 45 58	 mov	 rax, QWORD PTR _Last$[rbp]
  00084	48 8b 00	 mov	 rax, QWORD PTR [rax]
  00087	48 89 85 98 00
	00 00		 mov	 QWORD PTR _First$4[rbp], rax
$LN2@remove_if:
  0008e	48 8b 45 58	 mov	 rax, QWORD PTR _Last$[rbp]
  00092	48 39 85 98 00
	00 00		 cmp	 QWORD PTR _First$4[rbp], rax
  00099	74 52		 je	 SHORT $LN3@remove_if

; 1488 :             auto _Next = _First->_Next;

  0009b	48 8b 85 98 00
	00 00		 mov	 rax, QWORD PTR _First$4[rbp]
  000a2	48 8b 00	 mov	 rax, QWORD PTR [rax]
  000a5	48 89 85 b8 00
	00 00		 mov	 QWORD PTR _Next$5[rbp], rax

; 1489 :             if (_Pred(_First->_Myval)) {

  000ac	48 8b 85 98 00
	00 00		 mov	 rax, QWORD PTR _First$4[rbp]
  000b3	48 83 c0 10	 add	 rax, 16
  000b7	48 8b d0	 mov	 rdx, rax
  000ba	48 8d 8d d8 01
	00 00		 lea	 rcx, QWORD PTR _Pred$[rbp]
  000c1	e8 00 00 00 00	 call	 ??R<lambda_1>@?1??remove@?$list@PEAVObjector@@V?$allocator@PEAVObjector@@@std@@@std@@QEAA@AEBQEAVObjector@@@Z@QEBA@0@Z ; `std::list<Objector *,std::allocator<Objector *> >::remove'::`2'::<lambda_1>::operator()
  000c6	0f b6 c0	 movzx	 eax, al
  000c9	85 c0		 test	 eax, eax
  000cb	74 10		 je	 SHORT $LN5@remove_if

; 1490 :                 _Op._Transfer_back(_First);

  000cd	48 8b 95 98 00
	00 00		 mov	 rdx, QWORD PTR _First$4[rbp]
  000d4	48 8d 4d 28	 lea	 rcx, QWORD PTR _Op$[rbp]
  000d8	e8 00 00 00 00	 call	 ?_Transfer_back@_List_node_remove_op@?$list@PEAVObjector@@V?$allocator@PEAVObjector@@@std@@@std@@QEAAPEAU?$_List_node@PEAVObjector@@PEAX@3@QEAU43@@Z ; std::list<Objector *,std::allocator<Objector *> >::_List_node_remove_op::_Transfer_back
$LN5@remove_if:

; 1491 :             }
; 1492 : 
; 1493 :             _First = _Next;

  000dd	48 8b 85 b8 00
	00 00		 mov	 rax, QWORD PTR _Next$5[rbp]
  000e4	48 89 85 98 00
	00 00		 mov	 QWORD PTR _First$4[rbp], rax

; 1494 :         }

  000eb	eb a1		 jmp	 SHORT $LN2@remove_if
$LN3@remove_if:

; 1495 : 
; 1496 : #if _HAS_CXX20
; 1497 :         return _Oldsize - _My_data._Mysize;

  000ed	48 8b 45 08	 mov	 rax, QWORD PTR _My_data$[rbp]
  000f1	48 8b 40 10	 mov	 rax, QWORD PTR [rax+16]
  000f5	48 8b 4d 78	 mov	 rcx, QWORD PTR _Oldsize$[rbp]
  000f9	48 2b c8	 sub	 rcx, rax
  000fc	48 8b c1	 mov	 rax, rcx
  000ff	48 89 85 98 01
	00 00		 mov	 QWORD PTR $T6[rbp], rax
  00106	48 8d 4d 28	 lea	 rcx, QWORD PTR _Op$[rbp]
  0010a	e8 00 00 00 00	 call	 ??1_List_node_remove_op@?$list@PEAVObjector@@V?$allocator@PEAVObjector@@@std@@@std@@QEAA@XZ ; std::list<Objector *,std::allocator<Objector *> >::_List_node_remove_op::~_List_node_remove_op
  0010f	48 8b 85 98 01
	00 00		 mov	 rax, QWORD PTR $T6[rbp]

; 1498 : #else // _HAS_CXX20
; 1499 :         (void) _Oldsize;
; 1500 : #endif // _HAS_CXX20
; 1501 :     }

  00116	48 8b f8	 mov	 rdi, rax
  00119	48 8d 4d e0	 lea	 rcx, QWORD PTR [rbp-32]
  0011d	48 8d 15 00 00
	00 00		 lea	 rdx, OFFSET FLAT:??$remove_if@V<lambda_1>@?1??remove@?$list@PEAVObjector@@V?$allocator@PEAVObjector@@@std@@@std@@QEAA@AEBQEAVObjector@@@Z@@?$list@PEAVObjector@@V?$allocator@PEAVObjector@@@std@@@std@@QEAA@V<lambda_1>@?1??remove@01@QEAA@AEBQEAVObjector@@@Z@@Z$rtcFrameData
  00124	e8 00 00 00 00	 call	 _RTC_CheckStackVars
  00129	48 8b c7	 mov	 rax, rdi
  0012c	48 8b 8d a8 01
	00 00		 mov	 rcx, QWORD PTR __$ArrayPad$[rbp]
  00133	48 33 cd	 xor	 rcx, rbp
  00136	e8 00 00 00 00	 call	 __security_check_cookie
  0013b	48 8d a5 b8 01
	00 00		 lea	 rsp, QWORD PTR [rbp+440]
  00142	5f		 pop	 rdi
  00143	5d		 pop	 rbp
  00144	c3		 ret	 0
??$remove_if@V<lambda_1>@?1??remove@?$list@PEAVObjector@@V?$allocator@PEAVObjector@@@std@@@std@@QEAA@AEBQEAVObjector@@@Z@@?$list@PEAVObjector@@V?$allocator@PEAVObjector@@@std@@@std@@QEAA@V<lambda_1>@?1??remove@01@QEAA@AEBQEAVObjector@@@Z@@Z ENDP ; std::list<Objector *,std::allocator<Objector *> >::remove_if<`std::list<Objector *,std::allocator<Objector *> >::remove'::`2'::<lambda_1> >
_TEXT	ENDS
;	COMDAT text$x
text$x	SEGMENT
_My_data$ = 8
_Op$ = 40
_Last$ = 88
_Oldsize$ = 120
_First$4 = 152
_Next$5 = 184
$T6 = 408
__$ArrayPad$ = 424
this$ = 464
_Pred$ = 472
?dtor$0@?0???$remove_if@V<lambda_1>@?1??remove@?$list@PEAVObjector@@V?$allocator@PEAVObjector@@@std@@@std@@QEAA@AEBQEAVObjector@@@Z@@?$list@PEAVObjector@@V?$allocator@PEAVObjector@@@std@@@std@@QEAA@V<lambda_1>@?1??remove@01@QEAA@AEBQEAVObjector@@@Z@@Z@4HA PROC ; `std::list<Objector *,std::allocator<Objector *> >::remove_if<`std::list<Objector *,std::allocator<Objector *> >::remove'::`2'::<lambda_1> >'::`1'::dtor$0
  00000	48 89 4c 24 08	 mov	 QWORD PTR [rsp+8], rcx
  00005	48 89 54 24 10	 mov	 QWORD PTR [rsp+16], rdx
  0000a	55		 push	 rbp
  0000b	57		 push	 rdi
  0000c	48 83 ec 28	 sub	 rsp, 40			; 00000028H
  00010	48 8d 6a 20	 lea	 rbp, QWORD PTR [rdx+32]
  00014	48 8d 4d 28	 lea	 rcx, QWORD PTR _Op$[rbp]
  00018	e8 00 00 00 00	 call	 ??1_List_node_remove_op@?$list@PEAVObjector@@V?$allocator@PEAVObjector@@@std@@@std@@QEAA@XZ ; std::list<Objector *,std::allocator<Objector *> >::_List_node_remove_op::~_List_node_remove_op
  0001d	48 83 c4 28	 add	 rsp, 40			; 00000028H
  00021	5f		 pop	 rdi
  00022	5d		 pop	 rbp
  00023	c3		 ret	 0
?dtor$0@?0???$remove_if@V<lambda_1>@?1??remove@?$list@PEAVObjector@@V?$allocator@PEAVObjector@@@std@@@std@@QEAA@AEBQEAVObjector@@@Z@@?$list@PEAVObjector@@V?$allocator@PEAVObjector@@@std@@@std@@QEAA@V<lambda_1>@?1??remove@01@QEAA@AEBQEAVObjector@@@Z@@Z@4HA ENDP ; `std::list<Objector *,std::allocator<Objector *> >::remove_if<`std::list<Objector *,std::allocator<Objector *> >::remove'::`2'::<lambda_1> >'::`1'::dtor$0
text$x	ENDS
; Function compile flags: /Odtp /RTCsu /ZI
;	COMDAT text$x
text$x	SEGMENT
_My_data$ = 8
_Op$ = 40
_Last$ = 88
_Oldsize$ = 120
_First$4 = 152
_Next$5 = 184
$T6 = 408
__$ArrayPad$ = 424
this$ = 464
_Pred$ = 472
?dtor$0@?0???$remove_if@V<lambda_1>@?1??remove@?$list@PEAVObjector@@V?$allocator@PEAVObjector@@@std@@@std@@QEAA@AEBQEAVObjector@@@Z@@?$list@PEAVObjector@@V?$allocator@PEAVObjector@@@std@@@std@@QEAA@V<lambda_1>@?1??remove@01@QEAA@AEBQEAVObjector@@@Z@@Z@4HA PROC ; `std::list<Objector *,std::allocator<Objector *> >::remove_if<`std::list<Objector *,std::allocator<Objector *> >::remove'::`2'::<lambda_1> >'::`1'::dtor$0
  00000	48 89 4c 24 08	 mov	 QWORD PTR [rsp+8], rcx
  00005	48 89 54 24 10	 mov	 QWORD PTR [rsp+16], rdx
  0000a	55		 push	 rbp
  0000b	57		 push	 rdi
  0000c	48 83 ec 28	 sub	 rsp, 40			; 00000028H
  00010	48 8d 6a 20	 lea	 rbp, QWORD PTR [rdx+32]
  00014	48 8d 4d 28	 lea	 rcx, QWORD PTR _Op$[rbp]
  00018	e8 00 00 00 00	 call	 ??1_List_node_remove_op@?$list@PEAVObjector@@V?$allocator@PEAVObjector@@@std@@@std@@QEAA@XZ ; std::list<Objector *,std::allocator<Objector *> >::_List_node_remove_op::~_List_node_remove_op
  0001d	48 83 c4 28	 add	 rsp, 40			; 00000028H
  00021	5f		 pop	 rdi
  00022	5d		 pop	 rbp
  00023	c3		 ret	 0
?dtor$0@?0???$remove_if@V<lambda_1>@?1??remove@?$list@PEAVObjector@@V?$allocator@PEAVObjector@@@std@@@std@@QEAA@AEBQEAVObjector@@@Z@@?$list@PEAVObjector@@V?$allocator@PEAVObjector@@@std@@@std@@QEAA@V<lambda_1>@?1??remove@01@QEAA@AEBQEAVObjector@@@Z@@Z@4HA ENDP ; `std::list<Objector *,std::allocator<Objector *> >::remove_if<`std::list<Objector *,std::allocator<Objector *> >::remove'::`2'::<lambda_1> >'::`1'::dtor$0
text$x	ENDS
; Function compile flags: /Odtp /RTCsu /ZI
; File C:\Program Files (x86)\Microsoft Visual Studio\2019\Enterprise\VC\Tools\MSVC\14.23.28105\include\list
;	COMDAT ??0<lambda_1>@?1??remove@?$list@PEAVObjector@@V?$allocator@PEAVObjector@@@std@@@std@@QEAA@AEBQEAVObjector@@@Z@QEAA@0@Z
_TEXT	SEGMENT
this$ = 224
___Val$ = 232
??0<lambda_1>@?1??remove@?$list@PEAVObjector@@V?$allocator@PEAVObjector@@@std@@@std@@QEAA@AEBQEAVObjector@@@Z@QEAA@0@Z PROC ; `std::list<Objector *,std::allocator<Objector *> >::remove'::`2'::<lambda_1>::<lambda_1>, COMDAT

; 1478 :         return remove_if([&](const _Ty& _Other) { return _Other == _Val; });

$LN3:
  00000	48 89 54 24 10	 mov	 QWORD PTR [rsp+16], rdx
  00005	48 89 4c 24 08	 mov	 QWORD PTR [rsp+8], rcx
  0000a	55		 push	 rbp
  0000b	57		 push	 rdi
  0000c	48 81 ec e8 00
	00 00		 sub	 rsp, 232		; 000000e8H
  00013	48 8d 6c 24 20	 lea	 rbp, QWORD PTR [rsp+32]
  00018	48 8b fc	 mov	 rdi, rsp
  0001b	b9 3a 00 00 00	 mov	 ecx, 58			; 0000003aH
  00020	b8 cc cc cc cc	 mov	 eax, -858993460		; ccccccccH
  00025	f3 ab		 rep stosd
  00027	48 8b 8c 24 08
	01 00 00	 mov	 rcx, QWORD PTR [rsp+264]
  0002f	48 8d 0d 00 00
	00 00		 lea	 rcx, OFFSET FLAT:__2EF0BD34_list
  00036	e8 00 00 00 00	 call	 __CheckForDebuggerJustMyCode
  0003b	48 8b 85 e0 00
	00 00		 mov	 rax, QWORD PTR this$[rbp]
  00042	48 8b 8d e8 00
	00 00		 mov	 rcx, QWORD PTR ___Val$[rbp]
  00049	48 89 08	 mov	 QWORD PTR [rax], rcx
  0004c	48 8b 85 e0 00
	00 00		 mov	 rax, QWORD PTR this$[rbp]
  00053	48 8d a5 c8 00
	00 00		 lea	 rsp, QWORD PTR [rbp+200]
  0005a	5f		 pop	 rdi
  0005b	5d		 pop	 rbp
  0005c	c3		 ret	 0
??0<lambda_1>@?1??remove@?$list@PEAVObjector@@V?$allocator@PEAVObjector@@@std@@@std@@QEAA@AEBQEAVObjector@@@Z@QEAA@0@Z ENDP ; `std::list<Objector *,std::allocator<Objector *> >::remove'::`2'::<lambda_1>::<lambda_1>
_TEXT	ENDS
; Function compile flags: /Odtp /RTCsu /ZI
; File C:\Program Files (x86)\Microsoft Visual Studio\2019\Enterprise\VC\Tools\MSVC\14.23.28105\include\list
;	COMDAT ??R<lambda_1>@?1??remove@?$list@PEAVObjector@@V?$allocator@PEAVObjector@@@std@@@std@@QEAA@AEBQEAVObjector@@@Z@QEBA@0@Z
_TEXT	SEGMENT
tv67 = 192
this$ = 240
_Other$ = 248
??R<lambda_1>@?1??remove@?$list@PEAVObjector@@V?$allocator@PEAVObjector@@@std@@@std@@QEAA@AEBQEAVObjector@@@Z@QEBA@0@Z PROC ; `std::list<Objector *,std::allocator<Objector *> >::remove'::`2'::<lambda_1>::operator(), COMDAT

; 1478 :         return remove_if([&](const _Ty& _Other) { return _Other == _Val; });

$LN5:
  00000	48 89 54 24 10	 mov	 QWORD PTR [rsp+16], rdx
  00005	48 89 4c 24 08	 mov	 QWORD PTR [rsp+8], rcx
  0000a	55		 push	 rbp
  0000b	57		 push	 rdi
  0000c	48 81 ec f8 00
	00 00		 sub	 rsp, 248		; 000000f8H
  00013	48 8d 6c 24 20	 lea	 rbp, QWORD PTR [rsp+32]
  00018	48 8b fc	 mov	 rdi, rsp
  0001b	b9 3e 00 00 00	 mov	 ecx, 62			; 0000003eH
  00020	b8 cc cc cc cc	 mov	 eax, -858993460		; ccccccccH
  00025	f3 ab		 rep stosd
  00027	48 8b 8c 24 18
	01 00 00	 mov	 rcx, QWORD PTR [rsp+280]
  0002f	48 8d 0d 00 00
	00 00		 lea	 rcx, OFFSET FLAT:__2EF0BD34_list
  00036	e8 00 00 00 00	 call	 __CheckForDebuggerJustMyCode
  0003b	48 8b 85 f0 00
	00 00		 mov	 rax, QWORD PTR this$[rbp]
  00042	48 8b 00	 mov	 rax, QWORD PTR [rax]
  00045	48 8b 8d f8 00
	00 00		 mov	 rcx, QWORD PTR _Other$[rbp]
  0004c	48 8b 00	 mov	 rax, QWORD PTR [rax]
  0004f	48 39 01	 cmp	 QWORD PTR [rcx], rax
  00052	75 0c		 jne	 SHORT $LN3@operator
  00054	c7 85 c0 00 00
	00 01 00 00 00	 mov	 DWORD PTR tv67[rbp], 1
  0005e	eb 0a		 jmp	 SHORT $LN4@operator
$LN3@operator:
  00060	c7 85 c0 00 00
	00 00 00 00 00	 mov	 DWORD PTR tv67[rbp], 0
$LN4@operator:
  0006a	0f b6 85 c0 00
	00 00		 movzx	 eax, BYTE PTR tv67[rbp]
  00071	48 8d a5 d8 00
	00 00		 lea	 rsp, QWORD PTR [rbp+216]
  00078	5f		 pop	 rdi
  00079	5d		 pop	 rbp
  0007a	c3		 ret	 0
??R<lambda_1>@?1??remove@?$list@PEAVObjector@@V?$allocator@PEAVObjector@@@std@@@std@@QEAA@AEBQEAVObjector@@@Z@QEBA@0@Z ENDP ; `std::list<Objector *,std::allocator<Objector *> >::remove'::`2'::<lambda_1>::operator()
_TEXT	ENDS
; Function compile flags: /Odtp /RTCsu /ZI
;	COMDAT ??_GSubject@@UEAAPEAXI@Z
_TEXT	SEGMENT
this$ = 224
__flags$ = 232
??_GSubject@@UEAAPEAXI@Z PROC				; Subject::`scalar deleting destructor', COMDAT
$LN4:
  00000	89 54 24 10	 mov	 DWORD PTR [rsp+16], edx
  00004	48 89 4c 24 08	 mov	 QWORD PTR [rsp+8], rcx
  00009	55		 push	 rbp
  0000a	57		 push	 rdi
  0000b	48 81 ec e8 00
	00 00		 sub	 rsp, 232		; 000000e8H
  00012	48 8d 6c 24 20	 lea	 rbp, QWORD PTR [rsp+32]
  00017	48 8b fc	 mov	 rdi, rsp
  0001a	b9 3a 00 00 00	 mov	 ecx, 58			; 0000003aH
  0001f	b8 cc cc cc cc	 mov	 eax, -858993460		; ccccccccH
  00024	f3 ab		 rep stosd
  00026	48 8b 8c 24 08
	01 00 00	 mov	 rcx, QWORD PTR [rsp+264]
  0002e	48 8b 8d e0 00
	00 00		 mov	 rcx, QWORD PTR this$[rbp]
  00035	e8 00 00 00 00	 call	 ??1Subject@@UEAA@XZ	; Subject::~Subject
  0003a	8b 85 e8 00 00
	00		 mov	 eax, DWORD PTR __flags$[rbp]
  00040	83 e0 01	 and	 eax, 1
  00043	85 c0		 test	 eax, eax
  00045	74 11		 je	 SHORT $LN2@scalar
  00047	ba 20 00 00 00	 mov	 edx, 32			; 00000020H
  0004c	48 8b 8d e0 00
	00 00		 mov	 rcx, QWORD PTR this$[rbp]
  00053	e8 00 00 00 00	 call	 ??3@YAXPEAX_K@Z		; operator delete
$LN2@scalar:
  00058	48 8b 85 e0 00
	00 00		 mov	 rax, QWORD PTR this$[rbp]
  0005f	48 8d a5 c8 00
	00 00		 lea	 rsp, QWORD PTR [rbp+200]
  00066	5f		 pop	 rdi
  00067	5d		 pop	 rbp
  00068	c3		 ret	 0
??_GSubject@@UEAAPEAXI@Z ENDP				; Subject::`scalar deleting destructor'
_TEXT	ENDS
; Function compile flags: /Odtp /RTCsu /ZI
;	COMDAT ?__autoclassinit2@Subject@@QEAAX_K@Z
_TEXT	SEGMENT
this$ = 224
classSize$ = 232
?__autoclassinit2@Subject@@QEAAX_K@Z PROC		; Subject::__autoclassinit2, COMDAT
$LN3:
  00000	48 89 54 24 10	 mov	 QWORD PTR [rsp+16], rdx
  00005	48 89 4c 24 08	 mov	 QWORD PTR [rsp+8], rcx
  0000a	55		 push	 rbp
  0000b	57		 push	 rdi
  0000c	48 81 ec c8 00
	00 00		 sub	 rsp, 200		; 000000c8H
  00013	48 8b ec	 mov	 rbp, rsp
  00016	48 8b fc	 mov	 rdi, rsp
  00019	b9 32 00 00 00	 mov	 ecx, 50			; 00000032H
  0001e	b8 cc cc cc cc	 mov	 eax, -858993460		; ccccccccH
  00023	f3 ab		 rep stosd
  00025	48 8b 8c 24 e8
	00 00 00	 mov	 rcx, QWORD PTR [rsp+232]
  0002d	48 8b bd e0 00
	00 00		 mov	 rdi, QWORD PTR this$[rbp]
  00034	33 c0		 xor	 eax, eax
  00036	48 8b 8d e8 00
	00 00		 mov	 rcx, QWORD PTR classSize$[rbp]
  0003d	f3 aa		 rep stosb
  0003f	48 8d a5 c8 00
	00 00		 lea	 rsp, QWORD PTR [rbp+200]
  00046	5f		 pop	 rdi
  00047	5d		 pop	 rbp
  00048	c3		 ret	 0
?__autoclassinit2@Subject@@QEAAX_K@Z ENDP		; Subject::__autoclassinit2
_TEXT	ENDS
; Function compile flags: /Odtp /RTCsu /ZI
; File C:\Program Files (x86)\Microsoft Visual Studio\2019\Enterprise\VC\Tools\MSVC\14.23.28105\include\xmemory
;	COMDAT ?_Get_first@?$_Compressed_pair@V?$allocator@U?$_List_node@PEAVObjector@@PEAX@std@@@std@@V?$_List_val@U?$_List_simple_types@PEAVObjector@@@std@@@2@$00@std@@QEBAAEBV?$allocator@U?$_List_node@PEAVObjector@@PEAX@std@@@2@XZ
_TEXT	SEGMENT
this$ = 224
?_Get_first@?$_Compressed_pair@V?$allocator@U?$_List_node@PEAVObjector@@PEAX@std@@@std@@V?$_List_val@U?$_List_simple_types@PEAVObjector@@@std@@@2@$00@std@@QEBAAEBV?$allocator@U?$_List_node@PEAVObjector@@PEAX@std@@@2@XZ PROC ; std::_Compressed_pair<std::allocator<std::_List_node<Objector *,void *> >,std::_List_val<std::_List_simple_types<Objector *> >,1>::_Get_first, COMDAT

; 1424 :     const _Ty1& _Get_first() const noexcept {

$LN3:
  00000	48 89 4c 24 08	 mov	 QWORD PTR [rsp+8], rcx
  00005	55		 push	 rbp
  00006	57		 push	 rdi
  00007	48 81 ec e8 00
	00 00		 sub	 rsp, 232		; 000000e8H
  0000e	48 8d 6c 24 20	 lea	 rbp, QWORD PTR [rsp+32]
  00013	48 8b fc	 mov	 rdi, rsp
  00016	b9 3a 00 00 00	 mov	 ecx, 58			; 0000003aH
  0001b	b8 cc cc cc cc	 mov	 eax, -858993460		; ccccccccH
  00020	f3 ab		 rep stosd
  00022	48 8b 8c 24 08
	01 00 00	 mov	 rcx, QWORD PTR [rsp+264]
  0002a	48 8d 0d 00 00
	00 00		 lea	 rcx, OFFSET FLAT:__725EB186_xmemory
  00031	e8 00 00 00 00	 call	 __CheckForDebuggerJustMyCode
  00036	90		 npad	 1

; 1425 :         return *this;

  00037	48 8b 85 e0 00
	00 00		 mov	 rax, QWORD PTR this$[rbp]

; 1426 :     }

  0003e	48 8d a5 c8 00
	00 00		 lea	 rsp, QWORD PTR [rbp+200]
  00045	5f		 pop	 rdi
  00046	5d		 pop	 rbp
  00047	c3		 ret	 0
?_Get_first@?$_Compressed_pair@V?$allocator@U?$_List_node@PEAVObjector@@PEAX@std@@@std@@V?$_List_val@U?$_List_simple_types@PEAVObjector@@@std@@@2@$00@std@@QEBAAEBV?$allocator@U?$_List_node@PEAVObjector@@PEAX@std@@@2@XZ ENDP ; std::_Compressed_pair<std::allocator<std::_List_node<Objector *,void *> >,std::_List_val<std::_List_simple_types<Objector *> >,1>::_Get_first
_TEXT	ENDS
; Function compile flags: /Odtp /RTCsu /ZI
; File C:\Program Files (x86)\Microsoft Visual Studio\2019\Enterprise\VC\Tools\MSVC\14.23.28105\include\xmemory
;	COMDAT ?_Get_first@?$_Compressed_pair@V?$allocator@U?$_List_node@PEAVObjector@@PEAX@std@@@std@@V?$_List_val@U?$_List_simple_types@PEAVObjector@@@std@@@2@$00@std@@QEAAAEAV?$allocator@U?$_List_node@PEAVObjector@@PEAX@std@@@2@XZ
_TEXT	SEGMENT
this$ = 224
?_Get_first@?$_Compressed_pair@V?$allocator@U?$_List_node@PEAVObjector@@PEAX@std@@@std@@V?$_List_val@U?$_List_simple_types@PEAVObjector@@@std@@@2@$00@std@@QEAAAEAV?$allocator@U?$_List_node@PEAVObjector@@PEAX@std@@@2@XZ PROC ; std::_Compressed_pair<std::allocator<std::_List_node<Objector *,void *> >,std::_List_val<std::_List_simple_types<Objector *> >,1>::_Get_first, COMDAT

; 1420 :     _Ty1& _Get_first() noexcept {

$LN3:
  00000	48 89 4c 24 08	 mov	 QWORD PTR [rsp+8], rcx
  00005	55		 push	 rbp
  00006	57		 push	 rdi
  00007	48 81 ec e8 00
	00 00		 sub	 rsp, 232		; 000000e8H
  0000e	48 8d 6c 24 20	 lea	 rbp, QWORD PTR [rsp+32]
  00013	48 8b fc	 mov	 rdi, rsp
  00016	b9 3a 00 00 00	 mov	 ecx, 58			; 0000003aH
  0001b	b8 cc cc cc cc	 mov	 eax, -858993460		; ccccccccH
  00020	f3 ab		 rep stosd
  00022	48 8b 8c 24 08
	01 00 00	 mov	 rcx, QWORD PTR [rsp+264]
  0002a	48 8d 0d 00 00
	00 00		 lea	 rcx, OFFSET FLAT:__725EB186_xmemory
  00031	e8 00 00 00 00	 call	 __CheckForDebuggerJustMyCode
  00036	90		 npad	 1

; 1421 :         return *this;

  00037	48 8b 85 e0 00
	00 00		 mov	 rax, QWORD PTR this$[rbp]

; 1422 :     }

  0003e	48 8d a5 c8 00
	00 00		 lea	 rsp, QWORD PTR [rbp+200]
  00045	5f		 pop	 rdi
  00046	5d		 pop	 rbp
  00047	c3		 ret	 0
?_Get_first@?$_Compressed_pair@V?$allocator@U?$_List_node@PEAVObjector@@PEAX@std@@@std@@V?$_List_val@U?$_List_simple_types@PEAVObjector@@@std@@@2@$00@std@@QEAAAEAV?$allocator@U?$_List_node@PEAVObjector@@PEAX@std@@@2@XZ ENDP ; std::_Compressed_pair<std::allocator<std::_List_node<Objector *,void *> >,std::_List_val<std::_List_simple_types<Objector *> >,1>::_Get_first
_TEXT	ENDS
; Function compile flags: /Odtp /RTCsu /ZI
; File C:\Program Files (x86)\Microsoft Visual Studio\2019\Enterprise\VC\Tools\MSVC\14.23.28105\include\list
;	COMDAT ?_Orphan_ptr2@?$_List_val@U?$_List_simple_types@PEAVObjector@@@std@@@std@@QEAAXPEAU?$_List_node@PEAVObjector@@PEAX@2@@Z
_TEXT	SEGMENT
_Lock$ = 4
_Pnext$ = 40
_Head$ = 72
_Pnextnext$4 = 104
_Pnextptr$5 = 136
__$ArrayPad$ = 344
this$ = 384
_Ptr$ = 392
?_Orphan_ptr2@?$_List_val@U?$_List_simple_types@PEAVObjector@@@std@@@std@@QEAAXPEAU?$_List_node@PEAVObjector@@PEAX@2@@Z PROC ; std::_List_val<std::_List_simple_types<Objector *> >::_Orphan_ptr2, COMDAT

; 371  :     void _Orphan_ptr2(_Nodeptr _Ptr) noexcept { // orphan iterators with specified node pointers

$LN8:
  00000	48 89 54 24 10	 mov	 QWORD PTR [rsp+16], rdx
  00005	48 89 4c 24 08	 mov	 QWORD PTR [rsp+8], rcx
  0000a	55		 push	 rbp
  0000b	57		 push	 rdi
  0000c	48 81 ec 88 01
	00 00		 sub	 rsp, 392		; 00000188H
  00013	48 8d 6c 24 20	 lea	 rbp, QWORD PTR [rsp+32]
  00018	48 8b fc	 mov	 rdi, rsp
  0001b	b9 62 00 00 00	 mov	 ecx, 98			; 00000062H
  00020	b8 cc cc cc cc	 mov	 eax, -858993460		; ccccccccH
  00025	f3 ab		 rep stosd
  00027	48 8b 8c 24 a8
	01 00 00	 mov	 rcx, QWORD PTR [rsp+424]
  0002f	48 8b 05 00 00
	00 00		 mov	 rax, QWORD PTR __security_cookie
  00036	48 33 c5	 xor	 rax, rbp
  00039	48 89 85 58 01
	00 00		 mov	 QWORD PTR __$ArrayPad$[rbp], rax
  00040	48 8d 0d 00 00
	00 00		 lea	 rcx, OFFSET FLAT:__2EF0BD34_list
  00047	e8 00 00 00 00	 call	 __CheckForDebuggerJustMyCode
  0004c	90		 npad	 1

; 372  : #if _ITERATOR_DEBUG_LEVEL == 2
; 373  :         _Lockit _Lock(_LOCK_DEBUG);

  0004d	ba 03 00 00 00	 mov	 edx, 3
  00052	48 8d 4d 04	 lea	 rcx, QWORD PTR _Lock$[rbp]
  00056	ff 15 00 00 00
	00		 call	 QWORD PTR __imp_??0_Lockit@std@@QEAA@H@Z
  0005c	90		 npad	 1

; 374  :         _Iterator_base12** _Pnext = &this->_Myproxy->_Myfirstiter;

  0005d	48 8b 85 80 01
	00 00		 mov	 rax, QWORD PTR this$[rbp]
  00064	48 8b 00	 mov	 rax, QWORD PTR [rax]
  00067	48 83 c0 08	 add	 rax, 8
  0006b	48 89 45 28	 mov	 QWORD PTR _Pnext$[rbp], rax

; 375  :         const auto _Head          = _Myhead;

  0006f	48 8b 85 80 01
	00 00		 mov	 rax, QWORD PTR this$[rbp]
  00076	48 8b 40 08	 mov	 rax, QWORD PTR [rax+8]
  0007a	48 89 45 48	 mov	 QWORD PTR _Head$[rbp], rax
$LN2@Orphan_ptr:

; 376  :         while (*_Pnext) {

  0007e	48 8b 45 28	 mov	 rax, QWORD PTR _Pnext$[rbp]
  00082	48 83 38 00	 cmp	 QWORD PTR [rax], 0
  00086	74 66		 je	 SHORT $LN3@Orphan_ptr

; 377  :             _Iterator_base12** _Pnextnext = &(*_Pnext)->_Mynextiter;

  00088	48 8b 45 28	 mov	 rax, QWORD PTR _Pnext$[rbp]
  0008c	48 8b 00	 mov	 rax, QWORD PTR [rax]
  0008f	48 83 c0 08	 add	 rax, 8
  00093	48 89 45 68	 mov	 QWORD PTR _Pnextnext$4[rbp], rax

; 378  :             const auto _Pnextptr          = static_cast<_List_const_iterator<_List_val>&>(**_Pnext)._Ptr;

  00097	48 8b 45 28	 mov	 rax, QWORD PTR _Pnext$[rbp]
  0009b	48 8b 00	 mov	 rax, QWORD PTR [rax]
  0009e	48 8b 40 10	 mov	 rax, QWORD PTR [rax+16]
  000a2	48 89 85 88 00
	00 00		 mov	 QWORD PTR _Pnextptr$5[rbp], rax

; 379  :             if (_Pnextptr == _Head || _Pnextptr != _Ptr) {

  000a9	48 8b 45 48	 mov	 rax, QWORD PTR _Head$[rbp]
  000ad	48 39 85 88 00
	00 00		 cmp	 QWORD PTR _Pnextptr$5[rbp], rax
  000b4	74 10		 je	 SHORT $LN6@Orphan_ptr
  000b6	48 8b 85 88 01
	00 00		 mov	 rax, QWORD PTR _Ptr$[rbp]
  000bd	48 39 85 88 00
	00 00		 cmp	 QWORD PTR _Pnextptr$5[rbp], rax
  000c4	74 0a		 je	 SHORT $LN4@Orphan_ptr
$LN6@Orphan_ptr:

; 380  :                 // iterator is end() or doesn't point at the one we are orphaning, move on
; 381  :                 _Pnext = _Pnextnext;

  000c6	48 8b 45 68	 mov	 rax, QWORD PTR _Pnextnext$4[rbp]
  000ca	48 89 45 28	 mov	 QWORD PTR _Pnext$[rbp], rax

; 382  :             } else { // orphan the iterator

  000ce	eb 1c		 jmp	 SHORT $LN5@Orphan_ptr
$LN4@Orphan_ptr:

; 383  :                 (*_Pnext)->_Myproxy = nullptr;

  000d0	48 8b 45 28	 mov	 rax, QWORD PTR _Pnext$[rbp]
  000d4	48 8b 00	 mov	 rax, QWORD PTR [rax]
  000d7	48 c7 00 00 00
	00 00		 mov	 QWORD PTR [rax], 0

; 384  :                 *_Pnext             = *_Pnextnext;

  000de	48 8b 45 28	 mov	 rax, QWORD PTR _Pnext$[rbp]
  000e2	48 8b 4d 68	 mov	 rcx, QWORD PTR _Pnextnext$4[rbp]
  000e6	48 8b 09	 mov	 rcx, QWORD PTR [rcx]
  000e9	48 89 08	 mov	 QWORD PTR [rax], rcx
$LN5@Orphan_ptr:

; 385  :             }
; 386  :         }

  000ec	eb 90		 jmp	 SHORT $LN2@Orphan_ptr
$LN3@Orphan_ptr:

; 387  : #else // ^^^ _ITERATOR_DEBUG_LEVEL == 2 ^^^ // vvv _ITERATOR_DEBUG_LEVEL != 2 vvv
; 388  :         (void) _Ptr;
; 389  : #endif // _ITERATOR_DEBUG_LEVEL == 2
; 390  :     }

  000ee	48 8d 4d 04	 lea	 rcx, QWORD PTR _Lock$[rbp]
  000f2	ff 15 00 00 00
	00		 call	 QWORD PTR __imp_??1_Lockit@std@@QEAA@XZ
  000f8	90		 npad	 1
  000f9	48 8d 4d e0	 lea	 rcx, QWORD PTR [rbp-32]
  000fd	48 8d 15 00 00
	00 00		 lea	 rdx, OFFSET FLAT:?_Orphan_ptr2@?$_List_val@U?$_List_simple_types@PEAVObjector@@@std@@@std@@QEAAXPEAU?$_List_node@PEAVObjector@@PEAX@2@@Z$rtcFrameData
  00104	e8 00 00 00 00	 call	 _RTC_CheckStackVars
  00109	90		 npad	 1
  0010a	48 8b 8d 58 01
	00 00		 mov	 rcx, QWORD PTR __$ArrayPad$[rbp]
  00111	48 33 cd	 xor	 rcx, rbp
  00114	e8 00 00 00 00	 call	 __security_check_cookie
  00119	90		 npad	 1
  0011a	48 8d a5 68 01
	00 00		 lea	 rsp, QWORD PTR [rbp+360]
  00121	5f		 pop	 rdi
  00122	5d		 pop	 rbp
  00123	c3		 ret	 0
?_Orphan_ptr2@?$_List_val@U?$_List_simple_types@PEAVObjector@@@std@@@std@@QEAAXPEAU?$_List_node@PEAVObjector@@PEAX@2@@Z ENDP ; std::_List_val<std::_List_simple_types<Objector *> >::_Orphan_ptr2
_TEXT	ENDS
; Function compile flags: /Odtp /RTCsu /ZI
; File C:\Program Files (x86)\Microsoft Visual Studio\2019\Enterprise\VC\Tools\MSVC\14.23.28105\include\list
;	COMDAT ??0?$_List_val@U?$_List_simple_types@PEAVObjector@@@std@@@std@@QEAA@XZ
_TEXT	SEGMENT
this$ = 224
??0?$_List_val@U?$_List_simple_types@PEAVObjector@@@std@@@std@@QEAA@XZ PROC ; std::_List_val<std::_List_simple_types<Objector *> >::_List_val<std::_List_simple_types<Objector *> >, COMDAT

; 368  :     _List_val() : _Myhead(), _Mysize(0) { // initialize data

$LN3:
  00000	48 89 4c 24 08	 mov	 QWORD PTR [rsp+8], rcx
  00005	55		 push	 rbp
  00006	57		 push	 rdi
  00007	48 81 ec e8 00
	00 00		 sub	 rsp, 232		; 000000e8H
  0000e	48 8d 6c 24 20	 lea	 rbp, QWORD PTR [rsp+32]
  00013	48 8b fc	 mov	 rdi, rsp
  00016	b9 3a 00 00 00	 mov	 ecx, 58			; 0000003aH
  0001b	b8 cc cc cc cc	 mov	 eax, -858993460		; ccccccccH
  00020	f3 ab		 rep stosd
  00022	48 8b 8c 24 08
	01 00 00	 mov	 rcx, QWORD PTR [rsp+264]
  0002a	48 8d 0d 00 00
	00 00		 lea	 rcx, OFFSET FLAT:__2EF0BD34_list
  00031	e8 00 00 00 00	 call	 __CheckForDebuggerJustMyCode
  00036	48 8b 8d e0 00
	00 00		 mov	 rcx, QWORD PTR this$[rbp]
  0003d	e8 00 00 00 00	 call	 ??0_Container_base12@std@@QEAA@XZ ; std::_Container_base12::_Container_base12
  00042	48 8b 85 e0 00
	00 00		 mov	 rax, QWORD PTR this$[rbp]
  00049	48 c7 40 08 00
	00 00 00	 mov	 QWORD PTR [rax+8], 0
  00051	48 8b 85 e0 00
	00 00		 mov	 rax, QWORD PTR this$[rbp]
  00058	48 c7 40 10 00
	00 00 00	 mov	 QWORD PTR [rax+16], 0

; 369  :     }

  00060	48 8b 85 e0 00
	00 00		 mov	 rax, QWORD PTR this$[rbp]
  00067	48 8d a5 c8 00
	00 00		 lea	 rsp, QWORD PTR [rbp+200]
  0006e	5f		 pop	 rdi
  0006f	5d		 pop	 rbp
  00070	c3		 ret	 0
??0?$_List_val@U?$_List_simple_types@PEAVObjector@@@std@@@std@@QEAA@XZ ENDP ; std::_List_val<std::_List_simple_types<Objector *> >::_List_val<std::_List_simple_types<Objector *> >
_TEXT	ENDS
; Function compile flags: /Odtp /RTCsu /ZI
; File C:\Program Files (x86)\Microsoft Visual Studio\2019\Enterprise\VC\Tools\MSVC\14.23.28105\include\list
;	COMDAT ?_Getal@?$list@PEAVObjector@@V?$allocator@PEAVObjector@@@std@@@std@@AEBAAEBV?$allocator@U?$_List_node@PEAVObjector@@PEAX@std@@@2@XZ
_TEXT	SEGMENT
this$ = 224
?_Getal@?$list@PEAVObjector@@V?$allocator@PEAVObjector@@@std@@@std@@AEBAAEBV?$allocator@U?$_List_node@PEAVObjector@@PEAX@std@@@2@XZ PROC ; std::list<Objector *,std::allocator<Objector *> >::_Getal, COMDAT

; 1714 :     const _Alnode& _Getal() const noexcept { // return const reference to allocator

$LN3:
  00000	48 89 4c 24 08	 mov	 QWORD PTR [rsp+8], rcx
  00005	55		 push	 rbp
  00006	57		 push	 rdi
  00007	48 81 ec e8 00
	00 00		 sub	 rsp, 232		; 000000e8H
  0000e	48 8d 6c 24 20	 lea	 rbp, QWORD PTR [rsp+32]
  00013	48 8b fc	 mov	 rdi, rsp
  00016	b9 3a 00 00 00	 mov	 ecx, 58			; 0000003aH
  0001b	b8 cc cc cc cc	 mov	 eax, -858993460		; ccccccccH
  00020	f3 ab		 rep stosd
  00022	48 8b 8c 24 08
	01 00 00	 mov	 rcx, QWORD PTR [rsp+264]
  0002a	48 8d 0d 00 00
	00 00		 lea	 rcx, OFFSET FLAT:__2EF0BD34_list
  00031	e8 00 00 00 00	 call	 __CheckForDebuggerJustMyCode
  00036	90		 npad	 1

; 1715 :         return _Mypair._Get_first();

  00037	48 8b 85 e0 00
	00 00		 mov	 rax, QWORD PTR this$[rbp]
  0003e	48 8b c8	 mov	 rcx, rax
  00041	e8 00 00 00 00	 call	 ?_Get_first@?$_Compressed_pair@V?$allocator@U?$_List_node@PEAVObjector@@PEAX@std@@@std@@V?$_List_val@U?$_List_simple_types@PEAVObjector@@@std@@@2@$00@std@@QEBAAEBV?$allocator@U?$_List_node@PEAVObjector@@PEAX@std@@@2@XZ ; std::_Compressed_pair<std::allocator<std::_List_node<Objector *,void *> >,std::_List_val<std::_List_simple_types<Objector *> >,1>::_Get_first
  00046	90		 npad	 1

; 1716 :     }

  00047	48 8d a5 c8 00
	00 00		 lea	 rsp, QWORD PTR [rbp+200]
  0004e	5f		 pop	 rdi
  0004f	5d		 pop	 rbp
  00050	c3		 ret	 0
?_Getal@?$list@PEAVObjector@@V?$allocator@PEAVObjector@@@std@@@std@@AEBAAEBV?$allocator@U?$_List_node@PEAVObjector@@PEAX@std@@@2@XZ ENDP ; std::list<Objector *,std::allocator<Objector *> >::_Getal
_TEXT	ENDS
; Function compile flags: /Odtp /RTCsu /ZI
; File C:\Program Files (x86)\Microsoft Visual Studio\2019\Enterprise\VC\Tools\MSVC\14.23.28105\include\list
;	COMDAT ?_Getal@?$list@PEAVObjector@@V?$allocator@PEAVObjector@@@std@@@std@@AEAAAEAV?$allocator@U?$_List_node@PEAVObjector@@PEAX@std@@@2@XZ
_TEXT	SEGMENT
this$ = 224
?_Getal@?$list@PEAVObjector@@V?$allocator@PEAVObjector@@@std@@@std@@AEAAAEAV?$allocator@U?$_List_node@PEAVObjector@@PEAX@std@@@2@XZ PROC ; std::list<Objector *,std::allocator<Objector *> >::_Getal, COMDAT

; 1710 :     _Alnode& _Getal() noexcept { // return reference to allocator

$LN3:
  00000	48 89 4c 24 08	 mov	 QWORD PTR [rsp+8], rcx
  00005	55		 push	 rbp
  00006	57		 push	 rdi
  00007	48 81 ec e8 00
	00 00		 sub	 rsp, 232		; 000000e8H
  0000e	48 8d 6c 24 20	 lea	 rbp, QWORD PTR [rsp+32]
  00013	48 8b fc	 mov	 rdi, rsp
  00016	b9 3a 00 00 00	 mov	 ecx, 58			; 0000003aH
  0001b	b8 cc cc cc cc	 mov	 eax, -858993460		; ccccccccH
  00020	f3 ab		 rep stosd
  00022	48 8b 8c 24 08
	01 00 00	 mov	 rcx, QWORD PTR [rsp+264]
  0002a	48 8d 0d 00 00
	00 00		 lea	 rcx, OFFSET FLAT:__2EF0BD34_list
  00031	e8 00 00 00 00	 call	 __CheckForDebuggerJustMyCode
  00036	90		 npad	 1

; 1711 :         return _Mypair._Get_first();

  00037	48 8b 85 e0 00
	00 00		 mov	 rax, QWORD PTR this$[rbp]
  0003e	48 8b c8	 mov	 rcx, rax
  00041	e8 00 00 00 00	 call	 ?_Get_first@?$_Compressed_pair@V?$allocator@U?$_List_node@PEAVObjector@@PEAX@std@@@std@@V?$_List_val@U?$_List_simple_types@PEAVObjector@@@std@@@2@$00@std@@QEAAAEAV?$allocator@U?$_List_node@PEAVObjector@@PEAX@std@@@2@XZ ; std::_Compressed_pair<std::allocator<std::_List_node<Objector *,void *> >,std::_List_val<std::_List_simple_types<Objector *> >,1>::_Get_first
  00046	90		 npad	 1

; 1712 :     }

  00047	48 8d a5 c8 00
	00 00		 lea	 rsp, QWORD PTR [rbp+200]
  0004e	5f		 pop	 rdi
  0004f	5d		 pop	 rbp
  00050	c3		 ret	 0
?_Getal@?$list@PEAVObjector@@V?$allocator@PEAVObjector@@@std@@@std@@AEAAAEAV?$allocator@U?$_List_node@PEAVObjector@@PEAX@std@@@2@XZ ENDP ; std::list<Objector *,std::allocator<Objector *> >::_Getal
_TEXT	ENDS
; Function compile flags: /Odtp /RTCsu /ZI
; File C:\Program Files (x86)\Microsoft Visual Studio\2019\Enterprise\VC\Tools\MSVC\14.23.28105\include\list
;	COMDAT ?_Alloc_sentinel_and_proxy@?$list@PEAVObjector@@V?$allocator@PEAVObjector@@@std@@@std@@AEAAXXZ
_TEXT	SEGMENT
_Alproxy$ = 8
$S15$ = 36
_Proxy$ = 72
_Al$ = 120
_Newhead$ = 152
__$ArrayPad$ = 360
this$ = 400
?_Alloc_sentinel_and_proxy@?$list@PEAVObjector@@V?$allocator@PEAVObjector@@@std@@@std@@AEAAXXZ PROC ; std::list<Objector *,std::allocator<Objector *> >::_Alloc_sentinel_and_proxy, COMDAT

; 1691 :     void _Alloc_sentinel_and_proxy() {

$LN4:
  00000	48 89 4c 24 08	 mov	 QWORD PTR [rsp+8], rcx
  00005	55		 push	 rbp
  00006	57		 push	 rdi
  00007	48 81 ec 98 01
	00 00		 sub	 rsp, 408		; 00000198H
  0000e	48 8d 6c 24 20	 lea	 rbp, QWORD PTR [rsp+32]
  00013	48 8b fc	 mov	 rdi, rsp
  00016	b9 66 00 00 00	 mov	 ecx, 102		; 00000066H
  0001b	b8 cc cc cc cc	 mov	 eax, -858993460		; ccccccccH
  00020	f3 ab		 rep stosd
  00022	48 8b 8c 24 b8
	01 00 00	 mov	 rcx, QWORD PTR [rsp+440]
  0002a	48 8b 05 00 00
	00 00		 mov	 rax, QWORD PTR __security_cookie
  00031	48 33 c5	 xor	 rax, rbp
  00034	48 89 85 68 01
	00 00		 mov	 QWORD PTR __$ArrayPad$[rbp], rax
  0003b	48 8d 0d 00 00
	00 00		 lea	 rcx, OFFSET FLAT:__2EF0BD34_list
  00042	e8 00 00 00 00	 call	 __CheckForDebuggerJustMyCode

; 1692 :         auto&& _Alproxy = _GET_PROXY_ALLOCATOR(_Alnode, _Getal());

  00047	48 8b 8d 90 01
	00 00		 mov	 rcx, QWORD PTR this$[rbp]
  0004e	e8 00 00 00 00	 call	 ?_Getal@?$list@PEAVObjector@@V?$allocator@PEAVObjector@@@std@@@std@@AEAAAEAV?$allocator@U?$_List_node@PEAVObjector@@PEAX@std@@@2@XZ ; std::list<Objector *,std::allocator<Objector *> >::_Getal
  00053	48 8b d0	 mov	 rdx, rax
  00056	48 8d 4d 24	 lea	 rcx, QWORD PTR $S15$[rbp]
  0005a	e8 00 00 00 00	 call	 ??$?0U?$_List_node@PEAVObjector@@PEAX@std@@@?$allocator@U_Container_proxy@std@@@std@@QEAA@AEBV?$allocator@U?$_List_node@PEAVObjector@@PEAX@std@@@1@@Z ; std::allocator<std::_Container_proxy>::allocator<std::_Container_proxy><std::_List_node<Objector *,void *> >
  0005f	48 8d 45 24	 lea	 rax, QWORD PTR $S15$[rbp]
  00063	48 89 45 08	 mov	 QWORD PTR _Alproxy$[rbp], rax

; 1693 :         _Container_proxy_ptr<_Alty> _Proxy(_Alproxy, _Mypair._Myval2);

  00067	48 8b 85 90 01
	00 00		 mov	 rax, QWORD PTR this$[rbp]
  0006e	4c 8b c0	 mov	 r8, rax
  00071	48 8b 55 08	 mov	 rdx, QWORD PTR _Alproxy$[rbp]
  00075	48 8d 4d 48	 lea	 rcx, QWORD PTR _Proxy$[rbp]
  00079	e8 00 00 00 00	 call	 ??0?$_Container_proxy_ptr12@V?$allocator@U_Container_proxy@std@@@std@@@std@@QEAA@AEAV?$allocator@U_Container_proxy@std@@@1@AEAU_Container_base12@1@@Z ; std::_Container_proxy_ptr12<std::allocator<std::_Container_proxy> >::_Container_proxy_ptr12<std::allocator<std::_Container_proxy> >
  0007e	90		 npad	 1

; 1694 :         auto& _Al     = _Getal();

  0007f	48 8b 8d 90 01
	00 00		 mov	 rcx, QWORD PTR this$[rbp]
  00086	e8 00 00 00 00	 call	 ?_Getal@?$list@PEAVObjector@@V?$allocator@PEAVObjector@@@std@@@std@@AEAAAEAV?$allocator@U?$_List_node@PEAVObjector@@PEAX@std@@@2@XZ ; std::list<Objector *,std::allocator<Objector *> >::_Getal
  0008b	48 89 45 78	 mov	 QWORD PTR _Al$[rbp], rax

; 1695 :         auto _Newhead = _Al.allocate(1);

  0008f	ba 01 00 00 00	 mov	 edx, 1
  00094	48 8b 4d 78	 mov	 rcx, QWORD PTR _Al$[rbp]
  00098	e8 00 00 00 00	 call	 ?allocate@?$allocator@U?$_List_node@PEAVObjector@@PEAX@std@@@std@@QEAAPEAU?$_List_node@PEAVObjector@@PEAX@2@_K@Z ; std::allocator<std::_List_node<Objector *,void *> >::allocate
  0009d	48 89 85 98 00
	00 00		 mov	 QWORD PTR _Newhead$[rbp], rax

; 1696 :         _Construct_in_place(_Newhead->_Next, _Newhead);

  000a4	48 8b 85 98 00
	00 00		 mov	 rax, QWORD PTR _Newhead$[rbp]
  000ab	48 8d 95 98 00
	00 00		 lea	 rdx, QWORD PTR _Newhead$[rbp]
  000b2	48 8b c8	 mov	 rcx, rax
  000b5	e8 00 00 00 00	 call	 ??$_Construct_in_place@PEAU?$_List_node@PEAVObjector@@PEAX@std@@AEAPEAU12@@std@@YAXAEAPEAU?$_List_node@PEAVObjector@@PEAX@0@0@Z ; std::_Construct_in_place<std::_List_node<Objector *,void *> *,std::_List_node<Objector *,void *> * &>

; 1697 :         _Construct_in_place(_Newhead->_Prev, _Newhead);

  000ba	48 8b 85 98 00
	00 00		 mov	 rax, QWORD PTR _Newhead$[rbp]
  000c1	48 83 c0 08	 add	 rax, 8
  000c5	48 8d 95 98 00
	00 00		 lea	 rdx, QWORD PTR _Newhead$[rbp]
  000cc	48 8b c8	 mov	 rcx, rax
  000cf	e8 00 00 00 00	 call	 ??$_Construct_in_place@PEAU?$_List_node@PEAVObjector@@PEAX@std@@AEAPEAU12@@std@@YAXAEAPEAU?$_List_node@PEAVObjector@@PEAX@0@0@Z ; std::_Construct_in_place<std::_List_node<Objector *,void *> *,std::_List_node<Objector *,void *> * &>

; 1698 :         _Mypair._Myval2._Myhead = _Newhead;

  000d4	48 8b 85 90 01
	00 00		 mov	 rax, QWORD PTR this$[rbp]
  000db	48 8b 8d 98 00
	00 00		 mov	 rcx, QWORD PTR _Newhead$[rbp]
  000e2	48 89 48 08	 mov	 QWORD PTR [rax+8], rcx

; 1699 :         _Proxy._Release();

  000e6	48 8d 4d 48	 lea	 rcx, QWORD PTR _Proxy$[rbp]
  000ea	e8 00 00 00 00	 call	 ?_Release@_Basic_container_proxy_ptr12@std@@QEAAXXZ ; std::_Basic_container_proxy_ptr12::_Release
  000ef	90		 npad	 1

; 1700 :     }

  000f0	48 8d 4d 48	 lea	 rcx, QWORD PTR _Proxy$[rbp]
  000f4	e8 00 00 00 00	 call	 ??1?$_Container_proxy_ptr12@V?$allocator@U_Container_proxy@std@@@std@@@std@@QEAA@XZ ; std::_Container_proxy_ptr12<std::allocator<std::_Container_proxy> >::~_Container_proxy_ptr12<std::allocator<std::_Container_proxy> >
  000f9	48 8d 4d e0	 lea	 rcx, QWORD PTR [rbp-32]
  000fd	48 8d 15 00 00
	00 00		 lea	 rdx, OFFSET FLAT:?_Alloc_sentinel_and_proxy@?$list@PEAVObjector@@V?$allocator@PEAVObjector@@@std@@@std@@AEAAXXZ$rtcFrameData
  00104	e8 00 00 00 00	 call	 _RTC_CheckStackVars
  00109	48 8b 8d 68 01
	00 00		 mov	 rcx, QWORD PTR __$ArrayPad$[rbp]
  00110	48 33 cd	 xor	 rcx, rbp
  00113	e8 00 00 00 00	 call	 __security_check_cookie
  00118	48 8d a5 78 01
	00 00		 lea	 rsp, QWORD PTR [rbp+376]
  0011f	5f		 pop	 rdi
  00120	5d		 pop	 rbp
  00121	c3		 ret	 0
?_Alloc_sentinel_and_proxy@?$list@PEAVObjector@@V?$allocator@PEAVObjector@@@std@@@std@@AEAAXXZ ENDP ; std::list<Objector *,std::allocator<Objector *> >::_Alloc_sentinel_and_proxy
_TEXT	ENDS
;	COMDAT text$x
text$x	SEGMENT
_Alproxy$ = 8
$S15$ = 36
_Proxy$ = 72
_Al$ = 120
_Newhead$ = 152
__$ArrayPad$ = 360
this$ = 400
?dtor$0@?0??_Alloc_sentinel_and_proxy@?$list@PEAVObjector@@V?$allocator@PEAVObjector@@@std@@@std@@AEAAXXZ@4HA PROC ; `std::list<Objector *,std::allocator<Objector *> >::_Alloc_sentinel_and_proxy'::`1'::dtor$0
  00000	48 89 4c 24 08	 mov	 QWORD PTR [rsp+8], rcx
  00005	48 89 54 24 10	 mov	 QWORD PTR [rsp+16], rdx
  0000a	55		 push	 rbp
  0000b	57		 push	 rdi
  0000c	48 83 ec 28	 sub	 rsp, 40			; 00000028H
  00010	48 8d 6a 20	 lea	 rbp, QWORD PTR [rdx+32]
  00014	48 8d 4d 48	 lea	 rcx, QWORD PTR _Proxy$[rbp]
  00018	e8 00 00 00 00	 call	 ??1?$_Container_proxy_ptr12@V?$allocator@U_Container_proxy@std@@@std@@@std@@QEAA@XZ ; std::_Container_proxy_ptr12<std::allocator<std::_Container_proxy> >::~_Container_proxy_ptr12<std::allocator<std::_Container_proxy> >
  0001d	48 83 c4 28	 add	 rsp, 40			; 00000028H
  00021	5f		 pop	 rdi
  00022	5d		 pop	 rbp
  00023	c3		 ret	 0
?dtor$0@?0??_Alloc_sentinel_and_proxy@?$list@PEAVObjector@@V?$allocator@PEAVObjector@@@std@@@std@@AEAAXXZ@4HA ENDP ; `std::list<Objector *,std::allocator<Objector *> >::_Alloc_sentinel_and_proxy'::`1'::dtor$0
text$x	ENDS
; Function compile flags: /Odtp /RTCsu /ZI
;	COMDAT text$x
text$x	SEGMENT
_Alproxy$ = 8
$S15$ = 36
_Proxy$ = 72
_Al$ = 120
_Newhead$ = 152
__$ArrayPad$ = 360
this$ = 400
?dtor$0@?0??_Alloc_sentinel_and_proxy@?$list@PEAVObjector@@V?$allocator@PEAVObjector@@@std@@@std@@AEAAXXZ@4HA PROC ; `std::list<Objector *,std::allocator<Objector *> >::_Alloc_sentinel_and_proxy'::`1'::dtor$0
  00000	48 89 4c 24 08	 mov	 QWORD PTR [rsp+8], rcx
  00005	48 89 54 24 10	 mov	 QWORD PTR [rsp+16], rdx
  0000a	55		 push	 rbp
  0000b	57		 push	 rdi
  0000c	48 83 ec 28	 sub	 rsp, 40			; 00000028H
  00010	48 8d 6a 20	 lea	 rbp, QWORD PTR [rdx+32]
  00014	48 8d 4d 48	 lea	 rcx, QWORD PTR _Proxy$[rbp]
  00018	e8 00 00 00 00	 call	 ??1?$_Container_proxy_ptr12@V?$allocator@U_Container_proxy@std@@@std@@@std@@QEAA@XZ ; std::_Container_proxy_ptr12<std::allocator<std::_Container_proxy> >::~_Container_proxy_ptr12<std::allocator<std::_Container_proxy> >
  0001d	48 83 c4 28	 add	 rsp, 40			; 00000028H
  00021	5f		 pop	 rdi
  00022	5d		 pop	 rbp
  00023	c3		 ret	 0
?dtor$0@?0??_Alloc_sentinel_and_proxy@?$list@PEAVObjector@@V?$allocator@PEAVObjector@@@std@@@std@@AEAAXXZ@4HA ENDP ; `std::list<Objector *,std::allocator<Objector *> >::_Alloc_sentinel_and_proxy'::`1'::dtor$0
text$x	ENDS
; Function compile flags: /Odtp /RTCsu /ZI
; File C:\Program Files (x86)\Microsoft Visual Studio\2019\Enterprise\VC\Tools\MSVC\14.23.28105\include\list
;	COMDAT ?remove@?$list@PEAVObjector@@V?$allocator@PEAVObjector@@@std@@@std@@QEAA@AEBQEAVObjector@@@Z
_TEXT	SEGMENT
$T1 = 200
this$ = 256
_Val$ = 264
?remove@?$list@PEAVObjector@@V?$allocator@PEAVObjector@@@std@@@std@@QEAA@AEBQEAVObjector@@@Z PROC ; std::list<Objector *,std::allocator<Objector *> >::remove, COMDAT

; 1477 :     auto remove(const _Ty& _Val) { // erase each element matching _Val

$LN3:
  00000	48 89 54 24 10	 mov	 QWORD PTR [rsp+16], rdx
  00005	48 89 4c 24 08	 mov	 QWORD PTR [rsp+8], rcx
  0000a	55		 push	 rbp
  0000b	57		 push	 rdi
  0000c	48 81 ec 08 01
	00 00		 sub	 rsp, 264		; 00000108H
  00013	48 8d 6c 24 20	 lea	 rbp, QWORD PTR [rsp+32]
  00018	48 8b fc	 mov	 rdi, rsp
  0001b	b9 42 00 00 00	 mov	 ecx, 66			; 00000042H
  00020	b8 cc cc cc cc	 mov	 eax, -858993460		; ccccccccH
  00025	f3 ab		 rep stosd
  00027	48 8b 8c 24 28
	01 00 00	 mov	 rcx, QWORD PTR [rsp+296]
  0002f	48 8d 0d 00 00
	00 00		 lea	 rcx, OFFSET FLAT:__2EF0BD34_list
  00036	e8 00 00 00 00	 call	 __CheckForDebuggerJustMyCode

; 1478 :         return remove_if([&](const _Ty& _Other) { return _Other == _Val; });

  0003b	48 8b 95 08 01
	00 00		 mov	 rdx, QWORD PTR _Val$[rbp]
  00042	48 8d 8d c8 00
	00 00		 lea	 rcx, QWORD PTR $T1[rbp]
  00049	e8 00 00 00 00	 call	 ??0<lambda_1>@?1??remove@?$list@PEAVObjector@@V?$allocator@PEAVObjector@@@std@@@std@@QEAA@AEBQEAVObjector@@@Z@QEAA@0@Z ; `std::list<Objector *,std::allocator<Objector *> >::remove'::`2'::<lambda_1>::<lambda_1>
  0004e	48 8b 10	 mov	 rdx, QWORD PTR [rax]
  00051	48 8b 8d 00 01
	00 00		 mov	 rcx, QWORD PTR this$[rbp]
  00058	e8 00 00 00 00	 call	 ??$remove_if@V<lambda_1>@?1??remove@?$list@PEAVObjector@@V?$allocator@PEAVObjector@@@std@@@std@@QEAA@AEBQEAVObjector@@@Z@@?$list@PEAVObjector@@V?$allocator@PEAVObjector@@@std@@@std@@QEAA@V<lambda_1>@?1??remove@01@QEAA@AEBQEAVObjector@@@Z@@Z ; std::list<Objector *,std::allocator<Objector *> >::remove_if<`std::list<Objector *,std::allocator<Objector *> >::remove'::`2'::<lambda_1> >

; 1479 :     }

  0005d	48 8d a5 e8 00
	00 00		 lea	 rsp, QWORD PTR [rbp+232]
  00064	5f		 pop	 rdi
  00065	5d		 pop	 rbp
  00066	c3		 ret	 0
?remove@?$list@PEAVObjector@@V?$allocator@PEAVObjector@@@std@@@std@@QEAA@AEBQEAVObjector@@@Z ENDP ; std::list<Objector *,std::allocator<Objector *> >::remove
_TEXT	ENDS
; Function compile flags: /Odtp /RTCsu /ZI
; File C:\Program Files (x86)\Microsoft Visual Studio\2019\Enterprise\VC\Tools\MSVC\14.23.28105\include\list
;	COMDAT ?_Tidy@?$list@PEAVObjector@@V?$allocator@PEAVObjector@@@std@@@std@@AEAAXXZ
_TEXT	SEGMENT
_Al$ = 8
_My_data$ = 40
this$ = 288
?_Tidy@?$list@PEAVObjector@@V?$allocator@PEAVObjector@@@std@@@std@@AEAAXXZ PROC ; std::list<Objector *,std::allocator<Objector *> >::_Tidy, COMDAT

; 1309 :     void _Tidy() noexcept {

$LN3:
  00000	48 89 4c 24 08	 mov	 QWORD PTR [rsp+8], rcx
  00005	55		 push	 rbp
  00006	57		 push	 rdi
  00007	48 81 ec 28 01
	00 00		 sub	 rsp, 296		; 00000128H
  0000e	48 8d 6c 24 20	 lea	 rbp, QWORD PTR [rsp+32]
  00013	48 8b fc	 mov	 rdi, rsp
  00016	b9 4a 00 00 00	 mov	 ecx, 74			; 0000004aH
  0001b	b8 cc cc cc cc	 mov	 eax, -858993460		; ccccccccH
  00020	f3 ab		 rep stosd
  00022	48 8b 8c 24 48
	01 00 00	 mov	 rcx, QWORD PTR [rsp+328]
  0002a	48 8d 0d 00 00
	00 00		 lea	 rcx, OFFSET FLAT:__2EF0BD34_list
  00031	e8 00 00 00 00	 call	 __CheckForDebuggerJustMyCode
  00036	90		 npad	 1

; 1310 :         auto& _Al      = _Getal();

  00037	48 8b 8d 20 01
	00 00		 mov	 rcx, QWORD PTR this$[rbp]
  0003e	e8 00 00 00 00	 call	 ?_Getal@?$list@PEAVObjector@@V?$allocator@PEAVObjector@@@std@@@std@@AEAAAEAV?$allocator@U?$_List_node@PEAVObjector@@PEAX@std@@@2@XZ ; std::list<Objector *,std::allocator<Objector *> >::_Getal
  00043	90		 npad	 1
  00044	48 89 45 08	 mov	 QWORD PTR _Al$[rbp], rax

; 1311 :         auto& _My_data = _Mypair._Myval2;

  00048	48 8b 85 20 01
	00 00		 mov	 rax, QWORD PTR this$[rbp]
  0004f	48 89 45 28	 mov	 QWORD PTR _My_data$[rbp], rax

; 1312 :         _My_data._Orphan_all();

  00053	48 8b 4d 28	 mov	 rcx, QWORD PTR _My_data$[rbp]
  00057	e8 00 00 00 00	 call	 ?_Orphan_all@_Container_base12@std@@QEAAXXZ ; std::_Container_base12::_Orphan_all
  0005c	90		 npad	 1

; 1313 :         _Node::_Free_non_head(_Al, _My_data._Myhead);

  0005d	48 8b 45 28	 mov	 rax, QWORD PTR _My_data$[rbp]
  00061	48 8b 50 08	 mov	 rdx, QWORD PTR [rax+8]
  00065	48 8b 4d 08	 mov	 rcx, QWORD PTR _Al$[rbp]
  00069	e8 00 00 00 00	 call	 ??$_Free_non_head@V?$allocator@U?$_List_node@PEAVObjector@@PEAX@std@@@std@@@?$_List_node@PEAVObjector@@PEAX@std@@SAXAEAV?$allocator@U?$_List_node@PEAVObjector@@PEAX@std@@@1@PEAU01@@Z ; std::_List_node<Objector *,void *>::_Free_non_head<std::allocator<std::_List_node<Objector *,void *> > >
  0006e	90		 npad	 1

; 1314 :         _Node::_Freenode0(_Al, _My_data._Myhead);

  0006f	48 8b 45 28	 mov	 rax, QWORD PTR _My_data$[rbp]
  00073	48 8b 50 08	 mov	 rdx, QWORD PTR [rax+8]
  00077	48 8b 4d 08	 mov	 rcx, QWORD PTR _Al$[rbp]
  0007b	e8 00 00 00 00	 call	 ??$_Freenode0@V?$allocator@U?$_List_node@PEAVObjector@@PEAX@std@@@std@@@?$_List_node@PEAVObjector@@PEAX@std@@SAXAEAV?$allocator@U?$_List_node@PEAVObjector@@PEAX@std@@@1@PEAU01@@Z ; std::_List_node<Objector *,void *>::_Freenode0<std::allocator<std::_List_node<Objector *,void *> > >
  00080	90		 npad	 1

; 1315 :     }

  00081	48 8d a5 08 01
	00 00		 lea	 rsp, QWORD PTR [rbp+264]
  00088	5f		 pop	 rdi
  00089	5d		 pop	 rbp
  0008a	c3		 ret	 0
?_Tidy@?$list@PEAVObjector@@V?$allocator@PEAVObjector@@@std@@@std@@AEAAXXZ ENDP ; std::list<Objector *,std::allocator<Objector *> >::_Tidy
_TEXT	ENDS
; Function compile flags: /Odtp /RTCsu /ZI
; File C:\Program Files (x86)\Microsoft Visual Studio\2019\Enterprise\VC\Tools\MSVC\14.23.28105\include\list
;	COMDAT ?push_back@?$list@PEAVObjector@@V?$allocator@PEAVObjector@@@std@@@std@@QEAAXAEBQEAVObjector@@@Z
_TEXT	SEGMENT
this$ = 224
_Val$ = 232
?push_back@?$list@PEAVObjector@@V?$allocator@PEAVObjector@@@std@@@std@@QEAAXAEBQEAVObjector@@@Z PROC ; std::list<Objector *,std::allocator<Objector *> >::push_back, COMDAT

; 1177 :     void push_back(const _Ty& _Val) { // insert element at end

$LN3:
  00000	48 89 54 24 10	 mov	 QWORD PTR [rsp+16], rdx
  00005	48 89 4c 24 08	 mov	 QWORD PTR [rsp+8], rcx
  0000a	55		 push	 rbp
  0000b	57		 push	 rdi
  0000c	48 81 ec e8 00
	00 00		 sub	 rsp, 232		; 000000e8H
  00013	48 8d 6c 24 20	 lea	 rbp, QWORD PTR [rsp+32]
  00018	48 8b fc	 mov	 rdi, rsp
  0001b	b9 3a 00 00 00	 mov	 ecx, 58			; 0000003aH
  00020	b8 cc cc cc cc	 mov	 eax, -858993460		; ccccccccH
  00025	f3 ab		 rep stosd
  00027	48 8b 8c 24 08
	01 00 00	 mov	 rcx, QWORD PTR [rsp+264]
  0002f	48 8d 0d 00 00
	00 00		 lea	 rcx, OFFSET FLAT:__2EF0BD34_list
  00036	e8 00 00 00 00	 call	 __CheckForDebuggerJustMyCode

; 1178 :         _Emplace(_Mypair._Myval2._Myhead, _Val);

  0003b	4c 8b 85 e8 00
	00 00		 mov	 r8, QWORD PTR _Val$[rbp]
  00042	48 8b 85 e0 00
	00 00		 mov	 rax, QWORD PTR this$[rbp]
  00049	48 8b 50 08	 mov	 rdx, QWORD PTR [rax+8]
  0004d	48 8b 8d e0 00
	00 00		 mov	 rcx, QWORD PTR this$[rbp]
  00054	e8 00 00 00 00	 call	 ??$_Emplace@AEBQEAVObjector@@@?$list@PEAVObjector@@V?$allocator@PEAVObjector@@@std@@@std@@QEAAPEAU?$_List_node@PEAVObjector@@PEAX@1@QEAU21@AEBQEAVObjector@@@Z ; std::list<Objector *,std::allocator<Objector *> >::_Emplace<Objector * const &>

; 1179 :     }

  00059	48 8d a5 c8 00
	00 00		 lea	 rsp, QWORD PTR [rbp+200]
  00060	5f		 pop	 rdi
  00061	5d		 pop	 rbp
  00062	c3		 ret	 0
?push_back@?$list@PEAVObjector@@V?$allocator@PEAVObjector@@@std@@@std@@QEAAXAEBQEAVObjector@@@Z ENDP ; std::list<Objector *,std::allocator<Objector *> >::push_back
_TEXT	ENDS
; Function compile flags: /Odtp /RTCsu /ZI
; File C:\Program Files (x86)\Microsoft Visual Studio\2019\Enterprise\VC\Tools\MSVC\14.23.28105\include\list
;	COMDAT ?max_size@?$list@PEAVObjector@@V?$allocator@PEAVObjector@@@std@@@std@@QEBA_KXZ
_TEXT	SEGMENT
$T1 = 200
$T2 = 232
this$ = 288
?max_size@?$list@PEAVObjector@@V?$allocator@PEAVObjector@@@std@@@std@@QEBA_KXZ PROC ; std::list<Objector *,std::allocator<Objector *> >::max_size, COMDAT

; 1136 :     _NODISCARD size_type max_size() const noexcept { // return maximum possible length of sequence

$LN3:
  00000	48 89 4c 24 08	 mov	 QWORD PTR [rsp+8], rcx
  00005	55		 push	 rbp
  00006	57		 push	 rdi
  00007	48 81 ec 28 01
	00 00		 sub	 rsp, 296		; 00000128H
  0000e	48 8d 6c 24 20	 lea	 rbp, QWORD PTR [rsp+32]
  00013	48 8b fc	 mov	 rdi, rsp
  00016	b9 4a 00 00 00	 mov	 ecx, 74			; 0000004aH
  0001b	b8 cc cc cc cc	 mov	 eax, -858993460		; ccccccccH
  00020	f3 ab		 rep stosd
  00022	48 8b 8c 24 48
	01 00 00	 mov	 rcx, QWORD PTR [rsp+328]
  0002a	48 8d 0d 00 00
	00 00		 lea	 rcx, OFFSET FLAT:__2EF0BD34_list
  00031	e8 00 00 00 00	 call	 __CheckForDebuggerJustMyCode
  00036	90		 npad	 1

; 1137 :         return _Min_value(

  00037	48 8b 8d 20 01
	00 00		 mov	 rcx, QWORD PTR this$[rbp]
  0003e	e8 00 00 00 00	 call	 ?_Getal@?$list@PEAVObjector@@V?$allocator@PEAVObjector@@@std@@@std@@AEBAAEBV?$allocator@U?$_List_node@PEAVObjector@@PEAX@std@@@2@XZ ; std::list<Objector *,std::allocator<Objector *> >::_Getal
  00043	90		 npad	 1
  00044	48 8b c8	 mov	 rcx, rax
  00047	e8 00 00 00 00	 call	 ?max_size@?$_Default_allocator_traits@V?$allocator@U?$_List_node@PEAVObjector@@PEAX@std@@@std@@@std@@SA_KAEBV?$allocator@U?$_List_node@PEAVObjector@@PEAX@std@@@2@@Z ; std::_Default_allocator_traits<std::allocator<std::_List_node<Objector *,void *> > >::max_size
  0004c	90		 npad	 1
  0004d	48 89 85 c8 00
	00 00		 mov	 QWORD PTR $T1[rbp], rax
  00054	e8 00 00 00 00	 call	 ?max@?$numeric_limits@_J@std@@SA_JXZ ; std::numeric_limits<__int64>::max
  00059	90		 npad	 1
  0005a	48 89 85 e8 00
	00 00		 mov	 QWORD PTR $T2[rbp], rax
  00061	48 8d 95 c8 00
	00 00		 lea	 rdx, QWORD PTR $T1[rbp]
  00068	48 8d 8d e8 00
	00 00		 lea	 rcx, QWORD PTR $T2[rbp]
  0006f	e8 00 00 00 00	 call	 ??$_Min_value@_K@std@@YAAEB_KAEB_K0@Z ; std::_Min_value<unsigned __int64>
  00074	90		 npad	 1
  00075	48 8b 00	 mov	 rax, QWORD PTR [rax]

; 1138 :             static_cast<size_type>((numeric_limits<difference_type>::max)()), _Alnode_traits::max_size(_Getal()));
; 1139 :     }

  00078	48 8d a5 08 01
	00 00		 lea	 rsp, QWORD PTR [rbp+264]
  0007f	5f		 pop	 rdi
  00080	5d		 pop	 rbp
  00081	c3		 ret	 0
?max_size@?$list@PEAVObjector@@V?$allocator@PEAVObjector@@@std@@@std@@QEBA_KXZ ENDP ; std::list<Objector *,std::allocator<Objector *> >::max_size
_TEXT	ENDS
; Function compile flags: /Odtp /RTCsu /ZI
; File C:\Program Files (x86)\Microsoft Visual Studio\2019\Enterprise\VC\Tools\MSVC\14.23.28105\include\list
;	COMDAT ?_Unchecked_end@?$list@PEAVObjector@@V?$allocator@PEAVObjector@@@std@@@std@@QEAA?AV?$_List_unchecked_iterator@V?$_List_val@U?$_List_simple_types@PEAVObjector@@@std@@@std@@@2@XZ
_TEXT	SEGMENT
this$ = 224
__$ReturnUdt$ = 232
?_Unchecked_end@?$list@PEAVObjector@@V?$allocator@PEAVObjector@@@std@@@std@@QEAA?AV?$_List_unchecked_iterator@V?$_List_val@U?$_List_simple_types@PEAVObjector@@@std@@@std@@@2@XZ PROC ; std::list<Objector *,std::allocator<Objector *> >::_Unchecked_end, COMDAT

; 1054 :     _Unchecked_iterator _Unchecked_end() { // return unchecked iterator for end of mutable sequence

$LN3:
  00000	48 89 54 24 10	 mov	 QWORD PTR [rsp+16], rdx
  00005	48 89 4c 24 08	 mov	 QWORD PTR [rsp+8], rcx
  0000a	55		 push	 rbp
  0000b	57		 push	 rdi
  0000c	48 81 ec e8 00
	00 00		 sub	 rsp, 232		; 000000e8H
  00013	48 8d 6c 24 20	 lea	 rbp, QWORD PTR [rsp+32]
  00018	48 8b fc	 mov	 rdi, rsp
  0001b	b9 3a 00 00 00	 mov	 ecx, 58			; 0000003aH
  00020	b8 cc cc cc cc	 mov	 eax, -858993460		; ccccccccH
  00025	f3 ab		 rep stosd
  00027	48 8b 8c 24 08
	01 00 00	 mov	 rcx, QWORD PTR [rsp+264]
  0002f	48 8d 0d 00 00
	00 00		 lea	 rcx, OFFSET FLAT:__2EF0BD34_list
  00036	e8 00 00 00 00	 call	 __CheckForDebuggerJustMyCode

; 1055 :         return _Unchecked_iterator(_Mypair._Myval2._Myhead, nullptr);

  0003b	45 33 c0	 xor	 r8d, r8d
  0003e	48 8b 85 e0 00
	00 00		 mov	 rax, QWORD PTR this$[rbp]
  00045	48 8b 50 08	 mov	 rdx, QWORD PTR [rax+8]
  00049	48 8b 8d e8 00
	00 00		 mov	 rcx, QWORD PTR __$ReturnUdt$[rbp]
  00050	e8 00 00 00 00	 call	 ??0?$_List_unchecked_iterator@V?$_List_val@U?$_List_simple_types@PEAVObjector@@@std@@@std@@@std@@QEAA@PEAU?$_List_node@PEAVObjector@@PEAX@1@PEBV?$_List_val@U?$_List_simple_types@PEAVObjector@@@std@@@1@@Z ; std::_List_unchecked_iterator<std::_List_val<std::_List_simple_types<Objector *> > >::_List_unchecked_iterator<std::_List_val<std::_List_simple_types<Objector *> > >
  00055	48 8b 85 e8 00
	00 00		 mov	 rax, QWORD PTR __$ReturnUdt$[rbp]

; 1056 :     }

  0005c	48 8d a5 c8 00
	00 00		 lea	 rsp, QWORD PTR [rbp+200]
  00063	5f		 pop	 rdi
  00064	5d		 pop	 rbp
  00065	c3		 ret	 0
?_Unchecked_end@?$list@PEAVObjector@@V?$allocator@PEAVObjector@@@std@@@std@@QEAA?AV?$_List_unchecked_iterator@V?$_List_val@U?$_List_simple_types@PEAVObjector@@@std@@@std@@@2@XZ ENDP ; std::list<Objector *,std::allocator<Objector *> >::_Unchecked_end
_TEXT	ENDS
; Function compile flags: /Odtp /RTCsu /ZI
; File C:\Program Files (x86)\Microsoft Visual Studio\2019\Enterprise\VC\Tools\MSVC\14.23.28105\include\list
;	COMDAT ?_Unchecked_begin@?$list@PEAVObjector@@V?$allocator@PEAVObjector@@@std@@@std@@QEAA?AV?$_List_unchecked_iterator@V?$_List_val@U?$_List_simple_types@PEAVObjector@@@std@@@std@@@2@XZ
_TEXT	SEGMENT
this$ = 224
__$ReturnUdt$ = 232
?_Unchecked_begin@?$list@PEAVObjector@@V?$allocator@PEAVObjector@@@std@@@std@@QEAA?AV?$_List_unchecked_iterator@V?$_List_val@U?$_List_simple_types@PEAVObjector@@@std@@@std@@@2@XZ PROC ; std::list<Objector *,std::allocator<Objector *> >::_Unchecked_begin, COMDAT

; 1046 :     _Unchecked_iterator _Unchecked_begin() { // return iterator for beginning of mutable sequence

$LN3:
  00000	48 89 54 24 10	 mov	 QWORD PTR [rsp+16], rdx
  00005	48 89 4c 24 08	 mov	 QWORD PTR [rsp+8], rcx
  0000a	55		 push	 rbp
  0000b	57		 push	 rdi
  0000c	48 81 ec e8 00
	00 00		 sub	 rsp, 232		; 000000e8H
  00013	48 8d 6c 24 20	 lea	 rbp, QWORD PTR [rsp+32]
  00018	48 8b fc	 mov	 rdi, rsp
  0001b	b9 3a 00 00 00	 mov	 ecx, 58			; 0000003aH
  00020	b8 cc cc cc cc	 mov	 eax, -858993460		; ccccccccH
  00025	f3 ab		 rep stosd
  00027	48 8b 8c 24 08
	01 00 00	 mov	 rcx, QWORD PTR [rsp+264]
  0002f	48 8d 0d 00 00
	00 00		 lea	 rcx, OFFSET FLAT:__2EF0BD34_list
  00036	e8 00 00 00 00	 call	 __CheckForDebuggerJustMyCode

; 1047 :         return _Unchecked_iterator(_Mypair._Myval2._Myhead->_Next, nullptr);

  0003b	48 8b 85 e0 00
	00 00		 mov	 rax, QWORD PTR this$[rbp]
  00042	48 8b 40 08	 mov	 rax, QWORD PTR [rax+8]
  00046	45 33 c0	 xor	 r8d, r8d
  00049	48 8b 10	 mov	 rdx, QWORD PTR [rax]
  0004c	48 8b 8d e8 00
	00 00		 mov	 rcx, QWORD PTR __$ReturnUdt$[rbp]
  00053	e8 00 00 00 00	 call	 ??0?$_List_unchecked_iterator@V?$_List_val@U?$_List_simple_types@PEAVObjector@@@std@@@std@@@std@@QEAA@PEAU?$_List_node@PEAVObjector@@PEAX@1@PEBV?$_List_val@U?$_List_simple_types@PEAVObjector@@@std@@@1@@Z ; std::_List_unchecked_iterator<std::_List_val<std::_List_simple_types<Objector *> > >::_List_unchecked_iterator<std::_List_val<std::_List_simple_types<Objector *> > >
  00058	48 8b 85 e8 00
	00 00		 mov	 rax, QWORD PTR __$ReturnUdt$[rbp]

; 1048 :     }

  0005f	48 8d a5 c8 00
	00 00		 lea	 rsp, QWORD PTR [rbp+200]
  00066	5f		 pop	 rdi
  00067	5d		 pop	 rbp
  00068	c3		 ret	 0
?_Unchecked_begin@?$list@PEAVObjector@@V?$allocator@PEAVObjector@@@std@@@std@@QEAA?AV?$_List_unchecked_iterator@V?$_List_val@U?$_List_simple_types@PEAVObjector@@@std@@@std@@@2@XZ ENDP ; std::list<Objector *,std::allocator<Objector *> >::_Unchecked_begin
_TEXT	ENDS
; Function compile flags: /Odtp /RTCsu /ZI
; File C:\Program Files (x86)\Microsoft Visual Studio\2019\Enterprise\VC\Tools\MSVC\14.23.28105\include\list
;	COMDAT ??1?$list@PEAVObjector@@V?$allocator@PEAVObjector@@@std@@@std@@QEAA@XZ
_TEXT	SEGMENT
_Alproxy$ = 8
$S1$ = 36
__$ArrayPad$ = 248
this$ = 288
??1?$list@PEAVObjector@@V?$allocator@PEAVObjector@@@std@@@std@@QEAA@XZ PROC ; std::list<Objector *,std::allocator<Objector *> >::~list<Objector *,std::allocator<Objector *> >, COMDAT

; 984  :     ~list() noexcept {

$LN3:
  00000	48 89 4c 24 08	 mov	 QWORD PTR [rsp+8], rcx
  00005	55		 push	 rbp
  00006	57		 push	 rdi
  00007	48 81 ec 28 01
	00 00		 sub	 rsp, 296		; 00000128H
  0000e	48 8d 6c 24 20	 lea	 rbp, QWORD PTR [rsp+32]
  00013	48 8b fc	 mov	 rdi, rsp
  00016	b9 4a 00 00 00	 mov	 ecx, 74			; 0000004aH
  0001b	b8 cc cc cc cc	 mov	 eax, -858993460		; ccccccccH
  00020	f3 ab		 rep stosd
  00022	48 8b 8c 24 48
	01 00 00	 mov	 rcx, QWORD PTR [rsp+328]
  0002a	48 8b 05 00 00
	00 00		 mov	 rax, QWORD PTR __security_cookie
  00031	48 33 c5	 xor	 rax, rbp
  00034	48 89 85 f8 00
	00 00		 mov	 QWORD PTR __$ArrayPad$[rbp], rax
  0003b	48 8d 0d 00 00
	00 00		 lea	 rcx, OFFSET FLAT:__2EF0BD34_list
  00042	e8 00 00 00 00	 call	 __CheckForDebuggerJustMyCode
  00047	90		 npad	 1

; 985  :         _Tidy();

  00048	48 8b 8d 20 01
	00 00		 mov	 rcx, QWORD PTR this$[rbp]
  0004f	e8 00 00 00 00	 call	 ?_Tidy@?$list@PEAVObjector@@V?$allocator@PEAVObjector@@@std@@@std@@AEAAXXZ ; std::list<Objector *,std::allocator<Objector *> >::_Tidy
  00054	90		 npad	 1

; 986  : #if _ITERATOR_DEBUG_LEVEL != 0 // TRANSITION, ABI
; 987  :         auto&& _Alproxy = _GET_PROXY_ALLOCATOR(_Alnode, _Getal());

  00055	48 8b 8d 20 01
	00 00		 mov	 rcx, QWORD PTR this$[rbp]
  0005c	e8 00 00 00 00	 call	 ?_Getal@?$list@PEAVObjector@@V?$allocator@PEAVObjector@@@std@@@std@@AEAAAEAV?$allocator@U?$_List_node@PEAVObjector@@PEAX@std@@@2@XZ ; std::list<Objector *,std::allocator<Objector *> >::_Getal
  00061	90		 npad	 1
  00062	48 8b d0	 mov	 rdx, rax
  00065	48 8d 4d 24	 lea	 rcx, QWORD PTR $S1$[rbp]
  00069	e8 00 00 00 00	 call	 ??$?0U?$_List_node@PEAVObjector@@PEAX@std@@@?$allocator@U_Container_proxy@std@@@std@@QEAA@AEBV?$allocator@U?$_List_node@PEAVObjector@@PEAX@std@@@1@@Z ; std::allocator<std::_Container_proxy>::allocator<std::_Container_proxy><std::_List_node<Objector *,void *> >
  0006e	90		 npad	 1
  0006f	48 8d 45 24	 lea	 rax, QWORD PTR $S1$[rbp]
  00073	48 89 45 08	 mov	 QWORD PTR _Alproxy$[rbp], rax

; 988  :         _Delete_plain_internal(_Alproxy, _Mypair._Myval2._Myproxy);

  00077	48 8b 85 20 01
	00 00		 mov	 rax, QWORD PTR this$[rbp]
  0007e	48 8b 10	 mov	 rdx, QWORD PTR [rax]
  00081	48 8b 4d 08	 mov	 rcx, QWORD PTR _Alproxy$[rbp]
  00085	e8 00 00 00 00	 call	 ??$_Delete_plain_internal@V?$allocator@U_Container_proxy@std@@@std@@@std@@YAXAEAV?$allocator@U_Container_proxy@std@@@0@QEAU_Container_proxy@0@@Z ; std::_Delete_plain_internal<std::allocator<std::_Container_proxy> >
  0008a	90		 npad	 1

; 989  : #endif /* _ITERATOR_DEBUG_LEVEL != 0 */
; 990  :     }

  0008b	48 8d 4d e0	 lea	 rcx, QWORD PTR [rbp-32]
  0008f	48 8d 15 00 00
	00 00		 lea	 rdx, OFFSET FLAT:??1?$list@PEAVObjector@@V?$allocator@PEAVObjector@@@std@@@std@@QEAA@XZ$rtcFrameData
  00096	e8 00 00 00 00	 call	 _RTC_CheckStackVars
  0009b	90		 npad	 1
  0009c	48 8b 8d f8 00
	00 00		 mov	 rcx, QWORD PTR __$ArrayPad$[rbp]
  000a3	48 33 cd	 xor	 rcx, rbp
  000a6	e8 00 00 00 00	 call	 __security_check_cookie
  000ab	90		 npad	 1
  000ac	48 8d a5 08 01
	00 00		 lea	 rsp, QWORD PTR [rbp+264]
  000b3	5f		 pop	 rdi
  000b4	5d		 pop	 rbp
  000b5	c3		 ret	 0
??1?$list@PEAVObjector@@V?$allocator@PEAVObjector@@@std@@@std@@QEAA@XZ ENDP ; std::list<Objector *,std::allocator<Objector *> >::~list<Objector *,std::allocator<Objector *> >
_TEXT	ENDS
; Function compile flags: /Odtp /RTCsu /ZI
; File C:\Program Files (x86)\Microsoft Visual Studio\2019\Enterprise\VC\Tools\MSVC\14.23.28105\include\list
;	COMDAT ??0?$list@PEAVObjector@@V?$allocator@PEAVObjector@@@std@@@std@@QEAA@XZ
_TEXT	SEGMENT
$T1 = 196
tv69 = 216
this$ = 256
??0?$list@PEAVObjector@@V?$allocator@PEAVObjector@@@std@@@std@@QEAA@XZ PROC ; std::list<Objector *,std::allocator<Objector *> >::list<Objector *,std::allocator<Objector *> >, COMDAT

; 736  :     list() : _Mypair(_Zero_then_variadic_args_t()) { // construct empty list

$LN3:
  00000	48 89 4c 24 08	 mov	 QWORD PTR [rsp+8], rcx
  00005	55		 push	 rbp
  00006	57		 push	 rdi
  00007	48 81 ec 08 01
	00 00		 sub	 rsp, 264		; 00000108H
  0000e	48 8d 6c 24 20	 lea	 rbp, QWORD PTR [rsp+32]
  00013	48 8b fc	 mov	 rdi, rsp
  00016	b9 42 00 00 00	 mov	 ecx, 66			; 00000042H
  0001b	b8 cc cc cc cc	 mov	 eax, -858993460		; ccccccccH
  00020	f3 ab		 rep stosd
  00022	48 8b 8c 24 28
	01 00 00	 mov	 rcx, QWORD PTR [rsp+296]
  0002a	48 8d 0d 00 00
	00 00		 lea	 rcx, OFFSET FLAT:__2EF0BD34_list
  00031	e8 00 00 00 00	 call	 __CheckForDebuggerJustMyCode
  00036	48 8b 85 00 01
	00 00		 mov	 rax, QWORD PTR this$[rbp]
  0003d	48 89 85 d8 00
	00 00		 mov	 QWORD PTR tv69[rbp], rax
  00044	0f b6 95 c4 00
	00 00		 movzx	 edx, BYTE PTR $T1[rbp]
  0004b	48 8b 8d d8 00
	00 00		 mov	 rcx, QWORD PTR tv69[rbp]
  00052	e8 00 00 00 00	 call	 ??$?0$$V@?$_Compressed_pair@V?$allocator@U?$_List_node@PEAVObjector@@PEAX@std@@@std@@V?$_List_val@U?$_List_simple_types@PEAVObjector@@@std@@@2@$00@std@@QEAA@U_Zero_then_variadic_args_t@1@@Z ; std::_Compressed_pair<std::allocator<std::_List_node<Objector *,void *> >,std::_List_val<std::_List_simple_types<Objector *> >,1>::_Compressed_pair<std::allocator<std::_List_node<Objector *,void *> >,std::_List_val<std::_List_simple_types<Objector *> >,1><>

; 737  :         _Alloc_sentinel_and_proxy();

  00057	48 8b 8d 00 01
	00 00		 mov	 rcx, QWORD PTR this$[rbp]
  0005e	e8 00 00 00 00	 call	 ?_Alloc_sentinel_and_proxy@?$list@PEAVObjector@@V?$allocator@PEAVObjector@@@std@@@std@@AEAAXXZ ; std::list<Objector *,std::allocator<Objector *> >::_Alloc_sentinel_and_proxy

; 738  :     }

  00063	48 8b 85 00 01
	00 00		 mov	 rax, QWORD PTR this$[rbp]
  0006a	48 8d a5 e8 00
	00 00		 lea	 rsp, QWORD PTR [rbp+232]
  00071	5f		 pop	 rdi
  00072	5d		 pop	 rbp
  00073	c3		 ret	 0
??0?$list@PEAVObjector@@V?$allocator@PEAVObjector@@@std@@@std@@QEAA@XZ ENDP ; std::list<Objector *,std::allocator<Objector *> >::list<Objector *,std::allocator<Objector *> >
_TEXT	ENDS
; Function compile flags: /Odtp /RTCsu /ZI
; File C:\Program Files (x86)\Microsoft Visual Studio\2019\Enterprise\VC\Tools\MSVC\14.23.28105\include\xmemory
;	COMDAT ?max_size@?$_Default_allocator_traits@V?$allocator@U?$_List_node@PEAVObjector@@PEAX@std@@@std@@@std@@SA_KAEBV?$allocator@U?$_List_node@PEAVObjector@@PEAX@std@@@2@@Z
_TEXT	SEGMENT
__formal$ = 224
?max_size@?$_Default_allocator_traits@V?$allocator@U?$_List_node@PEAVObjector@@PEAX@std@@@std@@@std@@SA_KAEBV?$allocator@U?$_List_node@PEAVObjector@@PEAX@std@@@2@@Z PROC ; std::_Default_allocator_traits<std::allocator<std::_List_node<Objector *,void *> > >::max_size, COMDAT

; 766  :     _NODISCARD static size_type max_size(const _Alloc&) noexcept {

$LN3:
  00000	48 89 4c 24 08	 mov	 QWORD PTR [rsp+8], rcx
  00005	55		 push	 rbp
  00006	57		 push	 rdi
  00007	48 81 ec e8 00
	00 00		 sub	 rsp, 232		; 000000e8H
  0000e	48 8d 6c 24 20	 lea	 rbp, QWORD PTR [rsp+32]
  00013	48 8b fc	 mov	 rdi, rsp
  00016	b9 3a 00 00 00	 mov	 ecx, 58			; 0000003aH
  0001b	b8 cc cc cc cc	 mov	 eax, -858993460		; ccccccccH
  00020	f3 ab		 rep stosd
  00022	48 8b 8c 24 08
	01 00 00	 mov	 rcx, QWORD PTR [rsp+264]
  0002a	48 8d 0d 00 00
	00 00		 lea	 rcx, OFFSET FLAT:__725EB186_xmemory
  00031	e8 00 00 00 00	 call	 __CheckForDebuggerJustMyCode
  00036	90		 npad	 1

; 767  :         return static_cast<size_t>(-1) / sizeof(value_type);

  00037	48 b8 aa aa aa
	aa aa aa aa 0a	 mov	 rax, 768614336404564650	; 0aaaaaaaaaaaaaaaH

; 768  :     }

  00041	48 8d a5 c8 00
	00 00		 lea	 rsp, QWORD PTR [rbp+200]
  00048	5f		 pop	 rdi
  00049	5d		 pop	 rbp
  0004a	c3		 ret	 0
?max_size@?$_Default_allocator_traits@V?$allocator@U?$_List_node@PEAVObjector@@PEAX@std@@@std@@@std@@SA_KAEBV?$allocator@U?$_List_node@PEAVObjector@@PEAX@std@@@2@@Z ENDP ; std::_Default_allocator_traits<std::allocator<std::_List_node<Objector *,void *> > >::max_size
_TEXT	ENDS
; Function compile flags: /Odtp /RTCsu /ZI
; File C:\Program Files (x86)\Microsoft Visual Studio\2019\Enterprise\VC\Tools\MSVC\14.23.28105\include\xmemory
;	COMDAT ?deallocate@?$_Default_allocator_traits@V?$allocator@U?$_List_node@PEAVObjector@@PEAX@std@@@std@@@std@@SAXAEAV?$allocator@U?$_List_node@PEAVObjector@@PEAX@std@@@2@QEAU?$_List_node@PEAVObjector@@PEAX@2@_K@Z
_TEXT	SEGMENT
__formal$ = 224
_Ptr$ = 232
_Count$ = 240
?deallocate@?$_Default_allocator_traits@V?$allocator@U?$_List_node@PEAVObjector@@PEAX@std@@@std@@@std@@SAXAEAV?$allocator@U?$_List_node@PEAVObjector@@PEAX@std@@@2@QEAU?$_List_node@PEAVObjector@@PEAX@2@_K@Z PROC ; std::_Default_allocator_traits<std::allocator<std::_List_node<Objector *,void *> > >::deallocate, COMDAT

; 751  :     static void deallocate(_Alloc&, const pointer _Ptr, const size_type _Count) {

$LN3:
  00000	4c 89 44 24 18	 mov	 QWORD PTR [rsp+24], r8
  00005	48 89 54 24 10	 mov	 QWORD PTR [rsp+16], rdx
  0000a	48 89 4c 24 08	 mov	 QWORD PTR [rsp+8], rcx
  0000f	55		 push	 rbp
  00010	57		 push	 rdi
  00011	48 81 ec e8 00
	00 00		 sub	 rsp, 232		; 000000e8H
  00018	48 8d 6c 24 20	 lea	 rbp, QWORD PTR [rsp+32]
  0001d	48 8b fc	 mov	 rdi, rsp
  00020	b9 3a 00 00 00	 mov	 ecx, 58			; 0000003aH
  00025	b8 cc cc cc cc	 mov	 eax, -858993460		; ccccccccH
  0002a	f3 ab		 rep stosd
  0002c	48 8b 8c 24 08
	01 00 00	 mov	 rcx, QWORD PTR [rsp+264]
  00034	48 8d 0d 00 00
	00 00		 lea	 rcx, OFFSET FLAT:__725EB186_xmemory
  0003b	e8 00 00 00 00	 call	 __CheckForDebuggerJustMyCode

; 752  :         // no overflow check on the following multiply; we assume _Allocate did that check
; 753  :         _Deallocate<_New_alignof<value_type>>(_Ptr, sizeof(value_type) * _Count);

  00040	48 6b 85 f0 00
	00 00 18	 imul	 rax, QWORD PTR _Count$[rbp], 24
  00048	48 8b d0	 mov	 rdx, rax
  0004b	48 8b 8d e8 00
	00 00		 mov	 rcx, QWORD PTR _Ptr$[rbp]
  00052	e8 00 00 00 00	 call	 ??$_Deallocate@$0BA@$0A@@std@@YAXPEAX_K@Z ; std::_Deallocate<16,0>

; 754  :     }

  00057	48 8d a5 c8 00
	00 00		 lea	 rsp, QWORD PTR [rbp+200]
  0005e	5f		 pop	 rdi
  0005f	5d		 pop	 rbp
  00060	c3		 ret	 0
?deallocate@?$_Default_allocator_traits@V?$allocator@U?$_List_node@PEAVObjector@@PEAX@std@@@std@@@std@@SAXAEAV?$allocator@U?$_List_node@PEAVObjector@@PEAX@std@@@2@QEAU?$_List_node@PEAVObjector@@PEAX@2@_K@Z ENDP ; std::_Default_allocator_traits<std::allocator<std::_List_node<Objector *,void *> > >::deallocate
_TEXT	ENDS
; Function compile flags: /Odtp /RTCsu /ZI
; File C:\Program Files (x86)\Microsoft Visual Studio\2019\Enterprise\VC\Tools\MSVC\14.23.28105\include\xmemory
;	COMDAT ?allocate@?$allocator@U?$_List_node@PEAVObjector@@PEAX@std@@@std@@QEAAPEAU?$_List_node@PEAVObjector@@PEAX@2@_K@Z
_TEXT	SEGMENT
this$ = 224
_Count$ = 232
?allocate@?$allocator@U?$_List_node@PEAVObjector@@PEAX@std@@@std@@QEAAPEAU?$_List_node@PEAVObjector@@PEAX@2@_K@Z PROC ; std::allocator<std::_List_node<Objector *,void *> >::allocate, COMDAT

; 870  :     _NODISCARD _DECLSPEC_ALLOCATOR _Ty* allocate(_CRT_GUARDOVERFLOW const size_t _Count) {

$LN3:
  00000	48 89 54 24 10	 mov	 QWORD PTR [rsp+16], rdx
  00005	48 89 4c 24 08	 mov	 QWORD PTR [rsp+8], rcx
  0000a	55		 push	 rbp
  0000b	57		 push	 rdi
  0000c	48 81 ec e8 00
	00 00		 sub	 rsp, 232		; 000000e8H
  00013	48 8d 6c 24 20	 lea	 rbp, QWORD PTR [rsp+32]
  00018	48 8b fc	 mov	 rdi, rsp
  0001b	b9 3a 00 00 00	 mov	 ecx, 58			; 0000003aH
  00020	b8 cc cc cc cc	 mov	 eax, -858993460		; ccccccccH
  00025	f3 ab		 rep stosd
  00027	48 8b 8c 24 08
	01 00 00	 mov	 rcx, QWORD PTR [rsp+264]
  0002f	48 8d 0d 00 00
	00 00		 lea	 rcx, OFFSET FLAT:__725EB186_xmemory
  00036	e8 00 00 00 00	 call	 __CheckForDebuggerJustMyCode

; 871  :         return static_cast<_Ty*>(_Allocate<_New_alignof<_Ty>>(_Get_size_of_n<sizeof(_Ty)>(_Count)));

  0003b	48 8b 8d e8 00
	00 00		 mov	 rcx, QWORD PTR _Count$[rbp]
  00042	e8 00 00 00 00	 call	 ??$_Get_size_of_n@$0BI@@std@@YA_K_K@Z ; std::_Get_size_of_n<24>
  00047	48 8b c8	 mov	 rcx, rax
  0004a	e8 00 00 00 00	 call	 ??$_Allocate@$0BA@U_Default_allocate_traits@std@@$0A@@std@@YAPEAX_K@Z ; std::_Allocate<16,std::_Default_allocate_traits,0>

; 872  :     }

  0004f	48 8d a5 c8 00
	00 00		 lea	 rsp, QWORD PTR [rbp+200]
  00056	5f		 pop	 rdi
  00057	5d		 pop	 rbp
  00058	c3		 ret	 0
?allocate@?$allocator@U?$_List_node@PEAVObjector@@PEAX@std@@@std@@QEAAPEAU?$_List_node@PEAVObjector@@PEAX@2@_K@Z ENDP ; std::allocator<std::_List_node<Objector *,void *> >::allocate
_TEXT	ENDS
; Function compile flags: /Odtp /RTCsu /ZI
; File C:\Program Files (x86)\Microsoft Visual Studio\2019\Enterprise\VC\Tools\MSVC\14.23.28105\include\xmemory
;	COMDAT ?deallocate@?$allocator@U?$_List_node@PEAVObjector@@PEAX@std@@@std@@QEAAXQEAU?$_List_node@PEAVObjector@@PEAX@2@_K@Z
_TEXT	SEGMENT
this$ = 224
_Ptr$ = 232
_Count$ = 240
?deallocate@?$allocator@U?$_List_node@PEAVObjector@@PEAX@std@@@std@@QEAAXQEAU?$_List_node@PEAVObjector@@PEAX@2@_K@Z PROC ; std::allocator<std::_List_node<Objector *,void *> >::deallocate, COMDAT

; 865  :     void deallocate(_Ty* const _Ptr, const size_t _Count) {

$LN3:
  00000	4c 89 44 24 18	 mov	 QWORD PTR [rsp+24], r8
  00005	48 89 54 24 10	 mov	 QWORD PTR [rsp+16], rdx
  0000a	48 89 4c 24 08	 mov	 QWORD PTR [rsp+8], rcx
  0000f	55		 push	 rbp
  00010	57		 push	 rdi
  00011	48 81 ec e8 00
	00 00		 sub	 rsp, 232		; 000000e8H
  00018	48 8d 6c 24 20	 lea	 rbp, QWORD PTR [rsp+32]
  0001d	48 8b fc	 mov	 rdi, rsp
  00020	b9 3a 00 00 00	 mov	 ecx, 58			; 0000003aH
  00025	b8 cc cc cc cc	 mov	 eax, -858993460		; ccccccccH
  0002a	f3 ab		 rep stosd
  0002c	48 8b 8c 24 08
	01 00 00	 mov	 rcx, QWORD PTR [rsp+264]
  00034	48 8d 0d 00 00
	00 00		 lea	 rcx, OFFSET FLAT:__725EB186_xmemory
  0003b	e8 00 00 00 00	 call	 __CheckForDebuggerJustMyCode

; 866  :         // no overflow check on the following multiply; we assume _Allocate did that check
; 867  :         _Deallocate<_New_alignof<_Ty>>(_Ptr, sizeof(_Ty) * _Count);

  00040	48 6b 85 f0 00
	00 00 18	 imul	 rax, QWORD PTR _Count$[rbp], 24
  00048	48 8b d0	 mov	 rdx, rax
  0004b	48 8b 8d e8 00
	00 00		 mov	 rcx, QWORD PTR _Ptr$[rbp]
  00052	e8 00 00 00 00	 call	 ??$_Deallocate@$0BA@$0A@@std@@YAXPEAX_K@Z ; std::_Deallocate<16,0>

; 868  :     }

  00057	48 8d a5 c8 00
	00 00		 lea	 rsp, QWORD PTR [rbp+200]
  0005e	5f		 pop	 rdi
  0005f	5d		 pop	 rbp
  00060	c3		 ret	 0
?deallocate@?$allocator@U?$_List_node@PEAVObjector@@PEAX@std@@@std@@QEAAXQEAU?$_List_node@PEAVObjector@@PEAX@2@_K@Z ENDP ; std::allocator<std::_List_node<Objector *,void *> >::deallocate
_TEXT	ENDS
; Function compile flags: /Odtp /RTCsu /ZI
; File C:\Program Files (x86)\Microsoft Visual Studio\2019\Enterprise\VC\Tools\MSVC\14.23.28105\include\xmemory
;	COMDAT ??0?$allocator@U?$_List_node@PEAVObjector@@PEAX@std@@@std@@QEAA@XZ
_TEXT	SEGMENT
this$ = 224
??0?$allocator@U?$_List_node@PEAVObjector@@PEAX@std@@@std@@QEAA@XZ PROC ; std::allocator<std::_List_node<Objector *,void *> >::allocator<std::_List_node<Objector *,void *> >, COMDAT

; 859  :     constexpr allocator() noexcept {}

$LN3:
  00000	48 89 4c 24 08	 mov	 QWORD PTR [rsp+8], rcx
  00005	55		 push	 rbp
  00006	57		 push	 rdi
  00007	48 81 ec e8 00
	00 00		 sub	 rsp, 232		; 000000e8H
  0000e	48 8d 6c 24 20	 lea	 rbp, QWORD PTR [rsp+32]
  00013	48 8b fc	 mov	 rdi, rsp
  00016	b9 3a 00 00 00	 mov	 ecx, 58			; 0000003aH
  0001b	b8 cc cc cc cc	 mov	 eax, -858993460		; ccccccccH
  00020	f3 ab		 rep stosd
  00022	48 8b 8c 24 08
	01 00 00	 mov	 rcx, QWORD PTR [rsp+264]
  0002a	48 8d 0d 00 00
	00 00		 lea	 rcx, OFFSET FLAT:__725EB186_xmemory
  00031	e8 00 00 00 00	 call	 __CheckForDebuggerJustMyCode
  00036	90		 npad	 1
  00037	48 8b 85 e0 00
	00 00		 mov	 rax, QWORD PTR this$[rbp]
  0003e	48 8d a5 c8 00
	00 00		 lea	 rsp, QWORD PTR [rbp+200]
  00045	5f		 pop	 rdi
  00046	5d		 pop	 rbp
  00047	c3		 ret	 0
??0?$allocator@U?$_List_node@PEAVObjector@@PEAX@std@@@std@@QEAA@XZ ENDP ; std::allocator<std::_List_node<Objector *,void *> >::allocator<std::_List_node<Objector *,void *> >
_TEXT	ENDS
; Function compile flags: /Odtp /RTCsu /ZI
; File E:\project\game_server\Server\Objector.h
;	COMDAT ?Notify@Subject@@UEAAXXZ
_TEXT	SEGMENT
<range>$L0$5 = 8
<begin>$L0$6 = 40
<end>$L0$7 = 72
o$8 = 104
tv94 = 312
__$ArrayPad$ = 320
this$ = 368
?Notify@Subject@@UEAAXXZ PROC				; Subject::Notify, COMDAT

; 27   : 	virtual void Notify() {

$LN6:
  00000	48 89 4c 24 08	 mov	 QWORD PTR [rsp+8], rcx
  00005	55		 push	 rbp
  00006	57		 push	 rdi
  00007	48 81 ec 78 01
	00 00		 sub	 rsp, 376		; 00000178H
  0000e	48 8d 6c 24 20	 lea	 rbp, QWORD PTR [rsp+32]
  00013	48 8b fc	 mov	 rdi, rsp
  00016	b9 5e 00 00 00	 mov	 ecx, 94			; 0000005eH
  0001b	b8 cc cc cc cc	 mov	 eax, -858993460		; ccccccccH
  00020	f3 ab		 rep stosd
  00022	48 8b 8c 24 98
	01 00 00	 mov	 rcx, QWORD PTR [rsp+408]
  0002a	48 8b 05 00 00
	00 00		 mov	 rax, QWORD PTR __security_cookie
  00031	48 33 c5	 xor	 rax, rbp
  00034	48 89 85 40 01
	00 00		 mov	 QWORD PTR __$ArrayPad$[rbp], rax
  0003b	48 8d 0d 00 00
	00 00		 lea	 rcx, OFFSET FLAT:__0028351B_Objector@h
  00042	e8 00 00 00 00	 call	 __CheckForDebuggerJustMyCode

; 28   : 		for (auto o : _objectors) {

  00047	48 8b 85 70 01
	00 00		 mov	 rax, QWORD PTR this$[rbp]
  0004e	48 83 c0 08	 add	 rax, 8
  00052	48 89 45 08	 mov	 QWORD PTR <range>$L0$5[rbp], rax
  00056	ba 08 00 00 00	 mov	 edx, 8
  0005b	48 8d 4d 28	 lea	 rcx, QWORD PTR <begin>$L0$6[rbp]
  0005f	e8 00 00 00 00	 call	 ?__autoclassinit2@?$_List_unchecked_iterator@V?$_List_val@U?$_List_simple_types@PEAVObjector@@@std@@@std@@@std@@QEAAX_K@Z
  00064	48 8d 55 28	 lea	 rdx, QWORD PTR <begin>$L0$6[rbp]
  00068	48 8b 4d 08	 mov	 rcx, QWORD PTR <range>$L0$5[rbp]
  0006c	e8 00 00 00 00	 call	 ?_Unchecked_begin@?$list@PEAVObjector@@V?$allocator@PEAVObjector@@@std@@@std@@QEAA?AV?$_List_unchecked_iterator@V?$_List_val@U?$_List_simple_types@PEAVObjector@@@std@@@std@@@2@XZ ; std::list<Objector *,std::allocator<Objector *> >::_Unchecked_begin
  00071	ba 08 00 00 00	 mov	 edx, 8
  00076	48 8d 4d 48	 lea	 rcx, QWORD PTR <end>$L0$7[rbp]
  0007a	e8 00 00 00 00	 call	 ?__autoclassinit2@?$_List_unchecked_iterator@V?$_List_val@U?$_List_simple_types@PEAVObjector@@@std@@@std@@@std@@QEAAX_K@Z
  0007f	48 8d 55 48	 lea	 rdx, QWORD PTR <end>$L0$7[rbp]
  00083	48 8b 4d 08	 mov	 rcx, QWORD PTR <range>$L0$5[rbp]
  00087	e8 00 00 00 00	 call	 ?_Unchecked_end@?$list@PEAVObjector@@V?$allocator@PEAVObjector@@@std@@@std@@QEAA?AV?$_List_unchecked_iterator@V?$_List_val@U?$_List_simple_types@PEAVObjector@@@std@@@std@@@2@XZ ; std::list<Objector *,std::allocator<Objector *> >::_Unchecked_end
  0008c	eb 09		 jmp	 SHORT $LN4@Notify
$LN2@Notify:
  0008e	48 8d 4d 28	 lea	 rcx, QWORD PTR <begin>$L0$6[rbp]
  00092	e8 00 00 00 00	 call	 ??E?$_List_unchecked_iterator@V?$_List_val@U?$_List_simple_types@PEAVObjector@@@std@@@std@@@std@@QEAAAEAV01@XZ ; std::_List_unchecked_iterator<std::_List_val<std::_List_simple_types<Objector *> > >::operator++
$LN4@Notify:
  00097	48 8d 55 48	 lea	 rdx, QWORD PTR <end>$L0$7[rbp]
  0009b	48 8d 4d 28	 lea	 rcx, QWORD PTR <begin>$L0$6[rbp]
  0009f	e8 00 00 00 00	 call	 ??9?$_List_unchecked_const_iterator@V?$_List_val@U?$_List_simple_types@PEAVObjector@@@std@@@std@@U_Iterator_base0@2@@std@@QEBA_NAEBV01@@Z ; std::_List_unchecked_const_iterator<std::_List_val<std::_List_simple_types<Objector *> >,std::_Iterator_base0>::operator!=
  000a4	0f b6 c0	 movzx	 eax, al
  000a7	85 c0		 test	 eax, eax
  000a9	74 35		 je	 SHORT $LN3@Notify
  000ab	48 8d 4d 28	 lea	 rcx, QWORD PTR <begin>$L0$6[rbp]
  000af	e8 00 00 00 00	 call	 ??D?$_List_unchecked_iterator@V?$_List_val@U?$_List_simple_types@PEAVObjector@@@std@@@std@@@std@@QEBAAEAPEAVObjector@@XZ ; std::_List_unchecked_iterator<std::_List_val<std::_List_simple_types<Objector *> > >::operator*
  000b4	48 8b 00	 mov	 rax, QWORD PTR [rax]
  000b7	48 89 45 68	 mov	 QWORD PTR o$8[rbp], rax

; 29   : 			o->Update(this);

  000bb	48 8b 45 68	 mov	 rax, QWORD PTR o$8[rbp]
  000bf	48 8b 00	 mov	 rax, QWORD PTR [rax]
  000c2	48 8b 40 08	 mov	 rax, QWORD PTR [rax+8]
  000c6	48 89 85 38 01
	00 00		 mov	 QWORD PTR tv94[rbp], rax
  000cd	48 8b 95 70 01
	00 00		 mov	 rdx, QWORD PTR this$[rbp]
  000d4	48 8b 4d 68	 mov	 rcx, QWORD PTR o$8[rbp]
  000d8	ff 95 38 01 00
	00		 call	 QWORD PTR tv94[rbp]

; 30   : 		}

  000de	eb ae		 jmp	 SHORT $LN2@Notify
$LN3@Notify:

; 31   : 	}

  000e0	48 8d 4d e0	 lea	 rcx, QWORD PTR [rbp-32]
  000e4	48 8d 15 00 00
	00 00		 lea	 rdx, OFFSET FLAT:?Notify@Subject@@UEAAXXZ$rtcFrameData
  000eb	e8 00 00 00 00	 call	 _RTC_CheckStackVars
  000f0	48 8b 8d 40 01
	00 00		 mov	 rcx, QWORD PTR __$ArrayPad$[rbp]
  000f7	48 33 cd	 xor	 rcx, rbp
  000fa	e8 00 00 00 00	 call	 __security_check_cookie
  000ff	48 8d a5 58 01
	00 00		 lea	 rsp, QWORD PTR [rbp+344]
  00106	5f		 pop	 rdi
  00107	5d		 pop	 rbp
  00108	c3		 ret	 0
?Notify@Subject@@UEAAXXZ ENDP				; Subject::Notify
_TEXT	ENDS
; Function compile flags: /Odtp /RTCsu /ZI
; File E:\project\game_server\Server\Objector.h
;	COMDAT ?Detach@Subject@@UEAAXPEAVObjector@@@Z
_TEXT	SEGMENT
tv69 = 192
this$ = 240
o$ = 248
?Detach@Subject@@UEAAXPEAVObjector@@@Z PROC		; Subject::Detach, COMDAT

; 24   : 	virtual void Detach(Objector* o) {

$LN3:
  00000	48 89 54 24 10	 mov	 QWORD PTR [rsp+16], rdx
  00005	48 89 4c 24 08	 mov	 QWORD PTR [rsp+8], rcx
  0000a	55		 push	 rbp
  0000b	57		 push	 rdi
  0000c	48 81 ec f8 00
	00 00		 sub	 rsp, 248		; 000000f8H
  00013	48 8d 6c 24 20	 lea	 rbp, QWORD PTR [rsp+32]
  00018	48 8b fc	 mov	 rdi, rsp
  0001b	b9 3e 00 00 00	 mov	 ecx, 62			; 0000003eH
  00020	b8 cc cc cc cc	 mov	 eax, -858993460		; ccccccccH
  00025	f3 ab		 rep stosd
  00027	48 8b 8c 24 18
	01 00 00	 mov	 rcx, QWORD PTR [rsp+280]
  0002f	48 8d 0d 00 00
	00 00		 lea	 rcx, OFFSET FLAT:__0028351B_Objector@h
  00036	e8 00 00 00 00	 call	 __CheckForDebuggerJustMyCode

; 25   : 		_objectors.remove(o);

  0003b	48 8b 85 f0 00
	00 00		 mov	 rax, QWORD PTR this$[rbp]
  00042	48 83 c0 08	 add	 rax, 8
  00046	48 89 85 c0 00
	00 00		 mov	 QWORD PTR tv69[rbp], rax
  0004d	48 8d 95 f8 00
	00 00		 lea	 rdx, QWORD PTR o$[rbp]
  00054	48 8b 8d c0 00
	00 00		 mov	 rcx, QWORD PTR tv69[rbp]
  0005b	e8 00 00 00 00	 call	 ?remove@?$list@PEAVObjector@@V?$allocator@PEAVObjector@@@std@@@std@@QEAA@AEBQEAVObjector@@@Z ; std::list<Objector *,std::allocator<Objector *> >::remove

; 26   : 	}

  00060	48 8d a5 d8 00
	00 00		 lea	 rsp, QWORD PTR [rbp+216]
  00067	5f		 pop	 rdi
  00068	5d		 pop	 rbp
  00069	c3		 ret	 0
?Detach@Subject@@UEAAXPEAVObjector@@@Z ENDP		; Subject::Detach
_TEXT	ENDS
; Function compile flags: /Odtp /RTCsu /ZI
; File E:\project\game_server\Server\Objector.h
;	COMDAT ?Attach@Subject@@UEAAXPEAVObjector@@@Z
_TEXT	SEGMENT
tv68 = 192
this$ = 240
o$ = 248
?Attach@Subject@@UEAAXPEAVObjector@@@Z PROC		; Subject::Attach, COMDAT

; 21   : 	virtual void Attach(Objector* o) {

$LN3:
  00000	48 89 54 24 10	 mov	 QWORD PTR [rsp+16], rdx
  00005	48 89 4c 24 08	 mov	 QWORD PTR [rsp+8], rcx
  0000a	55		 push	 rbp
  0000b	57		 push	 rdi
  0000c	48 81 ec f8 00
	00 00		 sub	 rsp, 248		; 000000f8H
  00013	48 8d 6c 24 20	 lea	 rbp, QWORD PTR [rsp+32]
  00018	48 8b fc	 mov	 rdi, rsp
  0001b	b9 3e 00 00 00	 mov	 ecx, 62			; 0000003eH
  00020	b8 cc cc cc cc	 mov	 eax, -858993460		; ccccccccH
  00025	f3 ab		 rep stosd
  00027	48 8b 8c 24 18
	01 00 00	 mov	 rcx, QWORD PTR [rsp+280]
  0002f	48 8d 0d 00 00
	00 00		 lea	 rcx, OFFSET FLAT:__0028351B_Objector@h
  00036	e8 00 00 00 00	 call	 __CheckForDebuggerJustMyCode

; 22   : 		_objectors.push_back(o);

  0003b	48 8b 85 f0 00
	00 00		 mov	 rax, QWORD PTR this$[rbp]
  00042	48 83 c0 08	 add	 rax, 8
  00046	48 89 85 c0 00
	00 00		 mov	 QWORD PTR tv68[rbp], rax
  0004d	48 8d 95 f8 00
	00 00		 lea	 rdx, QWORD PTR o$[rbp]
  00054	48 8b 8d c0 00
	00 00		 mov	 rcx, QWORD PTR tv68[rbp]
  0005b	e8 00 00 00 00	 call	 ?push_back@?$list@PEAVObjector@@V?$allocator@PEAVObjector@@@std@@@std@@QEAAXAEBQEAVObjector@@@Z ; std::list<Objector *,std::allocator<Objector *> >::push_back

; 23   : 	}

  00060	48 8d a5 d8 00
	00 00		 lea	 rsp, QWORD PTR [rbp+216]
  00067	5f		 pop	 rdi
  00068	5d		 pop	 rbp
  00069	c3		 ret	 0
?Attach@Subject@@UEAAXPEAVObjector@@@Z ENDP		; Subject::Attach
_TEXT	ENDS
; Function compile flags: /Odtp /RTCsu /ZI
; File E:\project\game_server\Server\Objector.h
;	COMDAT ??1Subject@@UEAA@XZ
_TEXT	SEGMENT
this$ = 224
??1Subject@@UEAA@XZ PROC				; Subject::~Subject, COMDAT

; 20   : 	virtual ~Subject() {}

$LN3:
  00000	48 89 4c 24 08	 mov	 QWORD PTR [rsp+8], rcx
  00005	55		 push	 rbp
  00006	57		 push	 rdi
  00007	48 81 ec e8 00
	00 00		 sub	 rsp, 232		; 000000e8H
  0000e	48 8d 6c 24 20	 lea	 rbp, QWORD PTR [rsp+32]
  00013	48 8b fc	 mov	 rdi, rsp
  00016	b9 3a 00 00 00	 mov	 ecx, 58			; 0000003aH
  0001b	b8 cc cc cc cc	 mov	 eax, -858993460		; ccccccccH
  00020	f3 ab		 rep stosd
  00022	48 8b 8c 24 08
	01 00 00	 mov	 rcx, QWORD PTR [rsp+264]
  0002a	48 8d 0d 00 00
	00 00		 lea	 rcx, OFFSET FLAT:__0028351B_Objector@h
  00031	e8 00 00 00 00	 call	 __CheckForDebuggerJustMyCode
  00036	90		 npad	 1
  00037	48 8b 85 e0 00
	00 00		 mov	 rax, QWORD PTR this$[rbp]
  0003e	48 8d 0d 00 00
	00 00		 lea	 rcx, OFFSET FLAT:??_7Subject@@6B@
  00045	48 89 08	 mov	 QWORD PTR [rax], rcx
  00048	48 8b 85 e0 00
	00 00		 mov	 rax, QWORD PTR this$[rbp]
  0004f	48 83 c0 08	 add	 rax, 8
  00053	48 8b c8	 mov	 rcx, rax
  00056	e8 00 00 00 00	 call	 ??1?$list@PEAVObjector@@V?$allocator@PEAVObjector@@@std@@@std@@QEAA@XZ ; std::list<Objector *,std::allocator<Objector *> >::~list<Objector *,std::allocator<Objector *> >
  0005b	90		 npad	 1
  0005c	48 8d a5 c8 00
	00 00		 lea	 rsp, QWORD PTR [rbp+200]
  00063	5f		 pop	 rdi
  00064	5d		 pop	 rbp
  00065	c3		 ret	 0
??1Subject@@UEAA@XZ ENDP				; Subject::~Subject
_TEXT	ENDS
; Function compile flags: /Odtp /RTCsu /ZI
; File E:\project\game_server\Server\Objector.h
;	COMDAT ??0Subject@@QEAA@XZ
_TEXT	SEGMENT
this$ = 224
??0Subject@@QEAA@XZ PROC				; Subject::Subject, COMDAT

; 19   : 	Subject() {}

$LN4:
  00000	48 89 4c 24 08	 mov	 QWORD PTR [rsp+8], rcx
  00005	55		 push	 rbp
  00006	57		 push	 rdi
  00007	48 81 ec e8 00
	00 00		 sub	 rsp, 232		; 000000e8H
  0000e	48 8d 6c 24 20	 lea	 rbp, QWORD PTR [rsp+32]
  00013	48 8b fc	 mov	 rdi, rsp
  00016	b9 3a 00 00 00	 mov	 ecx, 58			; 0000003aH
  0001b	b8 cc cc cc cc	 mov	 eax, -858993460		; ccccccccH
  00020	f3 ab		 rep stosd
  00022	48 8b 8c 24 08
	01 00 00	 mov	 rcx, QWORD PTR [rsp+264]
  0002a	48 8d 0d 00 00
	00 00		 lea	 rcx, OFFSET FLAT:__0028351B_Objector@h
  00031	e8 00 00 00 00	 call	 __CheckForDebuggerJustMyCode
  00036	48 8b 85 e0 00
	00 00		 mov	 rax, QWORD PTR this$[rbp]
  0003d	48 8d 0d 00 00
	00 00		 lea	 rcx, OFFSET FLAT:??_7Subject@@6B@
  00044	48 89 08	 mov	 QWORD PTR [rax], rcx
  00047	48 8b 85 e0 00
	00 00		 mov	 rax, QWORD PTR this$[rbp]
  0004e	48 83 c0 08	 add	 rax, 8
  00052	48 8b c8	 mov	 rcx, rax
  00055	e8 00 00 00 00	 call	 ??0?$list@PEAVObjector@@V?$allocator@PEAVObjector@@@std@@@std@@QEAA@XZ ; std::list<Objector *,std::allocator<Objector *> >::list<Objector *,std::allocator<Objector *> >
  0005a	48 8b 85 e0 00
	00 00		 mov	 rax, QWORD PTR this$[rbp]
  00061	48 8d a5 c8 00
	00 00		 lea	 rsp, QWORD PTR [rbp+200]
  00068	5f		 pop	 rdi
  00069	5d		 pop	 rbp
  0006a	c3		 ret	 0
??0Subject@@QEAA@XZ ENDP				; Subject::Subject
_TEXT	ENDS
; Function compile flags: /Odtp /RTCsu /ZI
;	COMDAT ??_GObjector@@UEAAPEAXI@Z
_TEXT	SEGMENT
this$ = 224
__flags$ = 232
??_GObjector@@UEAAPEAXI@Z PROC				; Objector::`scalar deleting destructor', COMDAT
$LN4:
  00000	89 54 24 10	 mov	 DWORD PTR [rsp+16], edx
  00004	48 89 4c 24 08	 mov	 QWORD PTR [rsp+8], rcx
  00009	55		 push	 rbp
  0000a	57		 push	 rdi
  0000b	48 81 ec e8 00
	00 00		 sub	 rsp, 232		; 000000e8H
  00012	48 8d 6c 24 20	 lea	 rbp, QWORD PTR [rsp+32]
  00017	48 8b fc	 mov	 rdi, rsp
  0001a	b9 3a 00 00 00	 mov	 ecx, 58			; 0000003aH
  0001f	b8 cc cc cc cc	 mov	 eax, -858993460		; ccccccccH
  00024	f3 ab		 rep stosd
  00026	48 8b 8c 24 08
	01 00 00	 mov	 rcx, QWORD PTR [rsp+264]
  0002e	48 8b 8d e0 00
	00 00		 mov	 rcx, QWORD PTR this$[rbp]
  00035	e8 00 00 00 00	 call	 ??1Objector@@UEAA@XZ	; Objector::~Objector
  0003a	8b 85 e8 00 00
	00		 mov	 eax, DWORD PTR __flags$[rbp]
  00040	83 e0 01	 and	 eax, 1
  00043	85 c0		 test	 eax, eax
  00045	74 11		 je	 SHORT $LN2@scalar
  00047	ba 08 00 00 00	 mov	 edx, 8
  0004c	48 8b 8d e0 00
	00 00		 mov	 rcx, QWORD PTR this$[rbp]
  00053	e8 00 00 00 00	 call	 ??3@YAXPEAX_K@Z		; operator delete
$LN2@scalar:
  00058	48 8b 85 e0 00
	00 00		 mov	 rax, QWORD PTR this$[rbp]
  0005f	48 8d a5 c8 00
	00 00		 lea	 rsp, QWORD PTR [rbp+200]
  00066	5f		 pop	 rdi
  00067	5d		 pop	 rbp
  00068	c3		 ret	 0
??_GObjector@@UEAAPEAXI@Z ENDP				; Objector::`scalar deleting destructor'
_TEXT	ENDS
; Function compile flags: /Odtp /RTCsu /ZI
;	COMDAT ??0Objector@@QEAA@XZ
_TEXT	SEGMENT
this$ = 224
??0Objector@@QEAA@XZ PROC				; Objector::Objector, COMDAT
$LN3:
  00000	48 89 4c 24 08	 mov	 QWORD PTR [rsp+8], rcx
  00005	55		 push	 rbp
  00006	57		 push	 rdi
  00007	48 81 ec c8 00
	00 00		 sub	 rsp, 200		; 000000c8H
  0000e	48 8b ec	 mov	 rbp, rsp
  00011	48 8b fc	 mov	 rdi, rsp
  00014	b9 32 00 00 00	 mov	 ecx, 50			; 00000032H
  00019	b8 cc cc cc cc	 mov	 eax, -858993460		; ccccccccH
  0001e	f3 ab		 rep stosd
  00020	48 8b 8c 24 e8
	00 00 00	 mov	 rcx, QWORD PTR [rsp+232]
  00028	48 8b 85 e0 00
	00 00		 mov	 rax, QWORD PTR this$[rbp]
  0002f	48 8d 0d 00 00
	00 00		 lea	 rcx, OFFSET FLAT:??_7Objector@@6B@
  00036	48 89 08	 mov	 QWORD PTR [rax], rcx
  00039	48 8b 85 e0 00
	00 00		 mov	 rax, QWORD PTR this$[rbp]
  00040	48 8d a5 c8 00
	00 00		 lea	 rsp, QWORD PTR [rbp+200]
  00047	5f		 pop	 rdi
  00048	5d		 pop	 rbp
  00049	c3		 ret	 0
??0Objector@@QEAA@XZ ENDP				; Objector::Objector
_TEXT	ENDS
; Function compile flags: /Odtp /RTCsu /ZI
; File E:\project\game_server\Server\Objector.cpp
;	COMDAT ?Update@Objector@@UEAAXQEAVSubject@@@Z
_TEXT	SEGMENT
tv71 = 192
this$ = 240
s$ = 248
?Update@Objector@@UEAAXQEAVSubject@@@Z PROC		; Objector::Update, COMDAT

; 11   : void Objector::Update(Subject* const s) {

$LN3:
  00000	48 89 54 24 10	 mov	 QWORD PTR [rsp+16], rdx
  00005	48 89 4c 24 08	 mov	 QWORD PTR [rsp+8], rcx
  0000a	55		 push	 rbp
  0000b	57		 push	 rdi
  0000c	48 81 ec f8 00
	00 00		 sub	 rsp, 248		; 000000f8H
  00013	48 8d 6c 24 20	 lea	 rbp, QWORD PTR [rsp+32]
  00018	48 8b fc	 mov	 rdi, rsp
  0001b	b9 3e 00 00 00	 mov	 ecx, 62			; 0000003eH
  00020	b8 cc cc cc cc	 mov	 eax, -858993460		; ccccccccH
  00025	f3 ab		 rep stosd
  00027	48 8b 8c 24 18
	01 00 00	 mov	 rcx, QWORD PTR [rsp+280]
  0002f	48 8d 0d 00 00
	00 00		 lea	 rcx, OFFSET FLAT:__8CEAE8BA_Objector@cpp
  00036	e8 00 00 00 00	 call	 __CheckForDebuggerJustMyCode

; 12   : 	std::cout << "Objector do Update" << std::endl;

  0003b	48 8d 15 00 00
	00 00		 lea	 rdx, OFFSET FLAT:??_C@_0BD@HAHFOGAN@Objector?5do?5Update@
  00042	48 8b 0d 00 00
	00 00		 mov	 rcx, QWORD PTR __imp_?cout@std@@3V?$basic_ostream@DU?$char_traits@D@std@@@1@A
  00049	e8 00 00 00 00	 call	 ??$?6U?$char_traits@D@std@@@std@@YAAEAV?$basic_ostream@DU?$char_traits@D@std@@@0@AEAV10@PEBD@Z ; std::operator<<<std::char_traits<char> >
  0004e	48 89 85 c0 00
	00 00		 mov	 QWORD PTR tv71[rbp], rax
  00055	48 8d 15 00 00
	00 00		 lea	 rdx, OFFSET FLAT:??$endl@DU?$char_traits@D@std@@@std@@YAAEAV?$basic_ostream@DU?$char_traits@D@std@@@0@AEAV10@@Z ; std::endl<char,std::char_traits<char> >
  0005c	48 8b 8d c0 00
	00 00		 mov	 rcx, QWORD PTR tv71[rbp]
  00063	ff 15 00 00 00
	00		 call	 QWORD PTR __imp_??6?$basic_ostream@DU?$char_traits@D@std@@@std@@QEAAAEAV01@P6AAEAV01@AEAV01@@Z@Z

; 13   : 	//s->Detach(this);
; 14   : }

  00069	48 8d a5 d8 00
	00 00		 lea	 rsp, QWORD PTR [rbp+216]
  00070	5f		 pop	 rdi
  00071	5d		 pop	 rbp
  00072	c3		 ret	 0
?Update@Objector@@UEAAXQEAVSubject@@@Z ENDP		; Objector::Update
_TEXT	ENDS
; Function compile flags: /Odtp /RTCsu /ZI
; File E:\project\game_server\Server\Objector.h
;	COMDAT ??1Objector@@UEAA@XZ
_TEXT	SEGMENT
this$ = 224
??1Objector@@UEAA@XZ PROC				; Objector::~Objector, COMDAT

; 12   : 	virtual ~Objector() {}

$LN3:
  00000	48 89 4c 24 08	 mov	 QWORD PTR [rsp+8], rcx
  00005	55		 push	 rbp
  00006	57		 push	 rdi
  00007	48 81 ec e8 00
	00 00		 sub	 rsp, 232		; 000000e8H
  0000e	48 8d 6c 24 20	 lea	 rbp, QWORD PTR [rsp+32]
  00013	48 8b fc	 mov	 rdi, rsp
  00016	b9 3a 00 00 00	 mov	 ecx, 58			; 0000003aH
  0001b	b8 cc cc cc cc	 mov	 eax, -858993460		; ccccccccH
  00020	f3 ab		 rep stosd
  00022	48 8b 8c 24 08
	01 00 00	 mov	 rcx, QWORD PTR [rsp+264]
  0002a	48 8d 0d 00 00
	00 00		 lea	 rcx, OFFSET FLAT:__0028351B_Objector@h
  00031	e8 00 00 00 00	 call	 __CheckForDebuggerJustMyCode
  00036	90		 npad	 1
  00037	48 8b 85 e0 00
	00 00		 mov	 rax, QWORD PTR this$[rbp]
  0003e	48 8d 0d 00 00
	00 00		 lea	 rcx, OFFSET FLAT:??_7Objector@@6B@
  00045	48 89 08	 mov	 QWORD PTR [rax], rcx
  00048	48 8d a5 c8 00
	00 00		 lea	 rsp, QWORD PTR [rbp+200]
  0004f	5f		 pop	 rdi
  00050	5d		 pop	 rbp
  00051	c3		 ret	 0
??1Objector@@UEAA@XZ ENDP				; Objector::~Objector
_TEXT	ENDS
; Function compile flags: /Odtp /RTCsu /ZI
; File E:\project\game_server\Server\Objector.cpp
;	COMDAT ?objector_run@@YAXXZ
_TEXT	SEGMENT
s$ = 8
i$4 = 68
$T5 = 296
tv78 = 312
__$ArrayPad$ = 320
?objector_run@@YAXXZ PROC				; objector_run, COMDAT

; 3    : void objector_run() {

$LN9:
  00000	40 55		 push	 rbp
  00002	57		 push	 rdi
  00003	48 81 ec 78 01
	00 00		 sub	 rsp, 376		; 00000178H
  0000a	48 8d 6c 24 20	 lea	 rbp, QWORD PTR [rsp+32]
  0000f	48 8b fc	 mov	 rdi, rsp
  00012	b9 5e 00 00 00	 mov	 ecx, 94			; 0000005eH
  00017	b8 cc cc cc cc	 mov	 eax, -858993460		; ccccccccH
  0001c	f3 ab		 rep stosd
  0001e	48 8b 05 00 00
	00 00		 mov	 rax, QWORD PTR __security_cookie
  00025	48 33 c5	 xor	 rax, rbp
  00028	48 89 85 40 01
	00 00		 mov	 QWORD PTR __$ArrayPad$[rbp], rax
  0002f	48 8d 0d 00 00
	00 00		 lea	 rcx, OFFSET FLAT:__8CEAE8BA_Objector@cpp
  00036	e8 00 00 00 00	 call	 __CheckForDebuggerJustMyCode

; 4    : 	Subject s;

  0003b	ba 20 00 00 00	 mov	 edx, 32			; 00000020H
  00040	48 8d 4d 08	 lea	 rcx, QWORD PTR s$[rbp]
  00044	e8 00 00 00 00	 call	 ?__autoclassinit2@Subject@@QEAAX_K@Z
  00049	48 8d 4d 08	 lea	 rcx, QWORD PTR s$[rbp]
  0004d	e8 00 00 00 00	 call	 ??0Subject@@QEAA@XZ	; Subject::Subject
  00052	90		 npad	 1

; 5    : 	for (int i = 0; i < 100; ++i) {

  00053	c7 45 44 00 00
	00 00		 mov	 DWORD PTR i$4[rbp], 0
  0005a	eb 08		 jmp	 SHORT $LN4@objector_r
$LN2@objector_r:
  0005c	8b 45 44	 mov	 eax, DWORD PTR i$4[rbp]
  0005f	ff c0		 inc	 eax
  00061	89 45 44	 mov	 DWORD PTR i$4[rbp], eax
$LN4@objector_r:
  00064	83 7d 44 64	 cmp	 DWORD PTR i$4[rbp], 100	; 00000064H
  00068	7d 5d		 jge	 SHORT $LN3@objector_r

; 6    : 		s.Attach(new Objector());

  0006a	b9 08 00 00 00	 mov	 ecx, 8
  0006f	e8 00 00 00 00	 call	 ??2@YAPEAX_K@Z		; operator new
  00074	48 89 85 28 01
	00 00		 mov	 QWORD PTR $T5[rbp], rax
  0007b	48 83 bd 28 01
	00 00 00	 cmp	 QWORD PTR $T5[rbp], 0
  00083	74 25		 je	 SHORT $LN6@objector_r
  00085	48 8b bd 28 01
	00 00		 mov	 rdi, QWORD PTR $T5[rbp]
  0008c	33 c0		 xor	 eax, eax
  0008e	b9 08 00 00 00	 mov	 ecx, 8
  00093	f3 aa		 rep stosb
  00095	48 8b 8d 28 01
	00 00		 mov	 rcx, QWORD PTR $T5[rbp]
  0009c	e8 00 00 00 00	 call	 ??0Objector@@QEAA@XZ
  000a1	48 89 85 38 01
	00 00		 mov	 QWORD PTR tv78[rbp], rax
  000a8	eb 0b		 jmp	 SHORT $LN7@objector_r
$LN6@objector_r:
  000aa	48 c7 85 38 01
	00 00 00 00 00
	00		 mov	 QWORD PTR tv78[rbp], 0
$LN7@objector_r:
  000b5	48 8b 95 38 01
	00 00		 mov	 rdx, QWORD PTR tv78[rbp]
  000bc	48 8d 4d 08	 lea	 rcx, QWORD PTR s$[rbp]
  000c0	e8 00 00 00 00	 call	 ?Attach@Subject@@UEAAXPEAVObjector@@@Z ; Subject::Attach

; 7    : 	}

  000c5	eb 95		 jmp	 SHORT $LN2@objector_r
$LN3@objector_r:

; 8    : 	s.Notify();	

  000c7	48 8d 4d 08	 lea	 rcx, QWORD PTR s$[rbp]
  000cb	e8 00 00 00 00	 call	 ?Notify@Subject@@UEAAXXZ ; Subject::Notify
  000d0	90		 npad	 1

; 9    : }

  000d1	48 8d 4d 08	 lea	 rcx, QWORD PTR s$[rbp]
  000d5	e8 00 00 00 00	 call	 ??1Subject@@UEAA@XZ	; Subject::~Subject
  000da	48 8d 4d e0	 lea	 rcx, QWORD PTR [rbp-32]
  000de	48 8d 15 00 00
	00 00		 lea	 rdx, OFFSET FLAT:?objector_run@@YAXXZ$rtcFrameData
  000e5	e8 00 00 00 00	 call	 _RTC_CheckStackVars
  000ea	48 8b 8d 40 01
	00 00		 mov	 rcx, QWORD PTR __$ArrayPad$[rbp]
  000f1	48 33 cd	 xor	 rcx, rbp
  000f4	e8 00 00 00 00	 call	 __security_check_cookie
  000f9	48 8d a5 58 01
	00 00		 lea	 rsp, QWORD PTR [rbp+344]
  00100	5f		 pop	 rdi
  00101	5d		 pop	 rbp
  00102	c3		 ret	 0
?objector_run@@YAXXZ ENDP				; objector_run
_TEXT	ENDS
;	COMDAT text$x
text$x	SEGMENT
s$ = 8
i$4 = 68
$T5 = 296
tv78 = 312
__$ArrayPad$ = 320
?dtor$0@?0??objector_run@@YAXXZ@4HA PROC		; `objector_run'::`1'::dtor$0
  00000	48 89 4c 24 08	 mov	 QWORD PTR [rsp+8], rcx
  00005	48 89 54 24 10	 mov	 QWORD PTR [rsp+16], rdx
  0000a	55		 push	 rbp
  0000b	57		 push	 rdi
  0000c	48 83 ec 28	 sub	 rsp, 40			; 00000028H
  00010	48 8d 6a 20	 lea	 rbp, QWORD PTR [rdx+32]
  00014	48 8d 4d 08	 lea	 rcx, QWORD PTR s$[rbp]
  00018	e8 00 00 00 00	 call	 ??1Subject@@UEAA@XZ	; Subject::~Subject
  0001d	48 83 c4 28	 add	 rsp, 40			; 00000028H
  00021	5f		 pop	 rdi
  00022	5d		 pop	 rbp
  00023	c3		 ret	 0
?dtor$0@?0??objector_run@@YAXXZ@4HA ENDP		; `objector_run'::`1'::dtor$0
text$x	ENDS
; Function compile flags: /Odtp /RTCsu /ZI
;	COMDAT text$x
text$x	SEGMENT
s$ = 8
i$4 = 68
$T5 = 296
tv78 = 312
__$ArrayPad$ = 320
?dtor$0@?0??objector_run@@YAXXZ@4HA PROC		; `objector_run'::`1'::dtor$0
  00000	48 89 4c 24 08	 mov	 QWORD PTR [rsp+8], rcx
  00005	48 89 54 24 10	 mov	 QWORD PTR [rsp+16], rdx
  0000a	55		 push	 rbp
  0000b	57		 push	 rdi
  0000c	48 83 ec 28	 sub	 rsp, 40			; 00000028H
  00010	48 8d 6a 20	 lea	 rbp, QWORD PTR [rdx+32]
  00014	48 8d 4d 08	 lea	 rcx, QWORD PTR s$[rbp]
  00018	e8 00 00 00 00	 call	 ??1Subject@@UEAA@XZ	; Subject::~Subject
  0001d	48 83 c4 28	 add	 rsp, 40			; 00000028H
  00021	5f		 pop	 rdi
  00022	5d		 pop	 rbp
  00023	c3		 ret	 0
?dtor$0@?0??objector_run@@YAXXZ@4HA ENDP		; `objector_run'::`1'::dtor$0
text$x	ENDS
; Function compile flags: /Odtp /RTCsu /ZI
; File C:\Program Files (x86)\Microsoft Visual Studio\2019\Enterprise\VC\Tools\MSVC\14.23.28105\include\utility
;	COMDAT ??$_Min_value@_K@std@@YAAEB_KAEB_K0@Z
_TEXT	SEGMENT
$T1 = 200
tv65 = 216
_Left$ = 256
_Right$ = 264
??$_Min_value@_K@std@@YAAEB_KAEB_K0@Z PROC		; std::_Min_value<unsigned __int64>, COMDAT

; 25   :     _NOEXCEPT_COND(noexcept(_Right < _Left)) { // return smaller of _Left and _Right

$LN5:
  00000	48 89 54 24 10	 mov	 QWORD PTR [rsp+16], rdx
  00005	48 89 4c 24 08	 mov	 QWORD PTR [rsp+8], rcx
  0000a	55		 push	 rbp
  0000b	57		 push	 rdi
  0000c	48 81 ec 08 01
	00 00		 sub	 rsp, 264		; 00000108H
  00013	48 8d 6c 24 20	 lea	 rbp, QWORD PTR [rsp+32]
  00018	48 8b fc	 mov	 rdi, rsp
  0001b	b9 42 00 00 00	 mov	 ecx, 66			; 00000042H
  00020	b8 cc cc cc cc	 mov	 eax, -858993460		; ccccccccH
  00025	f3 ab		 rep stosd
  00027	48 8b 8c 24 28
	01 00 00	 mov	 rcx, QWORD PTR [rsp+296]
  0002f	48 8d 0d 00 00
	00 00		 lea	 rcx, OFFSET FLAT:__18CBD245_utility
  00036	e8 00 00 00 00	 call	 __CheckForDebuggerJustMyCode
  0003b	90		 npad	 1

; 26   :     return _Right < _Left ? _Right : _Left;

  0003c	48 8b 85 08 01
	00 00		 mov	 rax, QWORD PTR _Right$[rbp]
  00043	48 8b 8d 00 01
	00 00		 mov	 rcx, QWORD PTR _Left$[rbp]
  0004a	48 8b 09	 mov	 rcx, QWORD PTR [rcx]
  0004d	48 39 08	 cmp	 QWORD PTR [rax], rcx
  00050	73 10		 jae	 SHORT $LN3@Min_value
  00052	48 8b 85 08 01
	00 00		 mov	 rax, QWORD PTR _Right$[rbp]
  00059	48 89 85 d8 00
	00 00		 mov	 QWORD PTR tv65[rbp], rax
  00060	eb 0e		 jmp	 SHORT $LN4@Min_value
$LN3@Min_value:
  00062	48 8b 85 00 01
	00 00		 mov	 rax, QWORD PTR _Left$[rbp]
  00069	48 89 85 d8 00
	00 00		 mov	 QWORD PTR tv65[rbp], rax
$LN4@Min_value:
  00070	48 8b 85 d8 00
	00 00		 mov	 rax, QWORD PTR tv65[rbp]
  00077	48 89 85 c8 00
	00 00		 mov	 QWORD PTR $T1[rbp], rax
  0007e	48 8b 85 c8 00
	00 00		 mov	 rax, QWORD PTR $T1[rbp]

; 27   : }

  00085	48 8d a5 e8 00
	00 00		 lea	 rsp, QWORD PTR [rbp+232]
  0008c	5f		 pop	 rdi
  0008d	5d		 pop	 rbp
  0008e	c3		 ret	 0
??$_Min_value@_K@std@@YAAEB_KAEB_K0@Z ENDP		; std::_Min_value<unsigned __int64>
_TEXT	ENDS
; Function compile flags: /Odtp /RTCsu /ZI
; File C:\Program Files (x86)\Microsoft Visual Studio\2019\Enterprise\VC\Tools\MSVC\14.23.28105\include\xstring
;	COMDAT ?eof@?$_Narrow_char_traits@DH@std@@SAHXZ
_TEXT	SEGMENT
?eof@?$_Narrow_char_traits@DH@std@@SAHXZ PROC		; std::_Narrow_char_traits<char,int>::eof, COMDAT

; 410  :     _NODISCARD static constexpr int_type eof() noexcept { // return end-of-file metacharacter

$LN3:
  00000	40 55		 push	 rbp
  00002	57		 push	 rdi
  00003	48 81 ec e8 00
	00 00		 sub	 rsp, 232		; 000000e8H
  0000a	48 8d 6c 24 20	 lea	 rbp, QWORD PTR [rsp+32]
  0000f	48 8b fc	 mov	 rdi, rsp
  00012	b9 3a 00 00 00	 mov	 ecx, 58			; 0000003aH
  00017	b8 cc cc cc cc	 mov	 eax, -858993460		; ccccccccH
  0001c	f3 ab		 rep stosd
  0001e	48 8d 0d 00 00
	00 00		 lea	 rcx, OFFSET FLAT:__068D371A_xstring
  00025	e8 00 00 00 00	 call	 __CheckForDebuggerJustMyCode
  0002a	90		 npad	 1

; 411  :         return static_cast<int_type>(EOF);

  0002b	b8 ff ff ff ff	 mov	 eax, -1

; 412  :     }

  00030	48 8d a5 c8 00
	00 00		 lea	 rsp, QWORD PTR [rbp+200]
  00037	5f		 pop	 rdi
  00038	5d		 pop	 rbp
  00039	c3		 ret	 0
?eof@?$_Narrow_char_traits@DH@std@@SAHXZ ENDP		; std::_Narrow_char_traits<char,int>::eof
_TEXT	ENDS
; Function compile flags: /Odtp /RTCsu /ZI
; File C:\Program Files (x86)\Microsoft Visual Studio\2019\Enterprise\VC\Tools\MSVC\14.23.28105\include\xstring
;	COMDAT ?eq_int_type@?$_Narrow_char_traits@DH@std@@SA_NAEBH0@Z
_TEXT	SEGMENT
tv65 = 192
_Left$ = 240
_Right$ = 248
?eq_int_type@?$_Narrow_char_traits@DH@std@@SA_NAEBH0@Z PROC ; std::_Narrow_char_traits<char,int>::eq_int_type, COMDAT

; 401  :     _NODISCARD static constexpr bool eq_int_type(const int_type& _Left, const int_type& _Right) noexcept {

$LN5:
  00000	48 89 54 24 10	 mov	 QWORD PTR [rsp+16], rdx
  00005	48 89 4c 24 08	 mov	 QWORD PTR [rsp+8], rcx
  0000a	55		 push	 rbp
  0000b	57		 push	 rdi
  0000c	48 81 ec f8 00
	00 00		 sub	 rsp, 248		; 000000f8H
  00013	48 8d 6c 24 20	 lea	 rbp, QWORD PTR [rsp+32]
  00018	48 8b fc	 mov	 rdi, rsp
  0001b	b9 3e 00 00 00	 mov	 ecx, 62			; 0000003eH
  00020	b8 cc cc cc cc	 mov	 eax, -858993460		; ccccccccH
  00025	f3 ab		 rep stosd
  00027	48 8b 8c 24 18
	01 00 00	 mov	 rcx, QWORD PTR [rsp+280]
  0002f	48 8d 0d 00 00
	00 00		 lea	 rcx, OFFSET FLAT:__068D371A_xstring
  00036	e8 00 00 00 00	 call	 __CheckForDebuggerJustMyCode
  0003b	90		 npad	 1

; 402  :         // test for metacharacter equality
; 403  :         return _Left == _Right;

  0003c	48 8b 85 f0 00
	00 00		 mov	 rax, QWORD PTR _Left$[rbp]
  00043	48 8b 8d f8 00
	00 00		 mov	 rcx, QWORD PTR _Right$[rbp]
  0004a	8b 09		 mov	 ecx, DWORD PTR [rcx]
  0004c	39 08		 cmp	 DWORD PTR [rax], ecx
  0004e	75 0c		 jne	 SHORT $LN3@eq_int_typ
  00050	c7 85 c0 00 00
	00 01 00 00 00	 mov	 DWORD PTR tv65[rbp], 1
  0005a	eb 0a		 jmp	 SHORT $LN4@eq_int_typ
$LN3@eq_int_typ:
  0005c	c7 85 c0 00 00
	00 00 00 00 00	 mov	 DWORD PTR tv65[rbp], 0
$LN4@eq_int_typ:
  00066	0f b6 85 c0 00
	00 00		 movzx	 eax, BYTE PTR tv65[rbp]

; 404  :     }

  0006d	48 8d a5 d8 00
	00 00		 lea	 rsp, QWORD PTR [rbp+216]
  00074	5f		 pop	 rdi
  00075	5d		 pop	 rbp
  00076	c3		 ret	 0
?eq_int_type@?$_Narrow_char_traits@DH@std@@SA_NAEBH0@Z ENDP ; std::_Narrow_char_traits<char,int>::eq_int_type
_TEXT	ENDS
; Function compile flags: /Odtp /RTCsu /ZI
; File C:\Program Files (x86)\Microsoft Visual Studio\2019\Enterprise\VC\Tools\MSVC\14.23.28105\include\xstring
;	COMDAT ?length@?$_Narrow_char_traits@DH@std@@SA_KQEBD@Z
_TEXT	SEGMENT
tv68 = 192
tv69 = 200
_First$ = 240
?length@?$_Narrow_char_traits@DH@std@@SA_KQEBD@Z PROC	; std::_Narrow_char_traits<char,int>::length, COMDAT

; 310  :     _NODISCARD static _CONSTEXPR17 size_t length(_In_z_ const _Elem* const _First) noexcept { // strengthened

$LN4:
  00000	48 89 4c 24 08	 mov	 QWORD PTR [rsp+8], rcx
  00005	55		 push	 rbp
  00006	57		 push	 rdi
  00007	48 81 ec f8 00
	00 00		 sub	 rsp, 248		; 000000f8H
  0000e	48 8d 6c 24 20	 lea	 rbp, QWORD PTR [rsp+32]
  00013	48 8b fc	 mov	 rdi, rsp
  00016	b9 3e 00 00 00	 mov	 ecx, 62			; 0000003eH
  0001b	b8 cc cc cc cc	 mov	 eax, -858993460		; ccccccccH
  00020	f3 ab		 rep stosd
  00022	48 8b 8c 24 18
	01 00 00	 mov	 rcx, QWORD PTR [rsp+280]
  0002a	48 8d 0d 00 00
	00 00		 lea	 rcx, OFFSET FLAT:__068D371A_xstring
  00031	e8 00 00 00 00	 call	 __CheckForDebuggerJustMyCode
  00036	90		 npad	 1

; 311  :         // find length of null-terminated string
; 312  : #if _HAS_CXX17
; 313  : #if _HAS_CHAR8_T
; 314  :         if constexpr (is_same_v<_Elem, char8_t>) {
; 315  : #if _HAS_U8_INTRINSICS
; 316  :             return __builtin_u8strlen(_First);
; 317  : #else // ^^^ use u8 intrinsics / no u8 intrinsics vvv
; 318  :             return _Char_traits<_Elem, _Int_type>::length(_First);
; 319  : #endif // _HAS_U8_INTRINSICS
; 320  :         } else
; 321  : #endif // _HAS_CHAR8_T
; 322  :         {
; 323  :             return __builtin_strlen(_First);

  00037	48 8b 85 f0 00
	00 00		 mov	 rax, QWORD PTR _First$[rbp]
  0003e	48 89 85 c0 00
	00 00		 mov	 QWORD PTR tv68[rbp], rax
  00045	48 c7 85 c8 00
	00 00 ff ff ff
	ff		 mov	 QWORD PTR tv69[rbp], -1
$LL3@length:
  00050	48 ff 85 c8 00
	00 00		 inc	 QWORD PTR tv69[rbp]
  00057	48 8b 85 c0 00
	00 00		 mov	 rax, QWORD PTR tv68[rbp]
  0005e	48 8b 8d c8 00
	00 00		 mov	 rcx, QWORD PTR tv69[rbp]
  00065	80 3c 08 00	 cmp	 BYTE PTR [rax+rcx], 0
  00069	75 e5		 jne	 SHORT $LL3@length
  0006b	48 8b 85 c8 00
	00 00		 mov	 rax, QWORD PTR tv69[rbp]

; 324  :         }
; 325  : #else // _HAS_CXX17
; 326  :         return _CSTD strlen(reinterpret_cast<const char*>(_First));
; 327  : #endif // _HAS_CXX17
; 328  :     }

  00072	48 8d a5 d8 00
	00 00		 lea	 rsp, QWORD PTR [rbp+216]
  00079	5f		 pop	 rdi
  0007a	5d		 pop	 rbp
  0007b	c3		 ret	 0
?length@?$_Narrow_char_traits@DH@std@@SA_KQEBD@Z ENDP	; std::_Narrow_char_traits<char,int>::length
_TEXT	ENDS
; Function compile flags: /Odtp /RTCsu /ZI
; File C:\Program Files (x86)\Microsoft Visual Studio\2019\Enterprise\VC\Tools\MSVC\14.23.28105\include\xstddef
;	COMDAT ??$addressof@U_Container_base12@std@@@std@@YAPEAU_Container_base12@0@AEAU10@@Z
_TEXT	SEGMENT
_Val$ = 224
??$addressof@U_Container_base12@std@@@std@@YAPEAU_Container_base12@0@AEAU10@@Z PROC ; std::addressof<std::_Container_base12>, COMDAT

; 279  : _NODISCARD constexpr _Ty* addressof(_Ty& _Val) noexcept { // return address of _Val

$LN3:
  00000	48 89 4c 24 08	 mov	 QWORD PTR [rsp+8], rcx
  00005	55		 push	 rbp
  00006	57		 push	 rdi
  00007	48 81 ec e8 00
	00 00		 sub	 rsp, 232		; 000000e8H
  0000e	48 8d 6c 24 20	 lea	 rbp, QWORD PTR [rsp+32]
  00013	48 8b fc	 mov	 rdi, rsp
  00016	b9 3a 00 00 00	 mov	 ecx, 58			; 0000003aH
  0001b	b8 cc cc cc cc	 mov	 eax, -858993460		; ccccccccH
  00020	f3 ab		 rep stosd
  00022	48 8b 8c 24 08
	01 00 00	 mov	 rcx, QWORD PTR [rsp+264]
  0002a	48 8d 0d 00 00
	00 00		 lea	 rcx, OFFSET FLAT:__EFD44557_xstddef
  00031	e8 00 00 00 00	 call	 __CheckForDebuggerJustMyCode
  00036	90		 npad	 1

; 280  :     return __builtin_addressof(_Val);

  00037	48 8b 85 e0 00
	00 00		 mov	 rax, QWORD PTR _Val$[rbp]

; 281  : }

  0003e	48 8d a5 c8 00
	00 00		 lea	 rsp, QWORD PTR [rbp+200]
  00045	5f		 pop	 rdi
  00046	5d		 pop	 rbp
  00047	c3		 ret	 0
??$addressof@U_Container_base12@std@@@std@@YAPEAU_Container_base12@0@AEAU10@@Z ENDP ; std::addressof<std::_Container_base12>
_TEXT	ENDS
; Function compile flags: /Odtp /RTCsu /ZI
; File C:\Program Files (x86)\Microsoft Visual Studio\2019\Enterprise\VC\Tools\MSVC\14.23.28105\include\xmemory
;	COMDAT ?_Release@_Basic_container_proxy_ptr12@std@@QEAAXXZ
_TEXT	SEGMENT
this$ = 224
?_Release@_Basic_container_proxy_ptr12@std@@QEAAXXZ PROC ; std::_Basic_container_proxy_ptr12::_Release, COMDAT

; 1348 :     void _Release() noexcept { // disengage this _Basic_container_proxy_ptr12

$LN3:
  00000	48 89 4c 24 08	 mov	 QWORD PTR [rsp+8], rcx
  00005	55		 push	 rbp
  00006	57		 push	 rdi
  00007	48 81 ec e8 00
	00 00		 sub	 rsp, 232		; 000000e8H
  0000e	48 8d 6c 24 20	 lea	 rbp, QWORD PTR [rsp+32]
  00013	48 8b fc	 mov	 rdi, rsp
  00016	b9 3a 00 00 00	 mov	 ecx, 58			; 0000003aH
  0001b	b8 cc cc cc cc	 mov	 eax, -858993460		; ccccccccH
  00020	f3 ab		 rep stosd
  00022	48 8b 8c 24 08
	01 00 00	 mov	 rcx, QWORD PTR [rsp+264]
  0002a	48 8d 0d 00 00
	00 00		 lea	 rcx, OFFSET FLAT:__725EB186_xmemory
  00031	e8 00 00 00 00	 call	 __CheckForDebuggerJustMyCode
  00036	90		 npad	 1

; 1349 :         _Ptr = nullptr;

  00037	48 8b 85 e0 00
	00 00		 mov	 rax, QWORD PTR this$[rbp]
  0003e	48 c7 00 00 00
	00 00		 mov	 QWORD PTR [rax], 0

; 1350 :     }

  00045	48 8d a5 c8 00
	00 00		 lea	 rsp, QWORD PTR [rbp+200]
  0004c	5f		 pop	 rdi
  0004d	5d		 pop	 rbp
  0004e	c3		 ret	 0
?_Release@_Basic_container_proxy_ptr12@std@@QEAAXXZ ENDP ; std::_Basic_container_proxy_ptr12::_Release
_TEXT	ENDS
; Function compile flags: /Odtp /RTCsu /ZI
; File C:\Program Files (x86)\Microsoft Visual Studio\2019\Enterprise\VC\Tools\MSVC\14.23.28105\include\xmemory
;	COMDAT ??$_Construct_in_place@U_Container_proxy@std@@PEAU_Container_base12@2@@std@@YAXAEAU_Container_proxy@0@$$QEAPEAU_Container_base12@0@@Z
_TEXT	SEGMENT
$T1 = 200
tv78 = 216
_Obj$ = 256
<_Args_0>$ = 264
??$_Construct_in_place@U_Container_proxy@std@@PEAU_Container_base12@2@@std@@YAXAEAU_Container_proxy@0@$$QEAPEAU_Container_base12@0@@Z PROC ; std::_Construct_in_place<std::_Container_proxy,std::_Container_base12 *>, COMDAT

; 198  : void _Construct_in_place(_Ty& _Obj, _Types&&... _Args) _NOEXCEPT_COND(is_nothrow_constructible_v<_Ty, _Types...>) {

$LN3:
  00000	48 89 54 24 10	 mov	 QWORD PTR [rsp+16], rdx
  00005	48 89 4c 24 08	 mov	 QWORD PTR [rsp+8], rcx
  0000a	55		 push	 rbp
  0000b	57		 push	 rdi
  0000c	48 81 ec 08 01
	00 00		 sub	 rsp, 264		; 00000108H
  00013	48 8d 6c 24 20	 lea	 rbp, QWORD PTR [rsp+32]
  00018	48 8b fc	 mov	 rdi, rsp
  0001b	b9 42 00 00 00	 mov	 ecx, 66			; 00000042H
  00020	b8 cc cc cc cc	 mov	 eax, -858993460		; ccccccccH
  00025	f3 ab		 rep stosd
  00027	48 8b 8c 24 28
	01 00 00	 mov	 rcx, QWORD PTR [rsp+296]
  0002f	48 8d 0d 00 00
	00 00		 lea	 rcx, OFFSET FLAT:__725EB186_xmemory
  00036	e8 00 00 00 00	 call	 __CheckForDebuggerJustMyCode
  0003b	90		 npad	 1
  0003c	48 8b 8d 00 01
	00 00		 mov	 rcx, QWORD PTR _Obj$[rbp]
  00043	e8 00 00 00 00	 call	 ??$addressof@U_Container_proxy@std@@@std@@YAPEAU_Container_proxy@0@AEAU10@@Z ; std::addressof<std::_Container_proxy>
  00048	90		 npad	 1
  00049	48 8b d0	 mov	 rdx, rax
  0004c	b9 10 00 00 00	 mov	 ecx, 16
  00051	e8 00 00 00 00	 call	 ??2@YAPEAX_KPEAX@Z	; operator new
  00056	90		 npad	 1
  00057	48 89 85 c8 00
	00 00		 mov	 QWORD PTR $T1[rbp], rax
  0005e	48 8b 8d 08 01
	00 00		 mov	 rcx, QWORD PTR <_Args_0>$[rbp]
  00065	e8 00 00 00 00	 call	 ??$forward@PEAU_Container_base12@std@@@std@@YA$$QEAPEAU_Container_base12@0@AEAPEAU10@@Z ; std::forward<std::_Container_base12 *>
  0006a	90		 npad	 1
  0006b	48 8b 00	 mov	 rax, QWORD PTR [rax]
  0006e	48 89 85 d8 00
	00 00		 mov	 QWORD PTR tv78[rbp], rax
  00075	48 8b 95 d8 00
	00 00		 mov	 rdx, QWORD PTR tv78[rbp]
  0007c	48 8b 8d c8 00
	00 00		 mov	 rcx, QWORD PTR $T1[rbp]
  00083	e8 00 00 00 00	 call	 ??0_Container_proxy@std@@QEAA@PEAU_Container_base12@1@@Z ; std::_Container_proxy::_Container_proxy
  00088	90		 npad	 1

; 199  :     ::new (const_cast<void*>(static_cast<const volatile void*>(_STD addressof(_Obj))))
; 200  :         _Ty(_STD forward<_Types>(_Args)...);
; 201  : }

  00089	48 8d a5 e8 00
	00 00		 lea	 rsp, QWORD PTR [rbp+232]
  00090	5f		 pop	 rdi
  00091	5d		 pop	 rbp
  00092	c3		 ret	 0
??$_Construct_in_place@U_Container_proxy@std@@PEAU_Container_base12@2@@std@@YAXAEAU_Container_proxy@0@$$QEAPEAU_Container_base12@0@@Z ENDP ; std::_Construct_in_place<std::_Container_proxy,std::_Container_base12 *>
_TEXT	ENDS
; Function compile flags: /Odtp /RTCsu /ZI
; File C:\Program Files (x86)\Microsoft Visual Studio\2019\Enterprise\VC\Tools\MSVC\14.23.28105\include\xmemory
;	COMDAT ?_Orphan_all@_Container_base12@std@@QEAAXXZ
_TEXT	SEGMENT
_Lock$4 = 4
_Pnext$5 = 40
__$ArrayPad$ = 248
this$ = 288
?_Orphan_all@_Container_base12@std@@QEAAXXZ PROC	; std::_Container_base12::_Orphan_all, COMDAT

; 1288 : inline void _Container_base12::_Orphan_all() noexcept {

$LN7:
  00000	48 89 4c 24 08	 mov	 QWORD PTR [rsp+8], rcx
  00005	55		 push	 rbp
  00006	57		 push	 rdi
  00007	48 81 ec 28 01
	00 00		 sub	 rsp, 296		; 00000128H
  0000e	48 8d 6c 24 20	 lea	 rbp, QWORD PTR [rsp+32]
  00013	48 8b fc	 mov	 rdi, rsp
  00016	b9 4a 00 00 00	 mov	 ecx, 74			; 0000004aH
  0001b	b8 cc cc cc cc	 mov	 eax, -858993460		; ccccccccH
  00020	f3 ab		 rep stosd
  00022	48 8b 8c 24 48
	01 00 00	 mov	 rcx, QWORD PTR [rsp+328]
  0002a	48 8b 05 00 00
	00 00		 mov	 rax, QWORD PTR __security_cookie
  00031	48 33 c5	 xor	 rax, rbp
  00034	48 89 85 f8 00
	00 00		 mov	 QWORD PTR __$ArrayPad$[rbp], rax
  0003b	48 8d 0d 00 00
	00 00		 lea	 rcx, OFFSET FLAT:__725EB186_xmemory
  00042	e8 00 00 00 00	 call	 __CheckForDebuggerJustMyCode
  00047	90		 npad	 1

; 1289 : #if _ITERATOR_DEBUG_LEVEL == 2
; 1290 :     if (_Myproxy) { // proxy allocated, drain it

  00048	48 8b 85 20 01
	00 00		 mov	 rax, QWORD PTR this$[rbp]
  0004f	48 83 38 00	 cmp	 QWORD PTR [rax], 0
  00053	74 6d		 je	 SHORT $LN5@Orphan_all

; 1291 :         _Lockit _Lock(_LOCK_DEBUG);

  00055	ba 03 00 00 00	 mov	 edx, 3
  0005a	48 8d 4d 04	 lea	 rcx, QWORD PTR _Lock$4[rbp]
  0005e	ff 15 00 00 00
	00		 call	 QWORD PTR __imp_??0_Lockit@std@@QEAA@H@Z
  00064	90		 npad	 1

; 1292 : 
; 1293 :         for (auto _Pnext = &_Myproxy->_Myfirstiter; *_Pnext; *_Pnext = (*_Pnext)->_Mynextiter) {

  00065	48 8b 85 20 01
	00 00		 mov	 rax, QWORD PTR this$[rbp]
  0006c	48 8b 00	 mov	 rax, QWORD PTR [rax]
  0006f	48 83 c0 08	 add	 rax, 8
  00073	48 89 45 28	 mov	 QWORD PTR _Pnext$5[rbp], rax
  00077	eb 12		 jmp	 SHORT $LN4@Orphan_all
$LN2@Orphan_all:
  00079	48 8b 45 28	 mov	 rax, QWORD PTR _Pnext$5[rbp]
  0007d	48 8b 00	 mov	 rax, QWORD PTR [rax]
  00080	48 8b 4d 28	 mov	 rcx, QWORD PTR _Pnext$5[rbp]
  00084	48 8b 40 08	 mov	 rax, QWORD PTR [rax+8]
  00088	48 89 01	 mov	 QWORD PTR [rcx], rax
$LN4@Orphan_all:
  0008b	48 8b 45 28	 mov	 rax, QWORD PTR _Pnext$5[rbp]
  0008f	48 83 38 00	 cmp	 QWORD PTR [rax], 0
  00093	74 10		 je	 SHORT $LN3@Orphan_all

; 1294 :             (*_Pnext)->_Myproxy = nullptr;

  00095	48 8b 45 28	 mov	 rax, QWORD PTR _Pnext$5[rbp]
  00099	48 8b 00	 mov	 rax, QWORD PTR [rax]
  0009c	48 c7 00 00 00
	00 00		 mov	 QWORD PTR [rax], 0

; 1295 :         }

  000a3	eb d4		 jmp	 SHORT $LN2@Orphan_all
$LN3@Orphan_all:

; 1296 : 
; 1297 :         _Myproxy->_Myfirstiter = nullptr;

  000a5	48 8b 85 20 01
	00 00		 mov	 rax, QWORD PTR this$[rbp]
  000ac	48 8b 00	 mov	 rax, QWORD PTR [rax]
  000af	48 c7 40 08 00
	00 00 00	 mov	 QWORD PTR [rax+8], 0

; 1298 :     }

  000b7	48 8d 4d 04	 lea	 rcx, QWORD PTR _Lock$4[rbp]
  000bb	ff 15 00 00 00
	00		 call	 QWORD PTR __imp_??1_Lockit@std@@QEAA@XZ
  000c1	90		 npad	 1
$LN5@Orphan_all:

; 1299 : #endif // _ITERATOR_DEBUG_LEVEL == 2
; 1300 : }

  000c2	48 8d 4d e0	 lea	 rcx, QWORD PTR [rbp-32]
  000c6	48 8d 15 00 00
	00 00		 lea	 rdx, OFFSET FLAT:?_Orphan_all@_Container_base12@std@@QEAAXXZ$rtcFrameData
  000cd	e8 00 00 00 00	 call	 _RTC_CheckStackVars
  000d2	90		 npad	 1
  000d3	48 8b 8d f8 00
	00 00		 mov	 rcx, QWORD PTR __$ArrayPad$[rbp]
  000da	48 33 cd	 xor	 rcx, rbp
  000dd	e8 00 00 00 00	 call	 __security_check_cookie
  000e2	90		 npad	 1
  000e3	48 8d a5 08 01
	00 00		 lea	 rsp, QWORD PTR [rbp+264]
  000ea	5f		 pop	 rdi
  000eb	5d		 pop	 rbp
  000ec	c3		 ret	 0
?_Orphan_all@_Container_base12@std@@QEAAXXZ ENDP	; std::_Container_base12::_Orphan_all
_TEXT	ENDS
; Function compile flags: /Odtp /RTCsu /ZI
; File C:\Program Files (x86)\Microsoft Visual Studio\2019\Enterprise\VC\Tools\MSVC\14.23.28105\include\xmemory
;	COMDAT ??0_Container_base12@std@@QEAA@XZ
_TEXT	SEGMENT
this$ = 224
??0_Container_base12@std@@QEAA@XZ PROC			; std::_Container_base12::_Container_base12, COMDAT

; 1175 :     _Container_base12() : _Myproxy(nullptr) {} // construct childless container

$LN3:
  00000	48 89 4c 24 08	 mov	 QWORD PTR [rsp+8], rcx
  00005	55		 push	 rbp
  00006	57		 push	 rdi
  00007	48 81 ec e8 00
	00 00		 sub	 rsp, 232		; 000000e8H
  0000e	48 8d 6c 24 20	 lea	 rbp, QWORD PTR [rsp+32]
  00013	48 8b fc	 mov	 rdi, rsp
  00016	b9 3a 00 00 00	 mov	 ecx, 58			; 0000003aH
  0001b	b8 cc cc cc cc	 mov	 eax, -858993460		; ccccccccH
  00020	f3 ab		 rep stosd
  00022	48 8b 8c 24 08
	01 00 00	 mov	 rcx, QWORD PTR [rsp+264]
  0002a	48 8d 0d 00 00
	00 00		 lea	 rcx, OFFSET FLAT:__725EB186_xmemory
  00031	e8 00 00 00 00	 call	 __CheckForDebuggerJustMyCode
  00036	48 8b 85 e0 00
	00 00		 mov	 rax, QWORD PTR this$[rbp]
  0003d	48 c7 00 00 00
	00 00		 mov	 QWORD PTR [rax], 0
  00044	48 8b 85 e0 00
	00 00		 mov	 rax, QWORD PTR this$[rbp]
  0004b	48 8d a5 c8 00
	00 00		 lea	 rsp, QWORD PTR [rbp+200]
  00052	5f		 pop	 rdi
  00053	5d		 pop	 rbp
  00054	c3		 ret	 0
??0_Container_base12@std@@QEAA@XZ ENDP			; std::_Container_base12::_Container_base12
_TEXT	ENDS
; Function compile flags: /Odtp /RTCsu /ZI
; File C:\Program Files (x86)\Microsoft Visual Studio\2019\Enterprise\VC\Tools\MSVC\14.23.28105\include\xmemory
;	COMDAT ??0_Container_proxy@std@@QEAA@PEAU_Container_base12@1@@Z
_TEXT	SEGMENT
this$ = 224
_Mycont_$ = 232
??0_Container_proxy@std@@QEAA@PEAU_Container_base12@1@@Z PROC ; std::_Container_proxy::_Container_proxy, COMDAT

; 1167 :     _Container_proxy(_Container_base12* _Mycont_) noexcept : _Mycont(_Mycont_), _Myfirstiter(nullptr) {}

$LN3:
  00000	48 89 54 24 10	 mov	 QWORD PTR [rsp+16], rdx
  00005	48 89 4c 24 08	 mov	 QWORD PTR [rsp+8], rcx
  0000a	55		 push	 rbp
  0000b	57		 push	 rdi
  0000c	48 81 ec e8 00
	00 00		 sub	 rsp, 232		; 000000e8H
  00013	48 8d 6c 24 20	 lea	 rbp, QWORD PTR [rsp+32]
  00018	48 8b fc	 mov	 rdi, rsp
  0001b	b9 3a 00 00 00	 mov	 ecx, 58			; 0000003aH
  00020	b8 cc cc cc cc	 mov	 eax, -858993460		; ccccccccH
  00025	f3 ab		 rep stosd
  00027	48 8b 8c 24 08
	01 00 00	 mov	 rcx, QWORD PTR [rsp+264]
  0002f	48 8d 0d 00 00
	00 00		 lea	 rcx, OFFSET FLAT:__725EB186_xmemory
  00036	e8 00 00 00 00	 call	 __CheckForDebuggerJustMyCode
  0003b	90		 npad	 1
  0003c	48 8b 85 e0 00
	00 00		 mov	 rax, QWORD PTR this$[rbp]
  00043	48 8b 8d e8 00
	00 00		 mov	 rcx, QWORD PTR _Mycont_$[rbp]
  0004a	48 89 08	 mov	 QWORD PTR [rax], rcx
  0004d	48 8b 85 e0 00
	00 00		 mov	 rax, QWORD PTR this$[rbp]
  00054	48 c7 40 08 00
	00 00 00	 mov	 QWORD PTR [rax+8], 0
  0005c	48 8b 85 e0 00
	00 00		 mov	 rax, QWORD PTR this$[rbp]
  00063	48 8d a5 c8 00
	00 00		 lea	 rsp, QWORD PTR [rbp+200]
  0006a	5f		 pop	 rdi
  0006b	5d		 pop	 rbp
  0006c	c3		 ret	 0
??0_Container_proxy@std@@QEAA@PEAU_Container_base12@1@@Z ENDP ; std::_Container_proxy::_Container_proxy
_TEXT	ENDS
; Function compile flags: /Odtp /RTCsu /ZI
; File C:\Program Files (x86)\Microsoft Visual Studio\2019\Enterprise\VC\Tools\MSVC\14.23.28105\include\xmemory
;	COMDAT ?_Adopt@_Iterator_base0@std@@QEAAXPEBX@Z
_TEXT	SEGMENT
this$ = 224
__formal$ = 232
?_Adopt@_Iterator_base0@std@@QEAAXPEBX@Z PROC		; std::_Iterator_base0::_Adopt, COMDAT

; 1155 :     void _Adopt(const void*) noexcept {}

$LN3:
  00000	48 89 54 24 10	 mov	 QWORD PTR [rsp+16], rdx
  00005	48 89 4c 24 08	 mov	 QWORD PTR [rsp+8], rcx
  0000a	55		 push	 rbp
  0000b	57		 push	 rdi
  0000c	48 81 ec e8 00
	00 00		 sub	 rsp, 232		; 000000e8H
  00013	48 8d 6c 24 20	 lea	 rbp, QWORD PTR [rsp+32]
  00018	48 8b fc	 mov	 rdi, rsp
  0001b	b9 3a 00 00 00	 mov	 ecx, 58			; 0000003aH
  00020	b8 cc cc cc cc	 mov	 eax, -858993460		; ccccccccH
  00025	f3 ab		 rep stosd
  00027	48 8b 8c 24 08
	01 00 00	 mov	 rcx, QWORD PTR [rsp+264]
  0002f	48 8d 0d 00 00
	00 00		 lea	 rcx, OFFSET FLAT:__725EB186_xmemory
  00036	e8 00 00 00 00	 call	 __CheckForDebuggerJustMyCode
  0003b	90		 npad	 1
  0003c	48 8d a5 c8 00
	00 00		 lea	 rsp, QWORD PTR [rbp+200]
  00043	5f		 pop	 rdi
  00044	5d		 pop	 rbp
  00045	c3		 ret	 0
?_Adopt@_Iterator_base0@std@@QEAAXPEBX@Z ENDP		; std::_Iterator_base0::_Adopt
_TEXT	ENDS
; Function compile flags: /Odtp /RTCsu /ZI
; File C:\Program Files (x86)\Microsoft Visual Studio\2019\Enterprise\VC\Tools\MSVC\14.23.28105\include\xmemory
;	COMDAT ?_Adjust_manually_vector_aligned@std@@YAXAEAPEAXAEA_K@Z
_TEXT	SEGMENT
_Ptr_user$ = 8
_Ptr_container$ = 40
_Min_back_shift$ = 72
_Back_shift$ = 104
_Ptr$ = 352
_Bytes$ = 360
?_Adjust_manually_vector_aligned@std@@YAXAEAPEAXAEA_K@Z PROC ; std::_Adjust_manually_vector_aligned, COMDAT

; 102  : inline void _Adjust_manually_vector_aligned(void*& _Ptr, size_t& _Bytes) {

$LN21:
  00000	48 89 54 24 10	 mov	 QWORD PTR [rsp+16], rdx
  00005	48 89 4c 24 08	 mov	 QWORD PTR [rsp+8], rcx
  0000a	55		 push	 rbp
  0000b	57		 push	 rdi
  0000c	48 81 ec 78 01
	00 00		 sub	 rsp, 376		; 00000178H
  00013	48 8d 6c 24 30	 lea	 rbp, QWORD PTR [rsp+48]
  00018	48 8b fc	 mov	 rdi, rsp
  0001b	b9 5e 00 00 00	 mov	 ecx, 94			; 0000005eH
  00020	b8 cc cc cc cc	 mov	 eax, -858993460		; ccccccccH
  00025	f3 ab		 rep stosd
  00027	48 8b 8c 24 98
	01 00 00	 mov	 rcx, QWORD PTR [rsp+408]
  0002f	48 8d 0d 00 00
	00 00		 lea	 rcx, OFFSET FLAT:__725EB186_xmemory
  00036	e8 00 00 00 00	 call	 __CheckForDebuggerJustMyCode

; 103  :     // adjust parameters from _Allocate_manually_vector_aligned to pass to operator delete
; 104  :     _Bytes += _Non_user_size;

  0003b	48 8b 85 68 01
	00 00		 mov	 rax, QWORD PTR _Bytes$[rbp]
  00042	48 8b 00	 mov	 rax, QWORD PTR [rax]
  00045	48 83 c0 2f	 add	 rax, 47			; 0000002fH
  00049	48 8b 8d 68 01
	00 00		 mov	 rcx, QWORD PTR _Bytes$[rbp]
  00050	48 89 01	 mov	 QWORD PTR [rcx], rax

; 105  : 
; 106  :     const uintptr_t* const _Ptr_user = reinterpret_cast<uintptr_t*>(_Ptr);

  00053	48 8b 85 60 01
	00 00		 mov	 rax, QWORD PTR _Ptr$[rbp]
  0005a	48 8b 00	 mov	 rax, QWORD PTR [rax]
  0005d	48 89 45 08	 mov	 QWORD PTR _Ptr_user$[rbp], rax

; 107  :     const uintptr_t _Ptr_container   = _Ptr_user[-1];

  00061	b8 08 00 00 00	 mov	 eax, 8
  00066	48 6b c0 ff	 imul	 rax, rax, -1
  0006a	48 8b 4d 08	 mov	 rcx, QWORD PTR _Ptr_user$[rbp]
  0006e	48 8b 04 01	 mov	 rax, QWORD PTR [rcx+rax]
  00072	48 89 45 28	 mov	 QWORD PTR _Ptr_container$[rbp], rax
$LN4@Adjust_man:

; 108  : 
; 109  :     // If the following asserts, it likely means that we are performing
; 110  :     // an aligned delete on memory coming from an unaligned allocation.
; 111  :     _STL_ASSERT(_Ptr_user[-2] == _Big_allocation_sentinel, "invalid argument");

  00076	b8 08 00 00 00	 mov	 eax, 8
  0007b	48 6b c0 fe	 imul	 rax, rax, -2
  0007f	48 8b 4d 08	 mov	 rcx, QWORD PTR _Ptr_user$[rbp]
  00083	48 ba fa fa fa
	fa fa fa fa fa	 mov	 rdx, -361700864190383366 ; fafafafafafafafaH
  0008d	48 39 14 01	 cmp	 QWORD PTR [rcx+rax], rdx
  00091	75 02		 jne	 SHORT $LN14@Adjust_man
  00093	eb 77		 jmp	 SHORT $LN15@Adjust_man
$LN14@Adjust_man:
$LN7@Adjust_man:
  00095	8b 05 00 00 00
	00		 mov	 eax, DWORD PTR ?__LINE__Var@?0??_Adjust_manually_vector_aligned@std@@YAXAEAPEAXAEA_K@Z@4JA
  0009b	83 c0 09	 add	 eax, 9
  0009e	48 8d 0d 00 00
	00 00		 lea	 rcx, OFFSET FLAT:??_C@_0BB@FCMFBGOM@invalid?5argument@
  000a5	48 89 4c 24 28	 mov	 QWORD PTR [rsp+40], rcx
  000aa	48 8d 0d 00 00
	00 00		 lea	 rcx, OFFSET FLAT:??_C@_02DKCKIIND@?$CFs@
  000b1	48 89 4c 24 20	 mov	 QWORD PTR [rsp+32], rcx
  000b6	45 33 c9	 xor	 r9d, r9d
  000b9	44 8b c0	 mov	 r8d, eax
  000bc	48 8d 15 00 00
	00 00		 lea	 rdx, OFFSET FLAT:??_C@_0GJ@ICFCEKIN@C?3?2Program?5Files?5?$CIx86?$CJ?2Microsof@
  000c3	b9 02 00 00 00	 mov	 ecx, 2
  000c8	ff 15 00 00 00
	00		 call	 QWORD PTR __imp__CrtDbgReport
  000ce	83 f8 01	 cmp	 eax, 1
  000d1	75 03		 jne	 SHORT $LN19@Adjust_man
  000d3	cc		 int	 3
  000d4	33 c0		 xor	 eax, eax
$LN19@Adjust_man:
  000d6	8b 05 00 00 00
	00		 mov	 eax, DWORD PTR ?__LINE__Var@?0??_Adjust_manually_vector_aligned@std@@YAXAEAPEAXAEA_K@Z@4JA
  000dc	83 c0 09	 add	 eax, 9
  000df	48 c7 44 24 20
	00 00 00 00	 mov	 QWORD PTR [rsp+32], 0
  000e8	44 8b c8	 mov	 r9d, eax
  000eb	4c 8d 05 00 00
	00 00		 lea	 r8, OFFSET FLAT:??_C@_1NC@MGDJFDEK@?$AAC?$AA?3?$AA?2?$AAP?$AAr?$AAo?$AAg?$AAr?$AAa?$AAm?$AA?5?$AAF?$AAi?$AAl?$AAe@
  000f2	48 8d 15 00 00
	00 00		 lea	 rdx, OFFSET FLAT:??_C@_1EK@NIFDJFDG@?$AAs?$AAt?$AAd?$AA?3?$AA?3?$AA_?$AAA?$AAd?$AAj?$AAu?$AAs?$AAt?$AA_?$AAm?$AAa@
  000f9	48 8d 0d 00 00
	00 00		 lea	 rcx, OFFSET FLAT:??_C@_1CG@JNLFBNGN@?$AA?$CC?$AAi?$AAn?$AAv?$AAa?$AAl?$AAi?$AAd?$AA?5?$AAa?$AAr?$AAg?$AAu?$AAm?$AAe@
  00100	ff 15 00 00 00
	00		 call	 QWORD PTR __imp__invalid_parameter
  00106	33 c0		 xor	 eax, eax
  00108	85 c0		 test	 eax, eax
  0010a	75 89		 jne	 SHORT $LN7@Adjust_man
$LN15@Adjust_man:
  0010c	33 c0		 xor	 eax, eax
  0010e	85 c0		 test	 eax, eax
  00110	0f 85 60 ff ff
	ff		 jne	 $LN4@Adjust_man

; 112  : 
; 113  :     // Extra paranoia on aligned allocation/deallocation; ensure _Ptr_container is
; 114  :     // in range [_Min_back_shift, _Non_user_size]
; 115  : #ifdef _DEBUG
; 116  :     constexpr uintptr_t _Min_back_shift = 2 * sizeof(void*);

  00116	48 c7 45 48 10
	00 00 00	 mov	 QWORD PTR _Min_back_shift$[rbp], 16

; 117  : #else // ^^^ _DEBUG ^^^ // vvv !_DEBUG vvv
; 118  :     constexpr uintptr_t _Min_back_shift = sizeof(void*);
; 119  : #endif // _DEBUG
; 120  :     const uintptr_t _Back_shift = reinterpret_cast<uintptr_t>(_Ptr) - _Ptr_container;

  0011e	48 8b 85 60 01
	00 00		 mov	 rax, QWORD PTR _Ptr$[rbp]
  00125	48 8b 4d 28	 mov	 rcx, QWORD PTR _Ptr_container$[rbp]
  00129	48 8b 00	 mov	 rax, QWORD PTR [rax]
  0012c	48 2b c1	 sub	 rax, rcx
  0012f	48 89 45 68	 mov	 QWORD PTR _Back_shift$[rbp], rax
$LN10@Adjust_man:

; 121  :     _STL_VERIFY(_Back_shift >= _Min_back_shift && _Back_shift <= _Non_user_size, "invalid argument");

  00133	48 83 7d 68 10	 cmp	 QWORD PTR _Back_shift$[rbp], 16
  00138	72 09		 jb	 SHORT $LN16@Adjust_man
  0013a	48 83 7d 68 2f	 cmp	 QWORD PTR _Back_shift$[rbp], 47 ; 0000002fH
  0013f	77 02		 ja	 SHORT $LN16@Adjust_man
  00141	eb 77		 jmp	 SHORT $LN17@Adjust_man
$LN16@Adjust_man:
$LN13@Adjust_man:
  00143	8b 05 00 00 00
	00		 mov	 eax, DWORD PTR ?__LINE__Var@?0??_Adjust_manually_vector_aligned@std@@YAXAEAPEAXAEA_K@Z@4JA
  00149	83 c0 13	 add	 eax, 19
  0014c	48 8d 0d 00 00
	00 00		 lea	 rcx, OFFSET FLAT:??_C@_0BB@FCMFBGOM@invalid?5argument@
  00153	48 89 4c 24 28	 mov	 QWORD PTR [rsp+40], rcx
  00158	48 8d 0d 00 00
	00 00		 lea	 rcx, OFFSET FLAT:??_C@_02DKCKIIND@?$CFs@
  0015f	48 89 4c 24 20	 mov	 QWORD PTR [rsp+32], rcx
  00164	45 33 c9	 xor	 r9d, r9d
  00167	44 8b c0	 mov	 r8d, eax
  0016a	48 8d 15 00 00
	00 00		 lea	 rdx, OFFSET FLAT:??_C@_0GJ@ICFCEKIN@C?3?2Program?5Files?5?$CIx86?$CJ?2Microsof@
  00171	b9 02 00 00 00	 mov	 ecx, 2
  00176	ff 15 00 00 00
	00		 call	 QWORD PTR __imp__CrtDbgReport
  0017c	83 f8 01	 cmp	 eax, 1
  0017f	75 03		 jne	 SHORT $LN20@Adjust_man
  00181	cc		 int	 3
  00182	33 c0		 xor	 eax, eax
$LN20@Adjust_man:
  00184	8b 05 00 00 00
	00		 mov	 eax, DWORD PTR ?__LINE__Var@?0??_Adjust_manually_vector_aligned@std@@YAXAEAPEAXAEA_K@Z@4JA
  0018a	83 c0 13	 add	 eax, 19
  0018d	48 c7 44 24 20
	00 00 00 00	 mov	 QWORD PTR [rsp+32], 0
  00196	44 8b c8	 mov	 r9d, eax
  00199	4c 8d 05 00 00
	00 00		 lea	 r8, OFFSET FLAT:??_C@_1NC@MGDJFDEK@?$AAC?$AA?3?$AA?2?$AAP?$AAr?$AAo?$AAg?$AAr?$AAa?$AAm?$AA?5?$AAF?$AAi?$AAl?$AAe@
  001a0	48 8d 15 00 00
	00 00		 lea	 rdx, OFFSET FLAT:??_C@_1EK@NIFDJFDG@?$AAs?$AAt?$AAd?$AA?3?$AA?3?$AA_?$AAA?$AAd?$AAj?$AAu?$AAs?$AAt?$AA_?$AAm?$AAa@
  001a7	48 8d 0d 00 00
	00 00		 lea	 rcx, OFFSET FLAT:??_C@_1CG@JNLFBNGN@?$AA?$CC?$AAi?$AAn?$AAv?$AAa?$AAl?$AAi?$AAd?$AA?5?$AAa?$AAr?$AAg?$AAu?$AAm?$AAe@
  001ae	ff 15 00 00 00
	00		 call	 QWORD PTR __imp__invalid_parameter
  001b4	33 c0		 xor	 eax, eax
  001b6	85 c0		 test	 eax, eax
  001b8	75 89		 jne	 SHORT $LN13@Adjust_man
$LN17@Adjust_man:
  001ba	33 c0		 xor	 eax, eax
  001bc	85 c0		 test	 eax, eax
  001be	0f 85 6f ff ff
	ff		 jne	 $LN10@Adjust_man

; 122  :     _Ptr = reinterpret_cast<void*>(_Ptr_container);

  001c4	48 8b 85 60 01
	00 00		 mov	 rax, QWORD PTR _Ptr$[rbp]
  001cb	48 8b 4d 28	 mov	 rcx, QWORD PTR _Ptr_container$[rbp]
  001cf	48 89 08	 mov	 QWORD PTR [rax], rcx

; 123  : }

  001d2	48 8d a5 48 01
	00 00		 lea	 rsp, QWORD PTR [rbp+328]
  001d9	5f		 pop	 rdi
  001da	5d		 pop	 rbp
  001db	c3		 ret	 0
?_Adjust_manually_vector_aligned@std@@YAXAEAPEAXAEA_K@Z ENDP ; std::_Adjust_manually_vector_aligned
_TEXT	ENDS
; Function compile flags: /Odtp /RTCsu /ZI
; File C:\Program Files (x86)\Microsoft Visual Studio\2019\Enterprise\VC\Tools\MSVC\14.23.28105\include\xmemory
;	COMDAT ?_Allocate@_Default_allocate_traits@std@@SAPEAX_K@Z
_TEXT	SEGMENT
_Bytes$ = 224
?_Allocate@_Default_allocate_traits@std@@SAPEAX_K@Z PROC ; std::_Default_allocate_traits::_Allocate, COMDAT

; 46   :     _DECLSPEC_ALLOCATOR static void* _Allocate(const size_t _Bytes) {

$LN3:
  00000	48 89 4c 24 08	 mov	 QWORD PTR [rsp+8], rcx
  00005	55		 push	 rbp
  00006	57		 push	 rdi
  00007	48 81 ec e8 00
	00 00		 sub	 rsp, 232		; 000000e8H
  0000e	48 8d 6c 24 20	 lea	 rbp, QWORD PTR [rsp+32]
  00013	48 8b fc	 mov	 rdi, rsp
  00016	b9 3a 00 00 00	 mov	 ecx, 58			; 0000003aH
  0001b	b8 cc cc cc cc	 mov	 eax, -858993460		; ccccccccH
  00020	f3 ab		 rep stosd
  00022	48 8b 8c 24 08
	01 00 00	 mov	 rcx, QWORD PTR [rsp+264]
  0002a	48 8d 0d 00 00
	00 00		 lea	 rcx, OFFSET FLAT:__725EB186_xmemory
  00031	e8 00 00 00 00	 call	 __CheckForDebuggerJustMyCode

; 47   :         return ::operator new(_Bytes);

  00036	48 8b 8d e0 00
	00 00		 mov	 rcx, QWORD PTR _Bytes$[rbp]
  0003d	e8 00 00 00 00	 call	 ??2@YAPEAX_K@Z		; operator new

; 48   :     }

  00042	48 8d a5 c8 00
	00 00		 lea	 rsp, QWORD PTR [rbp+200]
  00049	5f		 pop	 rdi
  0004a	5d		 pop	 rbp
  0004b	c3		 ret	 0
?_Allocate@_Default_allocate_traits@std@@SAPEAX_K@Z ENDP ; std::_Default_allocate_traits::_Allocate
_TEXT	ENDS
; Function compile flags: /Odtp /RTCsu /ZI
; File C:\Program Files (x86)\Microsoft Visual Studio\2019\Enterprise\VC\Tools\MSVC\14.23.28105\include\exception
;	COMDAT ?_Throw_bad_array_new_length@std@@YAXXZ
_TEXT	SEGMENT
$T1 = 200
?_Throw_bad_array_new_length@std@@YAXXZ PROC		; std::_Throw_bad_array_new_length, COMDAT

; 323  : [[noreturn]] inline void _Throw_bad_array_new_length() {

$LN3:
  00000	40 55		 push	 rbp
  00002	57		 push	 rdi
  00003	48 81 ec 18 01
	00 00		 sub	 rsp, 280		; 00000118H
  0000a	48 8d 6c 24 20	 lea	 rbp, QWORD PTR [rsp+32]
  0000f	48 8b fc	 mov	 rdi, rsp
  00012	b9 46 00 00 00	 mov	 ecx, 70			; 00000046H
  00017	b8 cc cc cc cc	 mov	 eax, -858993460		; ccccccccH
  0001c	f3 ab		 rep stosd
  0001e	48 8d 0d 00 00
	00 00		 lea	 rcx, OFFSET FLAT:__A47A247F_exception
  00025	e8 00 00 00 00	 call	 __CheckForDebuggerJustMyCode

; 324  :     _THROW(bad_array_new_length{});

  0002a	48 8d 8d c8 00
	00 00		 lea	 rcx, QWORD PTR $T1[rbp]
  00031	e8 00 00 00 00	 call	 ??0bad_array_new_length@std@@QEAA@XZ ; std::bad_array_new_length::bad_array_new_length
  00036	48 8d 15 00 00
	00 00		 lea	 rdx, OFFSET FLAT:_TI3?AVbad_array_new_length@std@@
  0003d	48 8d 8d c8 00
	00 00		 lea	 rcx, QWORD PTR $T1[rbp]
  00044	e8 00 00 00 00	 call	 _CxxThrowException
$LN2@Throw_bad_:

; 325  : }

  00049	48 8d a5 f8 00
	00 00		 lea	 rsp, QWORD PTR [rbp+248]
  00050	5f		 pop	 rdi
  00051	5d		 pop	 rbp
  00052	c3		 ret	 0
?_Throw_bad_array_new_length@std@@YAXXZ ENDP		; std::_Throw_bad_array_new_length
_TEXT	ENDS
; Function compile flags: /Odtp /RTCsu /ZI
;	COMDAT ??_Gbad_array_new_length@std@@UEAAPEAXI@Z
_TEXT	SEGMENT
this$ = 224
__flags$ = 232
??_Gbad_array_new_length@std@@UEAAPEAXI@Z PROC		; std::bad_array_new_length::`scalar deleting destructor', COMDAT
$LN4:
  00000	89 54 24 10	 mov	 DWORD PTR [rsp+16], edx
  00004	48 89 4c 24 08	 mov	 QWORD PTR [rsp+8], rcx
  00009	55		 push	 rbp
  0000a	57		 push	 rdi
  0000b	48 81 ec e8 00
	00 00		 sub	 rsp, 232		; 000000e8H
  00012	48 8d 6c 24 20	 lea	 rbp, QWORD PTR [rsp+32]
  00017	48 8b fc	 mov	 rdi, rsp
  0001a	b9 3a 00 00 00	 mov	 ecx, 58			; 0000003aH
  0001f	b8 cc cc cc cc	 mov	 eax, -858993460		; ccccccccH
  00024	f3 ab		 rep stosd
  00026	48 8b 8c 24 08
	01 00 00	 mov	 rcx, QWORD PTR [rsp+264]
  0002e	48 8b 8d e0 00
	00 00		 mov	 rcx, QWORD PTR this$[rbp]
  00035	e8 00 00 00 00	 call	 ??1bad_array_new_length@std@@UEAA@XZ
  0003a	8b 85 e8 00 00
	00		 mov	 eax, DWORD PTR __flags$[rbp]
  00040	83 e0 01	 and	 eax, 1
  00043	85 c0		 test	 eax, eax
  00045	74 11		 je	 SHORT $LN2@scalar
  00047	ba 18 00 00 00	 mov	 edx, 24
  0004c	48 8b 8d e0 00
	00 00		 mov	 rcx, QWORD PTR this$[rbp]
  00053	e8 00 00 00 00	 call	 ??3@YAXPEAX_K@Z		; operator delete
$LN2@scalar:
  00058	48 8b 85 e0 00
	00 00		 mov	 rax, QWORD PTR this$[rbp]
  0005f	48 8d a5 c8 00
	00 00		 lea	 rsp, QWORD PTR [rbp+200]
  00066	5f		 pop	 rdi
  00067	5d		 pop	 rbp
  00068	c3		 ret	 0
??_Gbad_array_new_length@std@@UEAAPEAXI@Z ENDP		; std::bad_array_new_length::`scalar deleting destructor'
_TEXT	ENDS
; Function compile flags: /Odtp /RTCsu /ZI
;	COMDAT ??0bad_array_new_length@std@@QEAA@AEBV01@@Z
_TEXT	SEGMENT
this$ = 224
__that$ = 232
??0bad_array_new_length@std@@QEAA@AEBV01@@Z PROC	; std::bad_array_new_length::bad_array_new_length, COMDAT
$LN3:
  00000	48 89 54 24 10	 mov	 QWORD PTR [rsp+16], rdx
  00005	48 89 4c 24 08	 mov	 QWORD PTR [rsp+8], rcx
  0000a	55		 push	 rbp
  0000b	57		 push	 rdi
  0000c	48 81 ec e8 00
	00 00		 sub	 rsp, 232		; 000000e8H
  00013	48 8d 6c 24 20	 lea	 rbp, QWORD PTR [rsp+32]
  00018	48 8b fc	 mov	 rdi, rsp
  0001b	b9 3a 00 00 00	 mov	 ecx, 58			; 0000003aH
  00020	b8 cc cc cc cc	 mov	 eax, -858993460		; ccccccccH
  00025	f3 ab		 rep stosd
  00027	48 8b 8c 24 08
	01 00 00	 mov	 rcx, QWORD PTR [rsp+264]
  0002f	48 8b 95 e8 00
	00 00		 mov	 rdx, QWORD PTR __that$[rbp]
  00036	48 8b 8d e0 00
	00 00		 mov	 rcx, QWORD PTR this$[rbp]
  0003d	e8 00 00 00 00	 call	 ??0bad_alloc@std@@QEAA@AEBV01@@Z
  00042	48 8b 85 e0 00
	00 00		 mov	 rax, QWORD PTR this$[rbp]
  00049	48 8d 0d 00 00
	00 00		 lea	 rcx, OFFSET FLAT:??_7bad_array_new_length@std@@6B@
  00050	48 89 08	 mov	 QWORD PTR [rax], rcx
  00053	48 8b 85 e0 00
	00 00		 mov	 rax, QWORD PTR this$[rbp]
  0005a	48 8d a5 c8 00
	00 00		 lea	 rsp, QWORD PTR [rbp+200]
  00061	5f		 pop	 rdi
  00062	5d		 pop	 rbp
  00063	c3		 ret	 0
??0bad_array_new_length@std@@QEAA@AEBV01@@Z ENDP	; std::bad_array_new_length::bad_array_new_length
_TEXT	ENDS
; Function compile flags: /Odtp /RTCsu /ZI
;	COMDAT ??1bad_array_new_length@std@@UEAA@XZ
_TEXT	SEGMENT
this$ = 224
??1bad_array_new_length@std@@UEAA@XZ PROC		; std::bad_array_new_length::~bad_array_new_length, COMDAT
$LN3:
  00000	48 89 4c 24 08	 mov	 QWORD PTR [rsp+8], rcx
  00005	55		 push	 rbp
  00006	57		 push	 rdi
  00007	48 81 ec e8 00
	00 00		 sub	 rsp, 232		; 000000e8H
  0000e	48 8d 6c 24 20	 lea	 rbp, QWORD PTR [rsp+32]
  00013	48 8b fc	 mov	 rdi, rsp
  00016	b9 3a 00 00 00	 mov	 ecx, 58			; 0000003aH
  0001b	b8 cc cc cc cc	 mov	 eax, -858993460		; ccccccccH
  00020	f3 ab		 rep stosd
  00022	48 8b 8c 24 08
	01 00 00	 mov	 rcx, QWORD PTR [rsp+264]
  0002a	48 8b 8d e0 00
	00 00		 mov	 rcx, QWORD PTR this$[rbp]
  00031	e8 00 00 00 00	 call	 ??1bad_alloc@std@@UEAA@XZ
  00036	48 8d a5 c8 00
	00 00		 lea	 rsp, QWORD PTR [rbp+200]
  0003d	5f		 pop	 rdi
  0003e	5d		 pop	 rbp
  0003f	c3		 ret	 0
??1bad_array_new_length@std@@UEAA@XZ ENDP		; std::bad_array_new_length::~bad_array_new_length
_TEXT	ENDS
; Function compile flags: /Odtp /RTCsu /ZI
; File C:\Program Files (x86)\Microsoft Visual Studio\2019\Enterprise\VC\Tools\MSVC\14.23.28105\include\vcruntime_exception.h
;	COMDAT ??0bad_array_new_length@std@@QEAA@XZ
_TEXT	SEGMENT
this$ = 224
??0bad_array_new_length@std@@QEAA@XZ PROC		; std::bad_array_new_length::bad_array_new_length, COMDAT

; 138  :     {

$LN3:
  00000	48 89 4c 24 08	 mov	 QWORD PTR [rsp+8], rcx
  00005	55		 push	 rbp
  00006	57		 push	 rdi
  00007	48 81 ec e8 00
	00 00		 sub	 rsp, 232		; 000000e8H
  0000e	48 8d 6c 24 20	 lea	 rbp, QWORD PTR [rsp+32]
  00013	48 8b fc	 mov	 rdi, rsp
  00016	b9 3a 00 00 00	 mov	 ecx, 58			; 0000003aH
  0001b	b8 cc cc cc cc	 mov	 eax, -858993460		; ccccccccH
  00020	f3 ab		 rep stosd
  00022	48 8b 8c 24 08
	01 00 00	 mov	 rcx, QWORD PTR [rsp+264]
  0002a	48 8d 0d 00 00
	00 00		 lea	 rcx, OFFSET FLAT:__96AB3BB0_vcruntime_exception@h
  00031	e8 00 00 00 00	 call	 __CheckForDebuggerJustMyCode
  00036	90		 npad	 1

; 137  :         : bad_alloc("bad array new length")

  00037	48 8d 15 00 00
	00 00		 lea	 rdx, OFFSET FLAT:??_C@_0BF@KINCDENJ@bad?5array?5new?5length@
  0003e	48 8b 8d e0 00
	00 00		 mov	 rcx, QWORD PTR this$[rbp]
  00045	e8 00 00 00 00	 call	 ??0bad_alloc@std@@AEAA@QEBD@Z ; std::bad_alloc::bad_alloc
  0004a	90		 npad	 1

; 138  :     {

  0004b	48 8b 85 e0 00
	00 00		 mov	 rax, QWORD PTR this$[rbp]
  00052	48 8d 0d 00 00
	00 00		 lea	 rcx, OFFSET FLAT:??_7bad_array_new_length@std@@6B@
  00059	48 89 08	 mov	 QWORD PTR [rax], rcx

; 139  :     }

  0005c	48 8b 85 e0 00
	00 00		 mov	 rax, QWORD PTR this$[rbp]
  00063	48 8d a5 c8 00
	00 00		 lea	 rsp, QWORD PTR [rbp+200]
  0006a	5f		 pop	 rdi
  0006b	5d		 pop	 rbp
  0006c	c3		 ret	 0
??0bad_array_new_length@std@@QEAA@XZ ENDP		; std::bad_array_new_length::bad_array_new_length
_TEXT	ENDS
; Function compile flags: /Odtp /RTCsu /ZI
;	COMDAT ??_Gbad_alloc@std@@UEAAPEAXI@Z
_TEXT	SEGMENT
this$ = 224
__flags$ = 232
??_Gbad_alloc@std@@UEAAPEAXI@Z PROC			; std::bad_alloc::`scalar deleting destructor', COMDAT
$LN4:
  00000	89 54 24 10	 mov	 DWORD PTR [rsp+16], edx
  00004	48 89 4c 24 08	 mov	 QWORD PTR [rsp+8], rcx
  00009	55		 push	 rbp
  0000a	57		 push	 rdi
  0000b	48 81 ec e8 00
	00 00		 sub	 rsp, 232		; 000000e8H
  00012	48 8d 6c 24 20	 lea	 rbp, QWORD PTR [rsp+32]
  00017	48 8b fc	 mov	 rdi, rsp
  0001a	b9 3a 00 00 00	 mov	 ecx, 58			; 0000003aH
  0001f	b8 cc cc cc cc	 mov	 eax, -858993460		; ccccccccH
  00024	f3 ab		 rep stosd
  00026	48 8b 8c 24 08
	01 00 00	 mov	 rcx, QWORD PTR [rsp+264]
  0002e	48 8b 8d e0 00
	00 00		 mov	 rcx, QWORD PTR this$[rbp]
  00035	e8 00 00 00 00	 call	 ??1bad_alloc@std@@UEAA@XZ
  0003a	8b 85 e8 00 00
	00		 mov	 eax, DWORD PTR __flags$[rbp]
  00040	83 e0 01	 and	 eax, 1
  00043	85 c0		 test	 eax, eax
  00045	74 11		 je	 SHORT $LN2@scalar
  00047	ba 18 00 00 00	 mov	 edx, 24
  0004c	48 8b 8d e0 00
	00 00		 mov	 rcx, QWORD PTR this$[rbp]
  00053	e8 00 00 00 00	 call	 ??3@YAXPEAX_K@Z		; operator delete
$LN2@scalar:
  00058	48 8b 85 e0 00
	00 00		 mov	 rax, QWORD PTR this$[rbp]
  0005f	48 8d a5 c8 00
	00 00		 lea	 rsp, QWORD PTR [rbp+200]
  00066	5f		 pop	 rdi
  00067	5d		 pop	 rbp
  00068	c3		 ret	 0
??_Gbad_alloc@std@@UEAAPEAXI@Z ENDP			; std::bad_alloc::`scalar deleting destructor'
_TEXT	ENDS
; Function compile flags: /Odtp /RTCsu /ZI
;	COMDAT ??0bad_alloc@std@@QEAA@AEBV01@@Z
_TEXT	SEGMENT
this$ = 224
__that$ = 232
??0bad_alloc@std@@QEAA@AEBV01@@Z PROC			; std::bad_alloc::bad_alloc, COMDAT
$LN3:
  00000	48 89 54 24 10	 mov	 QWORD PTR [rsp+16], rdx
  00005	48 89 4c 24 08	 mov	 QWORD PTR [rsp+8], rcx
  0000a	55		 push	 rbp
  0000b	57		 push	 rdi
  0000c	48 81 ec e8 00
	00 00		 sub	 rsp, 232		; 000000e8H
  00013	48 8d 6c 24 20	 lea	 rbp, QWORD PTR [rsp+32]
  00018	48 8b fc	 mov	 rdi, rsp
  0001b	b9 3a 00 00 00	 mov	 ecx, 58			; 0000003aH
  00020	b8 cc cc cc cc	 mov	 eax, -858993460		; ccccccccH
  00025	f3 ab		 rep stosd
  00027	48 8b 8c 24 08
	01 00 00	 mov	 rcx, QWORD PTR [rsp+264]
  0002f	48 8b 95 e8 00
	00 00		 mov	 rdx, QWORD PTR __that$[rbp]
  00036	48 8b 8d e0 00
	00 00		 mov	 rcx, QWORD PTR this$[rbp]
  0003d	e8 00 00 00 00	 call	 ??0exception@std@@QEAA@AEBV01@@Z ; std::exception::exception
  00042	48 8b 85 e0 00
	00 00		 mov	 rax, QWORD PTR this$[rbp]
  00049	48 8d 0d 00 00
	00 00		 lea	 rcx, OFFSET FLAT:??_7bad_alloc@std@@6B@
  00050	48 89 08	 mov	 QWORD PTR [rax], rcx
  00053	48 8b 85 e0 00
	00 00		 mov	 rax, QWORD PTR this$[rbp]
  0005a	48 8d a5 c8 00
	00 00		 lea	 rsp, QWORD PTR [rbp+200]
  00061	5f		 pop	 rdi
  00062	5d		 pop	 rbp
  00063	c3		 ret	 0
??0bad_alloc@std@@QEAA@AEBV01@@Z ENDP			; std::bad_alloc::bad_alloc
_TEXT	ENDS
; Function compile flags: /Odtp /RTCsu /ZI
;	COMDAT ??1bad_alloc@std@@UEAA@XZ
_TEXT	SEGMENT
this$ = 224
??1bad_alloc@std@@UEAA@XZ PROC				; std::bad_alloc::~bad_alloc, COMDAT
$LN3:
  00000	48 89 4c 24 08	 mov	 QWORD PTR [rsp+8], rcx
  00005	55		 push	 rbp
  00006	57		 push	 rdi
  00007	48 81 ec e8 00
	00 00		 sub	 rsp, 232		; 000000e8H
  0000e	48 8d 6c 24 20	 lea	 rbp, QWORD PTR [rsp+32]
  00013	48 8b fc	 mov	 rdi, rsp
  00016	b9 3a 00 00 00	 mov	 ecx, 58			; 0000003aH
  0001b	b8 cc cc cc cc	 mov	 eax, -858993460		; ccccccccH
  00020	f3 ab		 rep stosd
  00022	48 8b 8c 24 08
	01 00 00	 mov	 rcx, QWORD PTR [rsp+264]
  0002a	48 8b 8d e0 00
	00 00		 mov	 rcx, QWORD PTR this$[rbp]
  00031	e8 00 00 00 00	 call	 ??1exception@std@@UEAA@XZ ; std::exception::~exception
  00036	48 8d a5 c8 00
	00 00		 lea	 rsp, QWORD PTR [rbp+200]
  0003d	5f		 pop	 rdi
  0003e	5d		 pop	 rbp
  0003f	c3		 ret	 0
??1bad_alloc@std@@UEAA@XZ ENDP				; std::bad_alloc::~bad_alloc
_TEXT	ENDS
; Function compile flags: /Odtp /RTCsu /ZI
; File C:\Program Files (x86)\Microsoft Visual Studio\2019\Enterprise\VC\Tools\MSVC\14.23.28105\include\vcruntime_exception.h
;	COMDAT ??0bad_alloc@std@@AEAA@QEBD@Z
_TEXT	SEGMENT
this$ = 224
_Message$ = 232
??0bad_alloc@std@@AEAA@QEBD@Z PROC			; std::bad_alloc::bad_alloc, COMDAT

; 127  :     {

$LN3:
  00000	48 89 54 24 10	 mov	 QWORD PTR [rsp+16], rdx
  00005	48 89 4c 24 08	 mov	 QWORD PTR [rsp+8], rcx
  0000a	55		 push	 rbp
  0000b	57		 push	 rdi
  0000c	48 81 ec e8 00
	00 00		 sub	 rsp, 232		; 000000e8H
  00013	48 8d 6c 24 20	 lea	 rbp, QWORD PTR [rsp+32]
  00018	48 8b fc	 mov	 rdi, rsp
  0001b	b9 3a 00 00 00	 mov	 ecx, 58			; 0000003aH
  00020	b8 cc cc cc cc	 mov	 eax, -858993460		; ccccccccH
  00025	f3 ab		 rep stosd
  00027	48 8b 8c 24 08
	01 00 00	 mov	 rcx, QWORD PTR [rsp+264]
  0002f	48 8d 0d 00 00
	00 00		 lea	 rcx, OFFSET FLAT:__96AB3BB0_vcruntime_exception@h
  00036	e8 00 00 00 00	 call	 __CheckForDebuggerJustMyCode
  0003b	90		 npad	 1

; 126  :         : exception(_Message, 1)

  0003c	41 b8 01 00 00
	00		 mov	 r8d, 1
  00042	48 8b 95 e8 00
	00 00		 mov	 rdx, QWORD PTR _Message$[rbp]
  00049	48 8b 8d e0 00
	00 00		 mov	 rcx, QWORD PTR this$[rbp]
  00050	e8 00 00 00 00	 call	 ??0exception@std@@QEAA@QEBDH@Z ; std::exception::exception
  00055	90		 npad	 1

; 127  :     {

  00056	48 8b 85 e0 00
	00 00		 mov	 rax, QWORD PTR this$[rbp]
  0005d	48 8d 0d 00 00
	00 00		 lea	 rcx, OFFSET FLAT:??_7bad_alloc@std@@6B@
  00064	48 89 08	 mov	 QWORD PTR [rax], rcx

; 128  :     }

  00067	48 8b 85 e0 00
	00 00		 mov	 rax, QWORD PTR this$[rbp]
  0006e	48 8d a5 c8 00
	00 00		 lea	 rsp, QWORD PTR [rbp+200]
  00075	5f		 pop	 rdi
  00076	5d		 pop	 rbp
  00077	c3		 ret	 0
??0bad_alloc@std@@AEAA@QEBD@Z ENDP			; std::bad_alloc::bad_alloc
_TEXT	ENDS
; Function compile flags: /Odtp /RTCsu /ZI
;	COMDAT ??_Gexception@std@@UEAAPEAXI@Z
_TEXT	SEGMENT
this$ = 224
__flags$ = 232
??_Gexception@std@@UEAAPEAXI@Z PROC			; std::exception::`scalar deleting destructor', COMDAT
$LN4:
  00000	89 54 24 10	 mov	 DWORD PTR [rsp+16], edx
  00004	48 89 4c 24 08	 mov	 QWORD PTR [rsp+8], rcx
  00009	55		 push	 rbp
  0000a	57		 push	 rdi
  0000b	48 81 ec e8 00
	00 00		 sub	 rsp, 232		; 000000e8H
  00012	48 8d 6c 24 20	 lea	 rbp, QWORD PTR [rsp+32]
  00017	48 8b fc	 mov	 rdi, rsp
  0001a	b9 3a 00 00 00	 mov	 ecx, 58			; 0000003aH
  0001f	b8 cc cc cc cc	 mov	 eax, -858993460		; ccccccccH
  00024	f3 ab		 rep stosd
  00026	48 8b 8c 24 08
	01 00 00	 mov	 rcx, QWORD PTR [rsp+264]
  0002e	48 8b 8d e0 00
	00 00		 mov	 rcx, QWORD PTR this$[rbp]
  00035	e8 00 00 00 00	 call	 ??1exception@std@@UEAA@XZ ; std::exception::~exception
  0003a	8b 85 e8 00 00
	00		 mov	 eax, DWORD PTR __flags$[rbp]
  00040	83 e0 01	 and	 eax, 1
  00043	85 c0		 test	 eax, eax
  00045	74 11		 je	 SHORT $LN2@scalar
  00047	ba 18 00 00 00	 mov	 edx, 24
  0004c	48 8b 8d e0 00
	00 00		 mov	 rcx, QWORD PTR this$[rbp]
  00053	e8 00 00 00 00	 call	 ??3@YAXPEAX_K@Z		; operator delete
$LN2@scalar:
  00058	48 8b 85 e0 00
	00 00		 mov	 rax, QWORD PTR this$[rbp]
  0005f	48 8d a5 c8 00
	00 00		 lea	 rsp, QWORD PTR [rbp+200]
  00066	5f		 pop	 rdi
  00067	5d		 pop	 rbp
  00068	c3		 ret	 0
??_Gexception@std@@UEAAPEAXI@Z ENDP			; std::exception::`scalar deleting destructor'
_TEXT	ENDS
; Function compile flags: /Odtp /RTCsu /ZI
; File C:\Program Files (x86)\Microsoft Visual Studio\2019\Enterprise\VC\Tools\MSVC\14.23.28105\include\vcruntime_exception.h
;	COMDAT ?what@exception@std@@UEBAPEBDXZ
_TEXT	SEGMENT
tv69 = 192
this$ = 240
?what@exception@std@@UEBAPEBDXZ PROC			; std::exception::what, COMDAT

; 91   :     {

$LN5:
  00000	48 89 4c 24 08	 mov	 QWORD PTR [rsp+8], rcx
  00005	55		 push	 rbp
  00006	57		 push	 rdi
  00007	48 81 ec f8 00
	00 00		 sub	 rsp, 248		; 000000f8H
  0000e	48 8d 6c 24 20	 lea	 rbp, QWORD PTR [rsp+32]
  00013	48 8b fc	 mov	 rdi, rsp
  00016	b9 3e 00 00 00	 mov	 ecx, 62			; 0000003eH
  0001b	b8 cc cc cc cc	 mov	 eax, -858993460		; ccccccccH
  00020	f3 ab		 rep stosd
  00022	48 8b 8c 24 18
	01 00 00	 mov	 rcx, QWORD PTR [rsp+280]
  0002a	48 8d 0d 00 00
	00 00		 lea	 rcx, OFFSET FLAT:__96AB3BB0_vcruntime_exception@h
  00031	e8 00 00 00 00	 call	 __CheckForDebuggerJustMyCode

; 92   :         return _Data._What ? _Data._What : "Unknown exception";

  00036	48 8b 85 f0 00
	00 00		 mov	 rax, QWORD PTR this$[rbp]
  0003d	48 83 78 08 00	 cmp	 QWORD PTR [rax+8], 0
  00042	74 14		 je	 SHORT $LN3@what
  00044	48 8b 85 f0 00
	00 00		 mov	 rax, QWORD PTR this$[rbp]
  0004b	48 8b 40 08	 mov	 rax, QWORD PTR [rax+8]
  0004f	48 89 85 c0 00
	00 00		 mov	 QWORD PTR tv69[rbp], rax
  00056	eb 0e		 jmp	 SHORT $LN4@what
$LN3@what:
  00058	48 8d 05 00 00
	00 00		 lea	 rax, OFFSET FLAT:??_C@_0BC@EOODALEL@Unknown?5exception@
  0005f	48 89 85 c0 00
	00 00		 mov	 QWORD PTR tv69[rbp], rax
$LN4@what:
  00066	48 8b 85 c0 00
	00 00		 mov	 rax, QWORD PTR tv69[rbp]

; 93   :     }

  0006d	48 8d a5 d8 00
	00 00		 lea	 rsp, QWORD PTR [rbp+216]
  00074	5f		 pop	 rdi
  00075	5d		 pop	 rbp
  00076	c3		 ret	 0
?what@exception@std@@UEBAPEBDXZ ENDP			; std::exception::what
_TEXT	ENDS
; Function compile flags: /Odtp /RTCsu /ZI
; File C:\Program Files (x86)\Microsoft Visual Studio\2019\Enterprise\VC\Tools\MSVC\14.23.28105\include\vcruntime_exception.h
;	COMDAT ??1exception@std@@UEAA@XZ
_TEXT	SEGMENT
this$ = 224
??1exception@std@@UEAA@XZ PROC				; std::exception::~exception, COMDAT

; 86   :     {

$LN3:
  00000	48 89 4c 24 08	 mov	 QWORD PTR [rsp+8], rcx
  00005	55		 push	 rbp
  00006	57		 push	 rdi
  00007	48 81 ec e8 00
	00 00		 sub	 rsp, 232		; 000000e8H
  0000e	48 8d 6c 24 20	 lea	 rbp, QWORD PTR [rsp+32]
  00013	48 8b fc	 mov	 rdi, rsp
  00016	b9 3a 00 00 00	 mov	 ecx, 58			; 0000003aH
  0001b	b8 cc cc cc cc	 mov	 eax, -858993460		; ccccccccH
  00020	f3 ab		 rep stosd
  00022	48 8b 8c 24 08
	01 00 00	 mov	 rcx, QWORD PTR [rsp+264]
  0002a	48 8d 0d 00 00
	00 00		 lea	 rcx, OFFSET FLAT:__96AB3BB0_vcruntime_exception@h
  00031	e8 00 00 00 00	 call	 __CheckForDebuggerJustMyCode
  00036	90		 npad	 1
  00037	48 8b 85 e0 00
	00 00		 mov	 rax, QWORD PTR this$[rbp]
  0003e	48 8d 0d 00 00
	00 00		 lea	 rcx, OFFSET FLAT:??_7exception@std@@6B@
  00045	48 89 08	 mov	 QWORD PTR [rax], rcx

; 87   :         __std_exception_destroy(&_Data);

  00048	48 8b 85 e0 00
	00 00		 mov	 rax, QWORD PTR this$[rbp]
  0004f	48 83 c0 08	 add	 rax, 8
  00053	48 8b c8	 mov	 rcx, rax
  00056	e8 00 00 00 00	 call	 __std_exception_destroy
  0005b	90		 npad	 1

; 88   :     }

  0005c	48 8d a5 c8 00
	00 00		 lea	 rsp, QWORD PTR [rbp+200]
  00063	5f		 pop	 rdi
  00064	5d		 pop	 rbp
  00065	c3		 ret	 0
??1exception@std@@UEAA@XZ ENDP				; std::exception::~exception
_TEXT	ENDS
; Function compile flags: /Odtp /RTCsu /ZI
; File C:\Program Files (x86)\Microsoft Visual Studio\2019\Enterprise\VC\Tools\MSVC\14.23.28105\include\vcruntime_exception.h
;	COMDAT ??0exception@std@@QEAA@AEBV01@@Z
_TEXT	SEGMENT
this$ = 224
_Other$ = 232
??0exception@std@@QEAA@AEBV01@@Z PROC			; std::exception::exception, COMDAT

; 69   :     {

$LN3:
  00000	48 89 54 24 10	 mov	 QWORD PTR [rsp+16], rdx
  00005	48 89 4c 24 08	 mov	 QWORD PTR [rsp+8], rcx
  0000a	55		 push	 rbp
  0000b	57		 push	 rdi
  0000c	48 81 ec e8 00
	00 00		 sub	 rsp, 232		; 000000e8H
  00013	48 8d 6c 24 20	 lea	 rbp, QWORD PTR [rsp+32]
  00018	48 8b fc	 mov	 rdi, rsp
  0001b	b9 3a 00 00 00	 mov	 ecx, 58			; 0000003aH
  00020	b8 cc cc cc cc	 mov	 eax, -858993460		; ccccccccH
  00025	f3 ab		 rep stosd
  00027	48 8b 8c 24 08
	01 00 00	 mov	 rcx, QWORD PTR [rsp+264]
  0002f	48 8d 0d 00 00
	00 00		 lea	 rcx, OFFSET FLAT:__96AB3BB0_vcruntime_exception@h
  00036	e8 00 00 00 00	 call	 __CheckForDebuggerJustMyCode
  0003b	90		 npad	 1
  0003c	48 8b 85 e0 00
	00 00		 mov	 rax, QWORD PTR this$[rbp]
  00043	48 8d 0d 00 00
	00 00		 lea	 rcx, OFFSET FLAT:??_7exception@std@@6B@
  0004a	48 89 08	 mov	 QWORD PTR [rax], rcx

; 68   :         : _Data()

  0004d	48 8b 85 e0 00
	00 00		 mov	 rax, QWORD PTR this$[rbp]
  00054	48 83 c0 08	 add	 rax, 8
  00058	48 8b f8	 mov	 rdi, rax
  0005b	33 c0		 xor	 eax, eax
  0005d	b9 10 00 00 00	 mov	 ecx, 16
  00062	f3 aa		 rep stosb

; 70   :         __std_exception_copy(&_Other._Data, &_Data);

  00064	48 8b 85 e0 00
	00 00		 mov	 rax, QWORD PTR this$[rbp]
  0006b	48 83 c0 08	 add	 rax, 8
  0006f	48 8b 8d e8 00
	00 00		 mov	 rcx, QWORD PTR _Other$[rbp]
  00076	48 83 c1 08	 add	 rcx, 8
  0007a	48 8b d0	 mov	 rdx, rax
  0007d	e8 00 00 00 00	 call	 __std_exception_copy
  00082	90		 npad	 1

; 71   :     }

  00083	48 8b 85 e0 00
	00 00		 mov	 rax, QWORD PTR this$[rbp]
  0008a	48 8d a5 c8 00
	00 00		 lea	 rsp, QWORD PTR [rbp+200]
  00091	5f		 pop	 rdi
  00092	5d		 pop	 rbp
  00093	c3		 ret	 0
??0exception@std@@QEAA@AEBV01@@Z ENDP			; std::exception::exception
_TEXT	ENDS
; Function compile flags: /Odtp /RTCsu /ZI
; File C:\Program Files (x86)\Microsoft Visual Studio\2019\Enterprise\VC\Tools\MSVC\14.23.28105\include\vcruntime_exception.h
;	COMDAT ??0exception@std@@QEAA@QEBDH@Z
_TEXT	SEGMENT
this$ = 224
_Message$ = 232
__formal$ = 240
??0exception@std@@QEAA@QEBDH@Z PROC			; std::exception::exception, COMDAT

; 63   :     {

$LN3:
  00000	44 89 44 24 18	 mov	 DWORD PTR [rsp+24], r8d
  00005	48 89 54 24 10	 mov	 QWORD PTR [rsp+16], rdx
  0000a	48 89 4c 24 08	 mov	 QWORD PTR [rsp+8], rcx
  0000f	55		 push	 rbp
  00010	57		 push	 rdi
  00011	48 81 ec e8 00
	00 00		 sub	 rsp, 232		; 000000e8H
  00018	48 8d 6c 24 20	 lea	 rbp, QWORD PTR [rsp+32]
  0001d	48 8b fc	 mov	 rdi, rsp
  00020	b9 3a 00 00 00	 mov	 ecx, 58			; 0000003aH
  00025	b8 cc cc cc cc	 mov	 eax, -858993460		; ccccccccH
  0002a	f3 ab		 rep stosd
  0002c	48 8b 8c 24 08
	01 00 00	 mov	 rcx, QWORD PTR [rsp+264]
  00034	48 8d 0d 00 00
	00 00		 lea	 rcx, OFFSET FLAT:__96AB3BB0_vcruntime_exception@h
  0003b	e8 00 00 00 00	 call	 __CheckForDebuggerJustMyCode
  00040	90		 npad	 1
  00041	48 8b 85 e0 00
	00 00		 mov	 rax, QWORD PTR this$[rbp]
  00048	48 8d 0d 00 00
	00 00		 lea	 rcx, OFFSET FLAT:??_7exception@std@@6B@
  0004f	48 89 08	 mov	 QWORD PTR [rax], rcx

; 62   :         : _Data()

  00052	48 8b 85 e0 00
	00 00		 mov	 rax, QWORD PTR this$[rbp]
  00059	48 83 c0 08	 add	 rax, 8
  0005d	48 8b f8	 mov	 rdi, rax
  00060	33 c0		 xor	 eax, eax
  00062	b9 10 00 00 00	 mov	 ecx, 16
  00067	f3 aa		 rep stosb

; 64   :         _Data._What = _Message;

  00069	48 8b 85 e0 00
	00 00		 mov	 rax, QWORD PTR this$[rbp]
  00070	48 8b 8d e8 00
	00 00		 mov	 rcx, QWORD PTR _Message$[rbp]
  00077	48 89 48 08	 mov	 QWORD PTR [rax+8], rcx

; 65   :     }

  0007b	48 8b 85 e0 00
	00 00		 mov	 rax, QWORD PTR this$[rbp]
  00082	48 8d a5 c8 00
	00 00		 lea	 rsp, QWORD PTR [rbp+200]
  00089	5f		 pop	 rdi
  0008a	5d		 pop	 rbp
  0008b	c3		 ret	 0
??0exception@std@@QEAA@QEBDH@Z ENDP			; std::exception::exception
_TEXT	ENDS
; Function compile flags: /Odtp /RTCsu /ZI
; File C:\Program Files (x86)\Microsoft Visual Studio\2019\Enterprise\VC\Tools\MSVC\14.23.28105\include\limits
;	COMDAT ?max@?$numeric_limits@_J@std@@SA_JXZ
_TEXT	SEGMENT
?max@?$numeric_limits@_J@std@@SA_JXZ PROC		; std::numeric_limits<__int64>::max, COMDAT

; 644  :     _NODISCARD static constexpr long long(max)() noexcept { // return maximum value

$LN3:
  00000	40 55		 push	 rbp
  00002	57		 push	 rdi
  00003	48 81 ec e8 00
	00 00		 sub	 rsp, 232		; 000000e8H
  0000a	48 8d 6c 24 20	 lea	 rbp, QWORD PTR [rsp+32]
  0000f	48 8b fc	 mov	 rdi, rsp
  00012	b9 3a 00 00 00	 mov	 ecx, 58			; 0000003aH
  00017	b8 cc cc cc cc	 mov	 eax, -858993460		; ccccccccH
  0001c	f3 ab		 rep stosd
  0001e	48 8d 0d 00 00
	00 00		 lea	 rcx, OFFSET FLAT:__289D9ECD_limits
  00025	e8 00 00 00 00	 call	 __CheckForDebuggerJustMyCode
  0002a	90		 npad	 1

; 645  :         return LLONG_MAX;

  0002b	48 b8 ff ff ff
	ff ff ff ff 7f	 mov	 rax, 9223372036854775807 ; 7fffffffffffffffH

; 646  :     }

  00035	48 8d a5 c8 00
	00 00		 lea	 rsp, QWORD PTR [rbp+200]
  0003c	5f		 pop	 rdi
  0003d	5d		 pop	 rbp
  0003e	c3		 ret	 0
?max@?$numeric_limits@_J@std@@SA_JXZ ENDP		; std::numeric_limits<__int64>::max
_TEXT	ENDS
; Function compile flags: /Odtp /RTCsu /ZI
; File C:\Program Files (x86)\Microsoft Visual Studio\2019\Enterprise\VC\Tools\MSVC\14.23.28105\include\vcruntime_new.h
;	COMDAT ??2@YAPEAX_KPEAX@Z
_TEXT	SEGMENT
_Size$ = 224
_Where$ = 232
??2@YAPEAX_KPEAX@Z PROC					; operator new, COMDAT

; 168  :     {

$LN3:
  00000	48 89 54 24 10	 mov	 QWORD PTR [rsp+16], rdx
  00005	48 89 4c 24 08	 mov	 QWORD PTR [rsp+8], rcx
  0000a	55		 push	 rbp
  0000b	57		 push	 rdi
  0000c	48 81 ec e8 00
	00 00		 sub	 rsp, 232		; 000000e8H
  00013	48 8d 6c 24 20	 lea	 rbp, QWORD PTR [rsp+32]
  00018	48 8b fc	 mov	 rdi, rsp
  0001b	b9 3a 00 00 00	 mov	 ecx, 58			; 0000003aH
  00020	b8 cc cc cc cc	 mov	 eax, -858993460		; ccccccccH
  00025	f3 ab		 rep stosd
  00027	48 8b 8c 24 08
	01 00 00	 mov	 rcx, QWORD PTR [rsp+264]
  0002f	48 8d 0d 00 00
	00 00		 lea	 rcx, OFFSET FLAT:__7F8AB566_vcruntime_new@h
  00036	e8 00 00 00 00	 call	 __CheckForDebuggerJustMyCode
  0003b	90		 npad	 1

; 169  :         (void)_Size;
; 170  :         return _Where;

  0003c	48 8b 85 e8 00
	00 00		 mov	 rax, QWORD PTR _Where$[rbp]

; 171  :     }

  00043	48 8d a5 c8 00
	00 00		 lea	 rsp, QWORD PTR [rbp+200]
  0004a	5f		 pop	 rdi
  0004b	5d		 pop	 rbp
  0004c	c3		 ret	 0
??2@YAPEAX_KPEAX@Z ENDP					; operator new
_TEXT	ENDS
; Function compile flags: /Odtp /RTCsu /ZI
; File E:\project\game_server\Server\Objector.cpp
;	COMDAT ?__empty_global_delete@@YAXPEAX_KW4align_val_t@std@@@Z
_TEXT	SEGMENT
__formal$ = 224
__formal$ = 232
__formal$ = 240
?__empty_global_delete@@YAXPEAX_KW4align_val_t@std@@@Z PROC ; __empty_global_delete, COMDAT

$LN3:
  00000	4c 89 44 24 18	 mov	 QWORD PTR [rsp+24], r8
  00005	48 89 54 24 10	 mov	 QWORD PTR [rsp+16], rdx
  0000a	48 89 4c 24 08	 mov	 QWORD PTR [rsp+8], rcx
  0000f	55		 push	 rbp
  00010	57		 push	 rdi
  00011	48 81 ec e8 00
	00 00		 sub	 rsp, 232		; 000000e8H
  00018	48 8d 6c 24 20	 lea	 rbp, QWORD PTR [rsp+32]
  0001d	48 8b fc	 mov	 rdi, rsp
  00020	b9 3a 00 00 00	 mov	 ecx, 58			; 0000003aH
  00025	b8 cc cc cc cc	 mov	 eax, -858993460		; ccccccccH
  0002a	f3 ab		 rep stosd
  0002c	48 8b 8c 24 08
	01 00 00	 mov	 rcx, QWORD PTR [rsp+264]
  00034	48 8d 0d 00 00
	00 00		 lea	 rcx, OFFSET FLAT:__8CEAE8BA_Objector@cpp
  0003b	e8 00 00 00 00	 call	 __CheckForDebuggerJustMyCode
  00040	90		 npad	 1
  00041	48 8d a5 c8 00
	00 00		 lea	 rsp, QWORD PTR [rbp+200]
  00048	5f		 pop	 rdi
  00049	5d		 pop	 rbp
  0004a	c3		 ret	 0
?__empty_global_delete@@YAXPEAX_KW4align_val_t@std@@@Z ENDP ; __empty_global_delete
_TEXT	ENDS
; Function compile flags: /Odtp /RTCsu /ZI
; File E:\project\game_server\Server\Objector.cpp
;	COMDAT ?__empty_global_delete@@YAXPEAXW4align_val_t@std@@@Z
_TEXT	SEGMENT
__formal$ = 224
__formal$ = 232
?__empty_global_delete@@YAXPEAXW4align_val_t@std@@@Z PROC ; __empty_global_delete, COMDAT

$LN3:
  00000	48 89 54 24 10	 mov	 QWORD PTR [rsp+16], rdx
  00005	48 89 4c 24 08	 mov	 QWORD PTR [rsp+8], rcx
  0000a	55		 push	 rbp
  0000b	57		 push	 rdi
  0000c	48 81 ec e8 00
	00 00		 sub	 rsp, 232		; 000000e8H
  00013	48 8d 6c 24 20	 lea	 rbp, QWORD PTR [rsp+32]
  00018	48 8b fc	 mov	 rdi, rsp
  0001b	b9 3a 00 00 00	 mov	 ecx, 58			; 0000003aH
  00020	b8 cc cc cc cc	 mov	 eax, -858993460		; ccccccccH
  00025	f3 ab		 rep stosd
  00027	48 8b 8c 24 08
	01 00 00	 mov	 rcx, QWORD PTR [rsp+264]
  0002f	48 8d 0d 00 00
	00 00		 lea	 rcx, OFFSET FLAT:__8CEAE8BA_Objector@cpp
  00036	e8 00 00 00 00	 call	 __CheckForDebuggerJustMyCode
  0003b	90		 npad	 1
  0003c	48 8d a5 c8 00
	00 00		 lea	 rsp, QWORD PTR [rbp+200]
  00043	5f		 pop	 rdi
  00044	5d		 pop	 rbp
  00045	c3		 ret	 0
?__empty_global_delete@@YAXPEAXW4align_val_t@std@@@Z ENDP ; __empty_global_delete
_TEXT	ENDS
; Function compile flags: /Odtp /RTCsu /ZI
; File E:\project\game_server\Server\Objector.cpp
;	COMDAT ?__empty_global_delete@@YAXPEAX_K@Z
_TEXT	SEGMENT
__formal$ = 224
__formal$ = 232
?__empty_global_delete@@YAXPEAX_K@Z PROC		; __empty_global_delete, COMDAT

$LN3:
  00000	48 89 54 24 10	 mov	 QWORD PTR [rsp+16], rdx
  00005	48 89 4c 24 08	 mov	 QWORD PTR [rsp+8], rcx
  0000a	55		 push	 rbp
  0000b	57		 push	 rdi
  0000c	48 81 ec e8 00
	00 00		 sub	 rsp, 232		; 000000e8H
  00013	48 8d 6c 24 20	 lea	 rbp, QWORD PTR [rsp+32]
  00018	48 8b fc	 mov	 rdi, rsp
  0001b	b9 3a 00 00 00	 mov	 ecx, 58			; 0000003aH
  00020	b8 cc cc cc cc	 mov	 eax, -858993460		; ccccccccH
  00025	f3 ab		 rep stosd
  00027	48 8b 8c 24 08
	01 00 00	 mov	 rcx, QWORD PTR [rsp+264]
  0002f	48 8d 0d 00 00
	00 00		 lea	 rcx, OFFSET FLAT:__8CEAE8BA_Objector@cpp
  00036	e8 00 00 00 00	 call	 __CheckForDebuggerJustMyCode
  0003b	90		 npad	 1
  0003c	48 8d a5 c8 00
	00 00		 lea	 rsp, QWORD PTR [rbp+200]
  00043	5f		 pop	 rdi
  00044	5d		 pop	 rbp
  00045	c3		 ret	 0
?__empty_global_delete@@YAXPEAX_K@Z ENDP		; __empty_global_delete
_TEXT	ENDS
; Function compile flags: /Odtp /RTCsu /ZI
; File E:\project\game_server\Server\Objector.cpp
;	COMDAT ?__empty_global_delete@@YAXPEAX@Z
_TEXT	SEGMENT
__formal$ = 224
?__empty_global_delete@@YAXPEAX@Z PROC			; __empty_global_delete, COMDAT

$LN3:
  00000	48 89 4c 24 08	 mov	 QWORD PTR [rsp+8], rcx
  00005	55		 push	 rbp
  00006	57		 push	 rdi
  00007	48 81 ec e8 00
	00 00		 sub	 rsp, 232		; 000000e8H
  0000e	48 8d 6c 24 20	 lea	 rbp, QWORD PTR [rsp+32]
  00013	48 8b fc	 mov	 rdi, rsp
  00016	b9 3a 00 00 00	 mov	 ecx, 58			; 0000003aH
  0001b	b8 cc cc cc cc	 mov	 eax, -858993460		; ccccccccH
  00020	f3 ab		 rep stosd
  00022	48 8b 8c 24 08
	01 00 00	 mov	 rcx, QWORD PTR [rsp+264]
  0002a	48 8d 0d 00 00
	00 00		 lea	 rcx, OFFSET FLAT:__8CEAE8BA_Objector@cpp
  00031	e8 00 00 00 00	 call	 __CheckForDebuggerJustMyCode
  00036	90		 npad	 1
  00037	48 8d a5 c8 00
	00 00		 lea	 rsp, QWORD PTR [rbp+200]
  0003e	5f		 pop	 rdi
  0003f	5d		 pop	 rbp
  00040	c3		 ret	 0
?__empty_global_delete@@YAXPEAX@Z ENDP			; __empty_global_delete
_TEXT	ENDS
END
